(dp0
S'a'
p1
(dp2
S'index'
p3
I8
sS'data'
p4
(dp5
S'y_tilt'
p6
(lp7
I-5
aI-5
aI-5
aI-5
aI-5
aI-5
aI-5
aI-5
aI-5
aI-5
aI-6
aI-6
aI-6
aI-6
aI-6
aI-7
aI-7
aI-8
aI-8
aI-8
aI-8
aI-9
aI-9
aI-9
aI-9
aI-10
aI-10
aI-10
aI-10
aI-10
aI-10
aI-10
aI-10
aI-10
aI-10
aI-10
aI-11
aI-11
aI-11
aI-11
aI-11
aI-11
aI-11
aI-11
aI-11
aI-11
aI-11
aI-11
aI-11
aI-11
aI-11
aI-11
aI-11
aI-11
aI-11
aI-11
aI-11
aI-11
aI-11
aI-11
aI-11
aI-11
aI-11
aI-11
aI-11
aI-11
aI-11
aI-11
aI-11
aI-11
aI-11
aI-11
aI-11
aI-11
aI-11
aI-11
aI-11
aI-11
aI-11
aI-11
aI-11
aI-11
aI-11
aI-11
aI-11
aI-11
aI-11
aI-10
aI-10
aI-10
aI-10
aI-10
aI-10
aI-10
aI-10
aI-10
aI-10
aI-10
aI-10
aI-10
aI-9
aI-9
aI-9
aI-9
aI-9
aI-9
aI-8
aI-8
aI-8
aI-8
aI-8
aI-7
aI-7
aI-7
aI-7
aI-6
aI-5
aI-5
aI-4
aI-4
aI-4
aI-4
aI-4
aI-3
aI-3
aI-3
aI-3
aI-3
aI-2
aI-2
aI-2
aI-2
aI-1
aI-1
aI-1
aI-1
aI-1
aI-1
aI-1
aI-1
aI0
aI0
aI0
aI0
aI0
aI0
aI0
aI0
aI0
aI0
aI0
aI0
aI0
aI0
aI0
aI0
aI0
aI0
aI0
aI0
aI0
aI0
aI0
aI0
aI0
aI0
aI0
aI0
aI0
aI0
aI0
aI0
aI0
aI0
aI-1
aI-1
aI-1
aI-1
aI-1
aI-1
aI-1
aI-1
aI-1
aI-1
aI-1
aI-1
aI-1
aI-1
aI-1
aI-1
aI-1
aI-1
aI-1
aI-1
aI-1
aI-1
aI-1
aI-1
aI-1
aI-2
aI-2
aI-2
aI-2
aI-2
aI-2
aI-2
aI-2
aI-3
aI-3
aI-3
aI-3
aI-3
aI-4
aI-4
aI-4
aI-4
aI-5
aI-5
aI-5
aI-5
aI-6
aI-6
aI-6
aI-6
aI-6
aI-7
aI-7
aI-7
aI-7
aI-7
aI-8
aI-8
aI-8
aI-9
aI-10
aI-10
aI-10
aI-11
aI-11
aI-11
aI-11
aI-12
aI-12
aI-12
aI-12
aI-12
aI-12
aI-12
aI-13
aI-13
aI-13
aI-13
aI-13
aI-14
aI-14
aI-14
aI-14
aI-14
aI-14
aI-14
aI-14
aI-14
aI-14
aI-14
aI-14
aI-14
aI-14
aI-14
aI-14
aI-14
aI-14
aI-14
aI-15
aI-15
aI-15
aI-16
aI-16
aI-16
aI-16
aI-16
aI-16
aI-16
aI-16
aI-16
aI-16
aI-16
aI-16
aI-16
aI-17
aI-17
aI-17
aI-17
aI-17
aI-17
aI-17
aI-18
aI-18
aI-18
aI-18
aI-18
aI-18
aI-18
aI-18
aI-18
aI-18
aI-18
aI-18
aI-18
aI-17
aI-17
aI-17
aI-17
aI-17
aI-17
aI-16
aI-16
aI-16
aI-16
aI-16
aI-16
aI-15
aI-15
aI-15
aI-15
aI-15
aI-15
aI-14
aI-14
aI-13
aI-13
aI-13
aI-13
aI-13
aI-13
aI-13
asS'pressure'
p8
(lp9
F0.34033203125
aF0.29248046875
aF0.26904296875
aF0.279296875
aF0.30859375
aF0.35498046875
aF0.3759765625
aF0.38916015625
aF0.39892578125
aF0.4140625
aF0.421875
aF0.4287109375
aF0.43359375
aF0.4365234375
aF0.44287109375
aF0.44580078125
aF0.44921875
aF0.4521484375
aF0.455078125
aF0.45947265625
aF0.46826171875
aF0.4716796875
aF0.4736328125
aF0.47607421875
aF0.4794921875
aF0.4794921875
aF0.4794921875
aF0.47998046875
aF0.482421875
aF0.48388671875
aF0.484375
aF0.484375
aF0.4853515625
aF0.4892578125
aF0.490234375
aF0.49169921875
aF0.4931640625
aF0.49755859375
aF0.50048828125
aF0.50146484375
aF0.50439453125
aF0.50537109375
aF0.50732421875
aF0.5078125
aF0.5107421875
aF0.513671875
aF0.513671875
aF0.51123046875
aF0.509765625
aF0.51123046875
aF0.51171875
aF0.513671875
aF0.51416015625
aF0.5146484375
aF0.517578125
aF0.51953125
aF0.521484375
aF0.5224609375
aF0.52587890625
aF0.53271484375
aF0.54345703125
aF0.55224609375
aF0.55419921875
aF0.55419921875
aF0.55322265625
aF0.54931640625
aF0.548828125
aF0.54833984375
aF0.54833984375
aF0.5478515625
aF0.5478515625
aF0.54931640625
aF0.5546875
aF0.55859375
aF0.55859375
aF0.55517578125
aF0.552734375
aF0.5517578125
aF0.5498046875
aF0.54931640625
aF0.5478515625
aF0.54736328125
aF0.5478515625
aF0.5498046875
aF0.5517578125
aF0.5546875
aF0.55859375
aF0.56103515625
aF0.56103515625
aF0.56201171875
aF0.564453125
aF0.5634765625
aF0.5634765625
aF0.56591796875
aF0.56640625
aF0.56640625
aF0.5673828125
aF0.57177734375
aF0.57373046875
aF0.57666015625
aF0.578125
aF0.578125
aF0.57763671875
aF0.57861328125
aF0.5810546875
aF0.58154296875
aF0.583984375
aF0.58349609375
aF0.58203125
aF0.58056640625
aF0.580078125
aF0.58203125
aF0.58203125
aF0.5810546875
aF0.58056640625
aF0.5791015625
aF0.57861328125
aF0.57568359375
aF0.57275390625
aF0.57080078125
aF0.5703125
aF0.568359375
aF0.568359375
aF0.568359375
aF0.568359375
aF0.56494140625
aF0.56298828125
aF0.56298828125
aF0.5625
aF0.5625
aF0.55712890625
aF0.55615234375
aF0.5546875
aF0.55078125
aF0.55029296875
aF0.54638671875
aF0.54443359375
aF0.54296875
aF0.541015625
aF0.5390625
aF0.53857421875
aF0.53662109375
aF0.53466796875
aF0.53173828125
aF0.52587890625
aF0.5234375
aF0.5234375
aF0.5244140625
aF0.52587890625
aF0.52685546875
aF0.52783203125
aF0.53125
aF0.5390625
aF0.5458984375
aF0.548828125
aF0.548828125
aF0.54638671875
aF0.546875
aF0.54736328125
aF0.55078125
aF0.5546875
aF0.5556640625
aF0.5556640625
aF0.548828125
aF0.54833984375
aF0.54296875
aF0.5390625
aF0.5390625
aF0.53857421875
aF0.5380859375
aF0.5341796875
aF0.53076171875
aF0.53125
aF0.52734375
aF0.52685546875
aF0.5302734375
aF0.53076171875
aF0.533203125
aF0.5341796875
aF0.5341796875
aF0.53466796875
aF0.53076171875
aF0.5302734375
aF0.53076171875
aF0.53076171875
aF0.53125
aF0.53173828125
aF0.53369140625
aF0.5341796875
aF0.53466796875
aF0.53759765625
aF0.541015625
aF0.54443359375
aF0.54296875
aF0.53759765625
aF0.53662109375
aF0.5341796875
aF0.5341796875
aF0.53466796875
aF0.5361328125
aF0.53662109375
aF0.5390625
aF0.54296875
aF0.54541015625
aF0.54833984375
aF0.55322265625
aF0.55908203125
aF0.56494140625
aF0.56689453125
aF0.5693359375
aF0.5703125
aF0.57958984375
aF0.58935546875
aF0.59326171875
aF0.59326171875
aF0.5830078125
aF0.580078125
aF0.580078125
aF0.58056640625
aF0.58154296875
aF0.5830078125
aF0.5830078125
aF0.58544921875
aF0.58740234375
aF0.59033203125
aF0.591796875
aF0.59326171875
aF0.595703125
aF0.60302734375
aF0.60498046875
aF0.60791015625
aF0.609375
aF0.61279296875
aF0.61474609375
aF0.619140625
aF0.6240234375
aF0.6298828125
aF0.6318359375
aF0.63427734375
aF0.6318359375
aF0.63037109375
aF0.63134765625
aF0.6357421875
aF0.63671875
aF0.638671875
aF0.63916015625
aF0.63916015625
aF0.638671875
aF0.63623046875
aF0.63330078125
aF0.626953125
aF0.62548828125
aF0.62548828125
aF0.62353515625
aF0.6181640625
aF0.60986328125
aF0.60986328125
aF0.6083984375
aF0.60546875
aF0.60498046875
aF0.603515625
aF0.60546875
aF0.607421875
aF0.609375
aF0.611328125
aF0.61181640625
aF0.6142578125
aF0.61474609375
aF0.61474609375
aF0.615234375
aF0.6171875
aF0.62158203125
aF0.62841796875
aF0.63330078125
aF0.63232421875
aF0.62744140625
aF0.62841796875
aF0.63134765625
aF0.6318359375
aF0.6318359375
aF0.63232421875
aF0.63232421875
aF0.634765625
aF0.63671875
aF0.63720703125
aF0.63720703125
aF0.6376953125
aF0.63916015625
aF0.638671875
aF0.638671875
aF0.64013671875
aF0.64013671875
aF0.6396484375
aF0.64013671875
aF0.640625
aF0.64111328125
aF0.64111328125
aF0.64404296875
aF0.64404296875
aF0.64453125
aF0.64453125
aF0.64501953125
aF0.64697265625
aF0.64892578125
aF0.65478515625
aF0.65625
aF0.65673828125
aF0.658203125
aF0.65869140625
aF0.66015625
aF0.65966796875
aF0.65673828125
aF0.6533203125
aF0.6533203125
aF0.65185546875
aF0.65185546875
aF0.65185546875
aF0.65380859375
aF0.65576171875
aF0.658203125
aF0.66162109375
aF0.66455078125
aF0.6650390625
aF0.66455078125
aF0.66455078125
aF0.66259765625
aF0.65576171875
aF0.650390625
aF0.64599609375
aF0.63916015625
aF0.634765625
aF0.61962890625
aF0.58544921875
aF0.51953125
aF0.28125
asS'x_tilt'
p10
(lp11
I-20
aI-20
aI-20
aI-20
aI-20
aI-20
aI-20
aI-20
aI-19
aI-19
aI-19
aI-19
aI-18
aI-18
aI-18
aI-18
aI-18
aI-18
aI-18
aI-18
aI-18
aI-17
aI-17
aI-17
aI-17
aI-17
aI-17
aI-17
aI-17
aI-17
aI-17
aI-16
aI-16
aI-16
aI-16
aI-15
aI-15
aI-15
aI-15
aI-15
aI-15
aI-15
aI-15
aI-15
aI-15
aI-15
aI-15
aI-15
aI-15
aI-15
aI-15
aI-15
aI-15
aI-15
aI-15
aI-14
aI-14
aI-14
aI-14
aI-14
aI-13
aI-13
aI-13
aI-13
aI-13
aI-13
aI-13
aI-13
aI-13
aI-13
aI-13
aI-13
aI-13
aI-13
aI-13
aI-13
aI-13
aI-13
aI-13
aI-13
aI-13
aI-13
aI-13
aI-13
aI-13
aI-13
aI-13
aI-13
aI-13
aI-13
aI-13
aI-13
aI-14
aI-14
aI-14
aI-14
aI-14
aI-14
aI-14
aI-14
aI-14
aI-14
aI-15
aI-15
aI-15
aI-15
aI-15
aI-15
aI-15
aI-15
aI-16
aI-16
aI-16
aI-16
aI-16
aI-16
aI-16
aI-16
aI-17
aI-17
aI-17
aI-17
aI-17
aI-17
aI-17
aI-17
aI-17
aI-17
aI-17
aI-17
aI-18
aI-18
aI-18
aI-18
aI-18
aI-18
aI-18
aI-18
aI-18
aI-18
aI-18
aI-18
aI-18
aI-18
aI-18
aI-18
aI-18
aI-18
aI-18
aI-18
aI-18
aI-18
aI-18
aI-18
aI-18
aI-18
aI-18
aI-18
aI-18
aI-18
aI-18
aI-18
aI-18
aI-18
aI-18
aI-18
aI-18
aI-18
aI-18
aI-18
aI-18
aI-18
aI-18
aI-18
aI-18
aI-18
aI-17
aI-17
aI-17
aI-17
aI-17
aI-17
aI-17
aI-17
aI-17
aI-17
aI-17
aI-17
aI-17
aI-17
aI-16
aI-16
aI-16
aI-16
aI-16
aI-16
aI-15
aI-15
aI-15
aI-15
aI-15
aI-15
aI-15
aI-14
aI-14
aI-14
aI-13
aI-13
aI-13
aI-12
aI-12
aI-12
aI-11
aI-11
aI-11
aI-11
aI-11
aI-11
aI-11
aI-10
aI-10
aI-10
aI-10
aI-10
aI-10
aI-9
aI-9
aI-8
aI-8
aI-8
aI-7
aI-7
aI-7
aI-7
aI-6
aI-6
aI-6
aI-6
aI-6
aI-6
aI-5
aI-5
aI-5
aI-5
aI-5
aI-5
aI-5
aI-4
aI-4
aI-4
aI-4
aI-4
aI-4
aI-4
aI-4
aI-4
aI-4
aI-4
aI-4
aI-4
aI-4
aI-4
aI-4
aI-4
aI-4
aI-4
aI-4
aI-4
aI-4
aI-4
aI-4
aI-4
aI-4
aI-4
aI-4
aI-4
aI-3
aI-3
aI-3
aI-3
aI-3
aI-3
aI-3
aI-3
aI-3
aI-3
aI-3
aI-3
aI-3
aI-3
aI-3
aI-3
aI-3
aI-3
aI-4
aI-4
aI-4
aI-4
aI-5
aI-6
aI-6
aI-6
aI-7
aI-7
aI-7
aI-8
aI-9
aI-9
aI-9
aI-9
aI-9
aI-10
aI-10
aI-11
aI-11
aI-12
aI-12
aI-13
aI-13
aI-13
aI-13
aI-14
aI-14
aI-14
aI-15
aI-15
aI-15
aI-16
aI-16
aI-17
aI-18
aI-18
aI-18
aI-18
aI-19
asS'time'
p12
(lp13
I1574
aI1574
aI1593
aI1611
aI1627
aI1642
aI1659
aI1676
aI1692
aI1709
aI1726
aI1743
aI1759
aI1776
aI1793
aI1808
aI1824
aI1841
aI1858
aI1875
aI1892
aI1909
aI1925
aI1942
aI1959
aI1976
aI1993
aI2010
aI2026
aI2042
aI2058
aI2074
aI2090
aI2106
aI2123
aI2139
aI2156
aI2173
aI2190
aI2206
aI2223
aI2240
aI2257
aI2257
aI2273
aI2290
aI2306
aI2322
aI2338
aI2354
aI2370
aI2370
aI2386
aI2402
aI2418
aI2434
aI2451
aI2466
aI2482
aI2499
aI2515
aI2531
aI2547
aI2562
aI2578
aI2594
aI2610
aI2625
aI2640
aI2657
aI2673
aI2689
aI2706
aI2723
aI2742
aI2755
aI2771
aI2788
aI2803
aI2818
aI2834
aI2850
aI2866
aI2883
aI2899
aI2915
aI2931
aI2947
aI2963
aI2979
aI2995
aI3011
aI3027
aI3042
aI3058
aI3073
aI3089
aI3105
aI3121
aI3137
aI3154
aI3170
aI3185
aI3201
aI3217
aI3233
aI3248
aI3264
aI3279
aI3295
aI3310
aI3325
aI3341
aI3358
aI3374
aI3390
aI3407
aI3424
aI3440
aI3457
aI3473
aI3490
aI3507
aI3523
aI3540
aI3556
aI3571
aI3587
aI3603
aI3618
aI3634
aI3650
aI3665
aI3681
aI3696
aI3712
aI3728
aI3744
aI3760
aI3776
aI3792
aI3808
aI3823
aI3840
aI3857
aI3873
aI3890
aI3906
aI3922
aI3939
aI3955
aI3971
aI3987
aI4002
aI4018
aI4034
aI4050
aI4065
aI4081
aI4097
aI4113
aI4129
aI4145
aI4161
aI4177
aI4193
aI4209
aI4225
aI4242
aI4259
aI4275
aI4291
aI4307
aI4323
aI4340
aI4355
aI4371
aI4387
aI4403
aI4419
aI4435
aI4452
aI4467
aI4483
aI4499
aI4515
aI4531
aI4547
aI4562
aI4578
aI4594
aI4609
aI4624
aI4640
aI4657
aI4673
aI4689
aI4706
aI4722
aI4738
aI4754
aI4770
aI4786
aI4802
aI4817
aI4833
aI4849
aI4865
aI4881
aI4897
aI4914
aI4930
aI4946
aI4962
aI4978
aI4994
aI5010
aI5026
aI5042
aI5058
aI5073
aI5090
aI5107
aI5123
aI5140
aI5156
aI5171
aI5186
aI5202
aI5218
aI5233
aI5250
aI5265
aI5280
aI5296
aI5312
aI5326
aI5342
aI5358
aI5375
aI5392
aI5408
aI5425
aI5442
aI5457
aI5474
aI5474
aI5491
aI5507
aI5522
aI5539
aI5554
aI5570
aI5586
aI5602
aI5618
aI5633
aI5649
aI5665
aI5681
aI5697
aI5713
aI5729
aI5745
aI5761
aI5777
aI5793
aI5808
aI5824
aI5841
aI5857
aI5874
aI5891
aI5907
aI5923
aI5940
aI5956
aI5973
aI5990
aI6007
aI6023
aI6040
aI6056
aI6072
aI6088
aI6104
aI6120
aI6136
aI6151
aI6167
aI6183
aI6199
aI6216
aI6232
aI6248
aI6264
aI6280
aI6296
aI6311
aI6325
aI6342
aI6357
aI6358
aI6373
aI6390
aI6407
aI6423
aI6440
aI6457
aI6473
aI6490
aI6507
aI6524
aI6541
aI6541
aI6557
aI6557
aI6573
aI6590
aI6590
aI6606
aI6623
aI6639
aI6655
aI6671
aI6687
aI6703
aI6719
aI6735
aI6752
aI6768
aI6784
aI6800
aI6815
aI6831
asS'y'
p14
(lp15
F694.292724609375
aF695.40380859375
aF695.4691772460938
aF694.9462890625
aF694.1947021484375
aF693.835205078125
aF693.8025512695312
aF693.9659423828125
aF694.717529296875
aF696.3515014648438
aF700.044189453125
aF703.5081176757812
aF707.0374145507812
aF710.2399291992188
aF712.8215942382812
aF715.2070922851562
aF717.690673828125
aF720.2396240234375
aF722.4617919921875
aF724.2264404296875
aF725.5662841796875
aF726.8734130859375
aF727.65771484375
aF728.2786254882812
aF728.768798828125
aF729.193603515625
aF729.4877319335938
aF729.7164916992188
aF729.8798828125
aF729.9779052734375
aF730.0432739257812
aF730.075927734375
aF730.075927734375
aF730.0106201171875
aF729.8798828125
aF729.7164916992188
aF729.2589721679688
aF728.6380615234375
aF727.9518432617188
aF727.23291015625
aF726.579345703125
aF726.0238037109375
aF725.5009155273438
aF725.3701782226562
aF724.9453735351562
aF724.6839599609375
aF724.55322265625
aF724.4552001953125
aF724.324462890625
aF724.0957641601562
aF723.932373046875
aF723.2787475585938
aF722.3964233398438
aF721.3834228515625
aF720.370361328125
aF719.5206909179688
aF718.83447265625
aF718.180908203125
aF717.4292602539062
aF716.5469360351562
aF715.6973266601562
aF714.9130249023438
aF713.96533203125
aF713.0830078125
aF711.1876220703125
aF708.7694091796875
aF706.0570678710938
aF703.148681640625
aF700.044189453125
aF697.0377197265625
aF694.3907470703125
aF692.4300537109375
aF691.3189697265625
aF690.9268188476562
aF690.8614501953125
aF690.8614501953125
aF690.6000366210938
aF689.848388671875
aF688.2798461914062
aF685.9596557617188
aF683.4107055664062
aF681.0578002929688
aF678.9990844726562
aF677.2997436523438
aF675.8618774414062
aF674.5220947265625
aF673.3456420898438
aF672.5286865234375
aF671.8751220703125
aF671.05810546875
aF670.0123901367188
aF668.7052612304688
aF667.10400390625
aF665.110595703125
aF662.8230590820312
aF660.4375610351562
aF658.1173706054688
aF656.05859375
aF654.26123046875
aF652.6599731445312
aF651.0260620117188
aF649.1306762695312
aF647.0392456054688
aF644.8824462890625
aF642.8236694335938
aF641.5165405273438
aF639.5557861328125
aF637.3009643554688
aF634.3272094726562
aF630.5691528320312
aF626.45166015625
aF622.5628662109375
aF619.2949829101562
aF616.5826416015625
aF614.0010375976562
aF611.190673828125
aF608.053466796875
aF604.78564453125
aF601.4850463867188
aF598.4459228515625
aF595.6029052734375
aF592.0736083984375
aF589.4266357421875
aF586.6815795898438
aF583.6098022460938
aF580.0805053710938
aF576.3878173828125
aF573.0218505859375
aF570.27685546875
aF568.740966796875
aF566.518798828125
aF564.2313232421875
aF561.9437866210938
aF559.7869873046875
aF557.7935791015625
aF555.8655395507812
aF554.1008911132812
aF552.3362426757812
aF550.7022705078125
aF549.297119140625
aF548.2186889648438
aF547.4343872070312
aF546.7154541015625
aF546.0292358398438
aF545.3756713867188
aF544.852783203125
aF544.65673828125
aF544.8201293945312
aF545.277587890625
aF545.8331298828125
aF546.388671875
aF546.84619140625
aF547.27099609375
aF547.4671020507812
aF547.499755859375
aF547.4343872070312
aF547.074951171875
aF546.42138671875
aF545.6044311523438
aF544.7221069335938
aF543.6763305664062
aF542.4019165039062
aF540.8006591796875
aF539.0032958984375
aF537.369384765625
aF536.2909545898438
aF535.8661499023438
aF535.7681274414062
aF536.029541015625
aF536.5523681640625
aF537.10791015625
aF537.5654296875
aF538.1209716796875
aF538.6438598632812
aF539.134033203125
aF539.6568603515625
aF540.0817260742188
aF540.3757934570312
aF540.5391845703125
aF540.5718994140625
aF540.5718994140625
aF540.7352905273438
aF541.12744140625
aF541.748291015625
aF542.4672241210938
aF543.088134765625
aF543.512939453125
aF543.8397827148438
aF544.003173828125
aF544.003173828125
aF543.9050903320312
aF543.74169921875
aF543.6436767578125
aF543.6436767578125
aF543.6436767578125
aF543.74169921875
aF544.0358276367188
aF544.4933471679688
aF545.0161743164062
aF545.6044311523438
aF546.1272583007812
aF546.617431640625
aF547.1729736328125
aF548.0552978515625
aF549.1337280273438
aF550.37548828125
aF551.71533203125
aF553.1531982421875
aF554.6890869140625
aF556.4864501953125
aF558.6105346679688
aF560.9307250976562
aF563.0548706054688
aF564.6887817382812
aF565.9959716796875
aF567.3357543945312
aF569.4598999023438
aF572.4990234375
aF576.0936889648438
aF579.6556396484375
aF582.890869140625
aF585.7992553710938
aF588.2828369140625
aF590.4396362304688
aF592.2042846679688
aF593.6094970703125
aF594.818603515625
aF596.2564697265625
aF598.2825317382812
aF601.027587890625
aF604.3607788085938
aF608.0208129882812
aF611.4847412109375
aF613.60888671875
aF616.484619140625
aF619.2296142578125
aF622.1707153320312
aF625.53662109375
aF629.2293090820312
aF632.7259521484375
aF635.503662109375
aF637.5623779296875
aF639.7845458984375
aF641.451171875
aF642.5949096679688
aF644.3595581054688
aF644.9478149414062
aF646.5817260742188
aF648.2156982421875
aF649.9476318359375
aF651.6796264648438
aF653.37890625
aF654.489990234375
aF656.6141357421875
aF657.9212646484375
aF658.9996948242188
aF659.6532592773438
aF660.666259765625
aF661.8754272460938
aF663.2479248046875
aF664.6204223632812
aF665.992919921875
aF667.4307861328125
aF669.0320434570312
aF670.7313232421875
aF672.3652954101562
aF674.0972290039062
aF676.0579833984375
aF678.1494140625
aF680.142822265625
aF682.2015991210938
aF684.6198120117188
aF687.658935546875
aF691.0902099609375
aF694.3907470703125
aF697.0377197265625
aF699.5540161132812
aF701.12255859375
aF702.7565307617188
aF704.6192016601562
aF706.645263671875
aF708.8347778320312
aF711.1222534179688
aF713.54052734375
aF715.958740234375
aF718.3115844726562
aF720.6317749023438
aF722.7232055664062
aF724.4552001953125
aF725.89306640625
aF727.1675415039062
aF728.4420166015625
aF729.651123046875
aF730.8602294921875
aF731.9059448242188
aF732.6902465820312
aF733.2784423828125
aF733.7033081054688
aF733.9973754882812
aF734.1281127929688
aF734.1281127929688
aF733.9973754882812
aF733.5399169921875
aF732.3961181640625
aF730.2066650390625
aF728.4420166015625
aF726.7100219726562
aF725.1087646484375
aF723.6382446289062
aF722.2984008789062
aF720.9912719726562
aF719.5534057617188
aF717.723388671875
aF716.9390869140625
aF714.0307006835938
aF711.7105102539062
aF710.5340576171875
aF708.2465209960938
aF707.2335205078125
aF704.455810546875
aF702.0048828125
aF699.7500610351562
aF697.7893676757812
aF696.2207641601562
aF694.9462890625
aF693.6718139648438
aF691.9071655273438
aF688.966064453125
aF684.8485717773438
aF680.6656494140625
aF677.8226318359375
aF676.7115478515625
aF676.580810546875
aF676.6788940429688
aF677.1363525390625
asS'x'
p16
(lp17
F3024.556396484375
aF3025.994140625
aF3026.713134765625
aF3027.00732421875
aF3026.87646484375
aF3026.680419921875
aF3026.58251953125
aF3026.45166015625
aF3026.09228515625
aF3025.340576171875
aF3024.131591796875
aF3023.3798828125
aF3022.595703125
aF3021.745849609375
aF3020.8310546875
aF3019.78515625
aF3018.576171875
aF3017.13818359375
aF3015.504150390625
aF3013.706787109375
aF3011.6806640625
aF3008.60888671875
aF3006.06005859375
aF3003.38037109375
aF3000.733154296875
aF2998.151611328125
aF2995.56982421875
aF2992.98828125
aF2990.504638671875
aF2988.315185546875
aF2986.485107421875
aF2984.94921875
aF2983.64208984375
aF2982.400146484375
aF2980.602783203125
aF2979.06689453125
aF2977.400390625
aF2975.60302734375
aF2973.6748046875
aF2971.714111328125
aF2969.851318359375
aF2968.119384765625
aF2966.58349609375
aF2966.1259765625
aF2964.949462890625
aF2964.165283203125
aF2963.707763671875
aF2963.282958984375
aF2962.662109375
aF2962.00830078125
aF2961.6162109375
aF2960.145751953125
aF2958.217529296875
aF2956.028076171875
aF2953.773193359375
aF2951.71435546875
aF2950.01513671875
aF2948.5771484375
aF2947.204833984375
aF2945.8974609375
aF2944.851806640625
aF2944.23095703125
aF2943.8388671875
aF2943.544677734375
aF2943.021728515625
aF2942.237548828125
aF2941.322509765625
aF2940.21142578125
aF2938.969482421875
aF2937.727783203125
aF2936.583984375
aF2935.70166015625
aF2935.146240234375
aF2934.884765625
aF2934.78662109375
aF2934.78662109375
aF2934.688720703125
aF2934.36181640625
aF2933.57763671875
aF2932.401123046875
aF2930.995849609375
aF2929.557861328125
aF2928.283447265625
aF2927.23779296875
aF2926.453369140625
aF2925.7998046875
aF2925.375
aF2925.113525390625
aF2925.04833984375
aF2925.04833984375
aF2925.04833984375
aF2925.178955078125
aF2925.34228515625
aF2925.47314453125
aF2925.571044921875
aF2925.636474609375
aF2925.669189453125
aF2925.734619140625
aF2925.865234375
aF2926.061279296875
aF2926.551513671875
aF2927.1396484375
aF2927.793212890625
aF2928.51220703125
aF2929.329345703125
aF2929.884765625
aF2930.865234375
aF2932.04150390625
aF2933.544921875
aF2935.3095703125
aF2936.97607421875
aF2938.283203125
aF2939.29638671875
aF2940.11328125
aF2940.766845703125
aF2941.48583984375
aF2942.302978515625
aF2942.989013671875
aF2943.479248046875
aF2943.7734375
aF2943.87158203125
aF2943.74072265625
aF2943.479248046875
aF2943.119873046875
aF2942.596923828125
aF2941.97607421875
aF2941.257080078125
aF2940.505615234375
aF2939.8193359375
aF2939.39453125
aF2938.74072265625
aF2937.89111328125
aF2936.910888671875
aF2935.832275390625
aF2934.656005859375
aF2933.4140625
aF2932.10693359375
aF2930.70166015625
aF2929.198486328125
aF2927.793212890625
aF2926.616943359375
aF2925.669189453125
aF2924.754150390625
aF2923.64306640625
aF2922.23779296875
aF2920.53857421875
aF2918.77392578125
aF2916.9765625
aF2915.17919921875
aF2913.34912109375
aF2911.5517578125
aF2909.8525390625
aF2908.5126953125
aF2907.728271484375
aF2907.466796875
aF2907.14013671875
aF2906.388427734375
aF2904.8525390625
aF2902.303466796875
aF2898.9375
aF2895.212158203125
aF2891.3232421875
aF2887.3037109375
aF2883.349609375
aF2879.8857421875
aF2877.17333984375
aF2875.21240234375
aF2873.741943359375
aF2872.369384765625
aF2870.996826171875
aF2869.624267578125
aF2868.023193359375
aF2866.127685546875
aF2864.13427734375
aF2862.206298828125
aF2860.376220703125
aF2858.513427734375
aF2856.650634765625
aF2854.918701171875
aF2853.121337890625
aF2851.323974609375
aF2849.559326171875
aF2847.827392578125
aF2845.899169921875
aF2843.807861328125
aF2841.618408203125
aF2839.4287109375
aF2837.173828125
aF2834.853759765625
aF2833.383056640625
aF2831.455078125
aF2830.0498046875
aF2829.2001953125
aF2828.80810546875
aF2828.513916015625
aF2827.89306640625
aF2826.781982421875
aF2825.14794921875
aF2823.056640625
aF2820.834228515625
aF2818.710205078125
aF2816.880126953125
aF2815.148193359375
aF2813.416259765625
aF2811.618896484375
aF2809.756103515625
aF2807.893310546875
aF2805.769287109375
aF2803.1875
aF2799.886962890625
aF2796.1943359375
aF2792.730224609375
aF2790.148681640625
aF2788.645263671875
aF2787.893798828125
aF2787.403564453125
aF2786.847900390625
aF2786.259765625
aF2785.508056640625
aF2784.625732421875
aF2783.67822265625
aF2782.6650390625
aF2781.652099609375
aF2780.638916015625
aF2779.789306640625
aF2779.1357421875
aF2778.580078125
aF2778.057373046875
aF2777.436279296875
aF2776.684814453125
aF2775.835205078125
aF2774.920166015625
aF2774.037841796875
aF2773.416748046875
aF2772.501708984375
aF2771.619384765625
aF2770.802490234375
aF2769.985595703125
aF2769.135986328125
aF2768.122802734375
aF2766.9462890625
aF2765.57373046875
aF2763.711181640625
aF2762.53466796875
aF2761.913818359375
aF2761.162109375
aF2760.966064453125
aF2760.41064453125
aF2760.018310546875
aF2759.78955078125
aF2760.051025390625
aF2760.998779296875
aF2761.913818359375
aF2764.005126953125
aF2765.508544921875
aF2766.91357421875
aF2767.796142578125
aF2769.201171875
aF2770.769775390625
aF2772.37109375
aF2773.906982421875
aF2775.4755859375
aF2777.142333984375
aF2778.972412109375
aF2780.704345703125
aF2782.14208984375
aF2783.384033203125
aF2784.593017578125
aF2785.80224609375
aF2787.011474609375
aF2788.187744140625
aF2789.527587890625
aF2791.031005859375
aF2792.730224609375
aF2794.3642578125
aF2795.867431640625
aF2797.5341796875
aF2798.7431640625
aF2800.05029296875
aF2801.5537109375
aF2803.1875
aF2805.05029296875
aF2807.109130859375
aF2809.42919921875
aF2811.7822265625
aF2814.1025390625
aF2816.422607421875
aF2818.808349609375
aF2821.2265625
aF2823.775390625
aF2826.5859375
aF2829.755859375
aF2833.383056640625
aF2837.435302734375
aF2841.585693359375
aF2845.474365234375
aF2849.167236328125
aF2852.794677734375
aF2856.193115234375
aF2858.21923828125
aF2860.9970703125
aF2861.87939453125
aF2863.64404296875
aF2866.45458984375
aF2870.539306640625
aF2873.611328125
aF2876.650390625
aF2879.72216796875
aF2882.728759765625
aF2885.70263671875
aF2888.970458984375
aF2892.434326171875
aF2895.767822265625
aF2896.84619140625
aF2900.048583984375
aF2902.07470703125
aF2903.0224609375
aF2904.7216796875
aF2905.440673828125
aF2907.466796875
aF2909.591064453125
aF2911.845947265625
aF2914.13330078125
aF2916.192138671875
aF2917.989501953125
aF2919.754150390625
aF2921.81298828125
aF2924.263916015625
aF2926.878173828125
aF2929.231201171875
aF2930.83251953125
aF2931.486083984375
aF2931.6494140625
aF2931.6494140625
aF2931.71484375
assS'nbShow'
p18
(lp19
ssS'e'
p20
(dp21
g3
I2
sg4
(dp22
g6
(lp23
I-4
aI-4
aI-4
aI-5
aI-5
aI-6
aI-6
aI-7
aI-7
aI-7
aI-7
aI-7
aI-8
aI-8
aI-8
aI-8
aI-9
aI-9
aI-10
aI-11
aI-11
aI-11
aI-11
aI-11
aI-11
aI-11
aI-12
aI-12
aI-13
aI-13
aI-14
aI-14
aI-14
aI-14
aI-14
aI-14
aI-14
aI-15
aI-15
aI-15
aI-14
aI-14
aI-14
aI-13
aI-12
aI-12
aI-11
aI-10
aI-10
aI-9
aI-9
aI-9
aI-8
aI-8
aI-8
aI-7
aI-7
aI-7
aI-7
aI-7
aI-7
aI-7
aI-7
aI-6
aI-6
aI-6
aI-6
aI-5
aI-4
aI-3
aI-3
aI-2
aI-2
aI-2
aI-2
aI-2
aI-2
aI-2
aI-2
aI-2
aI-2
aI-2
aI-2
aI-1
aI0
aI0
aI1
aI2
aI2
aI3
aI4
aI4
aI5
aI5
aI5
aI5
aI6
aI6
aI6
aI6
aI6
aI5
aI5
aI5
aI4
aI4
aI4
aI3
aI3
aI3
aI3
aI2
aI2
aI1
aI0
aI0
aI-1
aI-1
aI-2
aI-2
aI-3
aI-4
aI-4
aI-5
aI-5
aI-5
aI-5
aI-6
aI-6
aI-6
aI-7
aI-7
aI-7
aI-7
aI-7
aI-8
aI-8
aI-8
aI-8
aI-9
aI-9
aI-9
aI-9
aI-9
aI-9
aI-9
aI-9
aI-9
aI-9
aI-10
aI-10
aI-10
aI-10
aI-10
aI-10
aI-10
asg8
(lp24
F0.2568359375
aF0.36328125
aF0.38671875
aF0.3720703125
aF0.3720703125
aF0.3984375
aF0.45556640625
aF0.4619140625
aF0.45458984375
aF0.4638671875
aF0.46923828125
aF0.4697265625
aF0.47265625
aF0.47705078125
aF0.482421875
aF0.4814453125
aF0.48388671875
aF0.48388671875
aF0.48681640625
aF0.48681640625
aF0.48583984375
aF0.4853515625
aF0.4873046875
aF0.490234375
aF0.5009765625
aF0.51513671875
aF0.51416015625
aF0.51416015625
aF0.52294921875
aF0.52587890625
aF0.52783203125
aF0.52734375
aF0.521484375
aF0.51123046875
aF0.5087890625
aF0.51123046875
aF0.51220703125
aF0.51318359375
aF0.513671875
aF0.51318359375
aF0.51708984375
aF0.51953125
aF0.52783203125
aF0.53271484375
aF0.53759765625
aF0.541015625
aF0.548828125
aF0.55419921875
aF0.5546875
aF0.5615234375
aF0.56494140625
aF0.564453125
aF0.56982421875
aF0.5712890625
aF0.572265625
aF0.578125
aF0.57958984375
aF0.58154296875
aF0.5849609375
aF0.583984375
aF0.58251953125
aF0.58349609375
aF0.58740234375
aF0.59130859375
aF0.6044921875
aF0.60546875
aF0.6083984375
aF0.611328125
aF0.6103515625
aF0.6064453125
aF0.5927734375
aF0.58056640625
aF0.5771484375
aF0.578125
aF0.58642578125
aF0.58447265625
aF0.58447265625
aF0.59228515625
aF0.58935546875
aF0.5869140625
aF0.58251953125
aF0.57373046875
aF0.57763671875
aF0.572265625
aF0.57080078125
aF0.57421875
aF0.578125
aF0.57763671875
aF0.57275390625
aF0.5673828125
aF0.56298828125
aF0.5517578125
aF0.5458984375
aF0.54443359375
aF0.53955078125
aF0.537109375
aF0.53369140625
aF0.53369140625
aF0.5322265625
aF0.53173828125
aF0.5322265625
aF0.53515625
aF0.5400390625
aF0.54345703125
aF0.54296875
aF0.544921875
aF0.54736328125
aF0.55224609375
aF0.55517578125
aF0.5556640625
aF0.55615234375
aF0.560546875
aF0.564453125
aF0.56640625
aF0.5703125
aF0.5751953125
aF0.58251953125
aF0.5830078125
aF0.58447265625
aF0.583984375
aF0.57470703125
aF0.57177734375
aF0.5712890625
aF0.5693359375
aF0.568359375
aF0.56982421875
aF0.57177734375
aF0.57373046875
aF0.5791015625
aF0.5791015625
aF0.57861328125
aF0.58642578125
aF0.58642578125
aF0.5859375
aF0.5859375
aF0.58935546875
aF0.5859375
aF0.58544921875
aF0.58642578125
aF0.5869140625
aF0.58642578125
aF0.58837890625
aF0.58447265625
aF0.58251953125
aF0.5810546875
aF0.583984375
aF0.5888671875
aF0.59423828125
aF0.59619140625
aF0.59619140625
aF0.5986328125
aF0.60009765625
aF0.59814453125
aF0.5859375
aF0.56298828125
aF0.43994140625
asg10
(lp25
I-22
aI-22
aI-22
aI-21
aI-21
aI-21
aI-21
aI-21
aI-21
aI-20
aI-19
aI-19
aI-18
aI-18
aI-17
aI-16
aI-16
aI-15
aI-15
aI-15
aI-13
aI-13
aI-13
aI-12
aI-12
aI-11
aI-11
aI-10
aI-10
aI-10
aI-10
aI-10
aI-10
aI-10
aI-9
aI-9
aI-9
aI-8
aI-8
aI-8
aI-8
aI-8
aI-8
aI-8
aI-9
aI-9
aI-10
aI-10
aI-11
aI-11
aI-11
aI-12
aI-12
aI-13
aI-13
aI-14
aI-14
aI-15
aI-15
aI-16
aI-16
aI-17
aI-18
aI-18
aI-19
aI-20
aI-21
aI-21
aI-22
aI-23
aI-23
aI-23
aI-23
aI-24
aI-24
aI-24
aI-24
aI-24
aI-24
aI-25
aI-25
aI-25
aI-26
aI-26
aI-27
aI-27
aI-27
aI-27
aI-27
aI-27
aI-27
aI-27
aI-27
aI-27
aI-27
aI-26
aI-26
aI-25
aI-25
aI-25
aI-25
aI-24
aI-23
aI-23
aI-22
aI-21
aI-21
aI-20
aI-19
aI-19
aI-18
aI-17
aI-16
aI-15
aI-15
aI-14
aI-14
aI-13
aI-13
aI-13
aI-12
aI-12
aI-12
aI-12
aI-12
aI-12
aI-12
aI-12
aI-12
aI-12
aI-11
aI-11
aI-11
aI-11
aI-11
aI-11
aI-11
aI-10
aI-10
aI-10
aI-10
aI-10
aI-9
aI-8
aI-8
aI-8
aI-8
aI-8
aI-7
aI-7
aI-7
aI-7
aI-7
aI-7
aI-7
aI-7
asg12
(lp26
I1953
aI1990
aI2023
aI2056
aI2089
aI2089
aI2121
aI2153
aI2186
aI2218
aI2250
aI2282
aI2314
aI2347
aI2379
aI2411
aI2444
aI2476
aI2508
aI2540
aI2572
aI2605
aI2637
aI2670
aI2702
aI2734
aI2766
aI2798
aI2830
aI2862
aI2895
aI2927
aI2959
aI2991
aI3024
aI3056
aI3088
aI3120
aI3153
aI3185
aI3217
aI3249
aI3281
aI3313
aI3346
aI3378
aI3410
aI3442
aI3474
aI3507
aI3539
aI3571
aI3604
aI3636
aI3668
aI3701
aI3733
aI3765
aI3797
aI3830
aI3862
aI3894
aI3926
aI3958
aI3991
aI4023
aI4055
aI4088
aI4120
aI4152
aI4184
aI4216
aI4248
aI4283
aI4318
aI4353
aI4388
aI4423
aI4458
aI4494
aI4527
aI4559
aI4591
aI4626
aI4659
aI4694
aI4729
aI4762
aI4796
aI4831
aI4864
aI4899
aI4931
aI4963
aI4995
aI5027
aI5059
aI5091
aI5123
aI5155
aI5187
aI5219
aI5251
aI5282
aI5314
aI5346
aI5378
aI5410
aI5442
aI5473
aI5506
aI5538
aI5570
aI5602
aI5634
aI5666
aI5699
aI5731
aI5763
aI5795
aI5827
aI5859
aI5891
aI5923
aI5956
aI5988
aI6020
aI6053
aI6084
aI6117
aI6149
aI6181
aI6215
aI6247
aI6279
aI6311
aI6343
aI6376
aI6408
aI6440
aI6472
aI6504
aI6536
aI6569
aI6601
aI6633
aI6666
aI6698
aI6730
aI6762
aI6794
aI6826
aI6858
aI6891
aI6923
aI6955
asg14
(lp27
F687.6262817382812
aF688.34521484375
aF691.5803833007812
aF698.7369995117188
aF699.7827758789062
aF703.7042236328125
aF706.9720458984375
aF710.7954711914062
aF715.2070922851562
aF716.3508911132812
aF716.5469360351562
aF716.7103271484375
aF718.0175170898438
aF719.9782104492188
aF721.8408813476562
aF722.9846801757812
aF724.0630493164062
aF725.6316528320312
aF728.0172119140625
aF730.108642578125
aF730.6968383789062
aF730.6641845703125
aF730.108642578125
aF728.8995361328125
aF727.5269775390625
aF725.7623291015625
aF722.0369873046875
aF716.8737182617188
aF713.05029296875
aF711.0242309570312
aF709.2269287109375
aF708.2465209960938
aF707.2335205078125
aF705.0113525390625
aF701.5474243164062
aF698.9984741210938
aF698.01806640625
aF696.8743286132812
aF695.175048828125
aF692.7568359375
aF688.083740234375
aF682.364990234375
aF677.2344360351562
aF670.63330078125
aF663.0518188476562
aF657.4964599609375
aF653.640380859375
aF650.6992797851562
aF647.888916015625
aF645.4706420898438
aF643.640625
aF642.0720825195312
aF640.14404296875
aF638.2813110351562
aF636.810791015625
aF636.1245727539062
aF635.9611206054688
aF635.928466796875
aF635.6670532226562
aF634.7847290039062
aF632.9547119140625
aF630.1443481445312
aF626.45166015625
aF622.3994750976562
aF618.249267578125
aF614.6546020507812
aF610.8311767578125
aF607.1058349609375
aF603.5438232421875
aF600.2759399414062
aF597.6289672851562
aF595.9296875
aF595.3414916992188
aF595.276123046875
aF595.2107543945312
aF593.7728881835938
aF589.720703125
aF583.315673828125
aF580.9628295898438
aF579.5249633789062
aF577.4988403320312
aF574.917236328125
aF570.8323974609375
aF565.5384521484375
aF560.2445068359375
aF554.6237182617188
aF547.1076049804688
aF540.5718994140625
aF533.6439819335938
aF526.3892822265625
aF520.4091186523438
aF517.8274536132812
aF515.9647827148438
aF514.2981567382812
aF513.3831787109375
aF512.6968994140625
aF512.5335083007812
aF513.2850952148438
aF514.3961791992188
aF515.8013916015625
aF517.7294311523438
aF519.3960571289062
aF520.6051635742188
aF521.2914428710938
aF522.1083984375
aF524.0037231445312
aF526.7814331054688
aF531.1930541992188
aF536.3236694335938
aF539.7222290039062
aF542.663330078125
aF546.650146484375
aF550.8656616210938
aF554.9505004882812
aF559.68896484375
aF565.178955078125
aF572.6297607421875
aF580.4072875976562
aF586.7469482421875
aF592.8578491210938
aF598.6093139648438
aF604.6875610351562
aF611.9096069335938
aF618.47802734375
aF625.0791015625
aF631.6475830078125
aF635.732421875
aF638.5427856445312
aF642.6276245117188
aF645.9281616210938
aF647.7908325195312
aF650.30712890625
aF653.1174926757812
aF655.2089233398438
aF657.4637451171875
aF660.04541015625
aF662.0714721679688
aF662.888427734375
aF663.5093383789062
aF664.6204223632812
aF665.6661376953125
aF666.1236572265625
aF666.0909423828125
aF665.76416015625
aF664.9798583984375
aF663.9341430664062
aF663.2152099609375
aF663.0191650390625
aF663.1171875
aF663.3786010742188
aF663.5419921875
aF663.7380981445312
aF663.7380981445312
aF663.57470703125
aF662.65966796875
aF661.2871704101562
asg16
(lp28
F2978.28271484375
aF2978.805419921875
aF2978.64208984375
aF2976.81201171875
aF2976.32177734375
aF2973.8056640625
aF2971.94287109375
aF2969.720703125
aF2965.537841796875
aF2960.30908203125
aF2953.413818359375
aF2945.5380859375
aF2938.218017578125
aF2930.897705078125
aF2923.773681640625
aF2917.72802734375
aF2913.3818359375
aF2910.015869140625
aF2905.930908203125
aF2900.996337890625
aF2895.048828125
aF2889.52587890625
aF2884.65673828125
aF2879.72216796875
aF2875.114501953125
aF2869.787841796875
aF2860.801025390625
aF2849.68994140625
aF2840.114990234375
aF2834.821044921875
aF2831.84716796875
aF2830.14794921875
aF2827.76220703125
aF2822.272216796875
aF2814.78857421875
aF2809.49462890625
aF2807.2724609375
aF2805.89990234375
aF2804.331298828125
aF2802.239990234375
aF2799.004638671875
aF2796.619140625
aF2796.390380859375
aF2798.3837890625
aF2801.586181640625
aF2804.788818359375
aF2807.926025390625
aF2812.010986328125
aF2816.912841796875
aF2820.932373046875
aF2823.87353515625
aF2826.651123046875
aF2830.0498046875
aF2834.396240234375
aF2839.330810546875
aF2843.873046875
aF2848.873046875
aF2854.1669921875
aF2858.84033203125
aF2863.12109375
aF2867.72900390625
aF2873.284423828125
aF2879.460693359375
aF2885.865966796875
aF2892.23828125
aF2898.1533203125
aF2904.100830078125
aF2910.800048828125
aF2918.64306640625
aF2924.884765625
aF2928.904296875
aF2930.76708984375
aF2931.355224609375
aF2931.453369140625
aF2931.6494140625
aF2933.218017578125
aF2937.40087890625
aF2944.492431640625
aF2947.7275390625
aF2950.4072265625
aF2953.740478515625
aF2956.583740234375
aF2959.39404296875
aF2963.119384765625
aF2965.6357421875
aF2966.714111328125
aF2967.49853515625
aF2967.694580078125
aF2967.53125
aF2966.55078125
aF2965.341796875
aF2964.26318359375
aF2961.812255859375
aF2957.62939453125
aF2953.15234375
aF2948.2177734375
aF2944.10009765625
aF2939.917236328125
aF2934.884765625
aF2929.98291015625
aF2923.544921875
aF2916.94384765625
aF2909.558349609375
aF2902.401611328125
aF2897.891845703125
aF2894.6240234375
aF2888.088134765625
aF2879.101318359375
aF2871.61767578125
aF2865.89892578125
aF2860.08203125
aF2852.173583984375
aF2842.63134765625
aF2834.16748046875
aF2827.272216796875
aF2821.19384765625
aF2816.389892578125
aF2813.15478515625
aF2810.4423828125
aF2808.1220703125
aF2806.520751953125
aF2805.5732421875
aF2805.0830078125
aF2804.429443359375
aF2803.22021484375
aF2801.5537109375
aF2800.442626953125
aF2799.658203125
aF2799.070068359375
aF2798.77587890625
aF2798.547119140625
aF2798.155029296875
aF2797.92626953125
aF2797.762939453125
aF2797.305419921875
aF2796.357666015625
aF2795.24658203125
aF2794.3642578125
aF2793.579833984375
aF2792.01123046875
aF2789.658447265625
aF2786.78271484375
aF2783.449462890625
aF2779.560546875
aF2775.1162109375
aF2770.377685546875
aF2766.325439453125
aF2763.482421875
aF2761.19482421875
aF2759.135986328125
aF2756.946533203125
aF2755.181884765625
aF2754.299560546875
aF2753.743896484375
aF2752.959716796875
aF2752.2080078125
assg18
(lp29
ssS'm'
p30
(dp31
g3
I0
sg4
(dp32
g6
(lp33
I-18
aI-18
aI-18
aI-18
aI-18
aI-18
aI-17
aI-17
aI-17
aI-17
aI-16
aI-16
aI-16
aI-15
aI-15
aI-15
aI-15
aI-14
aI-14
aI-13
aI-13
aI-12
aI-12
aI-12
aI-12
aI-11
aI-11
aI-11
aI-11
aI-11
aI-11
aI-11
aI-11
aI-10
aI-10
aI-10
aI-10
aI-10
aI-10
aI-10
aI-10
aI-10
aI-10
aI-10
aI-10
aI-10
aI-10
aI-10
aI-10
aI-11
aI-11
aI-12
aI-12
aI-12
aI-12
aI-12
aI-12
aI-12
aI-13
aI-14
aI-14
aI-14
aI-15
aI-15
aI-15
aI-15
aI-15
aI-15
aI-16
aI-16
aI-16
aI-17
aI-18
aI-19
aI-19
aI-19
aI-19
aI-19
aI-15
aI-15
aI-14
aI-14
aI-14
aI-13
aI-12
aI-11
aI-11
aI-10
aI-9
aI-8
aI-8
aI-7
aI-6
aI-6
aI-6
aI-5
aI-5
aI-5
aI-5
aI-5
aI-5
aI-5
aI-5
aI-4
aI-4
aI-4
aI-4
aI-4
aI-4
aI-4
aI-4
aI-4
aI-4
aI-4
aI-4
aI-4
aI-4
aI-4
aI-4
aI-4
aI-4
aI-4
aI-4
aI-5
aI-5
aI-5
aI-5
aI-5
aI-5
aI-5
aI-5
aI-5
aI-5
aI-5
aI-5
aI-5
aI-5
aI-5
aI-5
aI-5
aI-6
aI-6
aI-6
aI-6
aI-7
aI-7
aI-7
aI-7
aI-7
aI-7
aI-7
aI-8
aI-8
aI-9
aI-9
aI-9
aI-9
aI-9
aI-9
aI-10
aI-10
aI-10
aI-11
aI-12
aI-12
aI-12
aI-12
aI-13
aI-13
aI-13
aI-13
aI-13
aI-13
aI-13
aI-13
aI-13
aI-14
aI-14
aI-14
aI-6
aI-6
aI-6
aI-6
aI-6
aI-6
aI-6
aI-6
aI-6
aI-6
aI-6
aI-6
aI-6
aI-6
aI-6
aI-6
aI-5
aI-5
aI-5
aI-4
aI-4
aI-4
aI-4
aI-3
aI-2
aI-2
aI-2
aI-1
aI-1
aI-1
aI-1
aI-1
aI0
aI0
aI0
aI0
aI1
aI1
aI1
aI1
aI1
aI1
aI1
aI1
aI1
aI1
aI2
aI2
aI2
aI2
aI2
aI2
aI2
aI2
aI2
aI2
aI2
aI3
aI3
aI3
aI3
aI3
aI3
aI3
aI3
aI3
aI3
aI3
aI3
aI3
aI3
aI3
aI3
aI3
aI3
aI3
aI3
aI3
aI3
aI3
aI3
aI3
aI3
aI3
aI3
aI3
aI3
aI3
aI3
aI3
aI2
aI2
aI2
aI2
aI2
aI1
aI1
aI1
aI1
aI1
aI1
aI1
aI1
aI1
aI1
aI1
aI1
aI1
aI1
aI0
aI0
aI0
aI-1
aI-1
aI-1
aI-1
aI-1
aI-1
aI-1
aI-1
aI-1
aI-1
aI-1
aI-1
aI-2
aI-2
aI-2
aI-2
aI-3
aI-3
aI-4
aI-4
aI-4
aI-4
aI-4
aI-4
aI-4
aI-4
aI-4
aI-4
aI-4
aI-5
aI-5
aI-6
aI-6
aI-7
aI-7
aI-7
aI-7
aI-7
aI-7
aI-7
aI-7
aI-7
aI-7
aI-7
aI-7
aI-7
aI-7
aI-7
aI-7
aI-7
aI-7
aI-7
aI-7
aI-7
aI-7
aI-7
aI-7
aI-7
aI-7
aI-7
aI-7
aI-7
aI-7
aI-7
aI-7
aI-7
aI-7
aI-7
aI-7
aI-7
aI-7
aI-7
aI-7
aI-7
aI-7
aI-7
aI-7
aI-7
aI-6
aI-6
aI-6
aI-5
aI-5
aI-5
aI-4
aI-4
aI-3
aI-3
aI-2
aI-2
aI-2
aI-2
aI-2
aI-2
asg8
(lp34
F0.31689453125
aF0.36669921875
aF0.42626953125
aF0.44873046875
aF0.46044921875
aF0.466796875
aF0.4677734375
aF0.470703125
aF0.4775390625
aF0.48193359375
aF0.4833984375
aF0.48291015625
aF0.4853515625
aF0.49267578125
aF0.49951171875
aF0.50048828125
aF0.498046875
aF0.498046875
aF0.4970703125
aF0.498046875
aF0.5009765625
aF0.5068359375
aF0.513671875
aF0.5205078125
aF0.5244140625
aF0.5263671875
aF0.52587890625
aF0.52587890625
aF0.52783203125
aF0.52978515625
aF0.52880859375
aF0.52734375
aF0.52392578125
aF0.5166015625
aF0.5126953125
aF0.5107421875
aF0.509765625
aF0.5107421875
aF0.51025390625
aF0.50927734375
aF0.51220703125
aF0.5126953125
aF0.51171875
aF0.50830078125
aF0.50537109375
aF0.50048828125
aF0.50146484375
aF0.49853515625
aF0.49267578125
aF0.4892578125
aF0.48876953125
aF0.4921875
aF0.49072265625
aF0.48486328125
aF0.48486328125
aF0.47216796875
aF0.4765625
aF0.4775390625
aF0.46923828125
aF0.4716796875
aF0.46337890625
aF0.46044921875
aF0.462890625
aF0.4599609375
aF0.455078125
aF0.4580078125
aF0.4619140625
aF0.453125
aF0.45263671875
aF0.4453125
aF0.45263671875
aF0.46044921875
aF0.47119140625
aF0.47119140625
aF0.47119140625
aF0.466796875
aF0.45703125
aF0.34130859375
aF0.0810546875
aF0.2099609375
aF0.25927734375
aF0.3232421875
aF0.3525390625
aF0.37890625
aF0.40478515625
aF0.42138671875
aF0.423828125
aF0.43310546875
aF0.44384765625
aF0.4501953125
aF0.455078125
aF0.46142578125
aF0.46826171875
aF0.470703125
aF0.47412109375
aF0.478515625
aF0.4736328125
aF0.47119140625
aF0.4775390625
aF0.4736328125
aF0.46875
aF0.458984375
aF0.4560546875
aF0.455078125
aF0.453125
aF0.453125
aF0.45703125
aF0.45703125
aF0.4580078125
aF0.45703125
aF0.453125
aF0.45263671875
aF0.44970703125
aF0.4501953125
aF0.447265625
aF0.44677734375
aF0.44140625
aF0.44091796875
aF0.4404296875
aF0.43994140625
aF0.435546875
aF0.435546875
aF0.435546875
aF0.43115234375
aF0.43115234375
aF0.431640625
aF0.4326171875
aF0.43212890625
aF0.4287109375
aF0.4267578125
aF0.42431640625
aF0.421875
aF0.42138671875
aF0.42138671875
aF0.42138671875
aF0.4169921875
aF0.4150390625
aF0.41455078125
aF0.41357421875
aF0.41357421875
aF0.41357421875
aF0.4130859375
aF0.4091796875
aF0.4052734375
aF0.40478515625
aF0.40478515625
aF0.40673828125
aF0.40673828125
aF0.41064453125
aF0.4111328125
aF0.41015625
aF0.41015625
aF0.40966796875
aF0.40869140625
aF0.4091796875
aF0.412109375
aF0.41259765625
aF0.41015625
aF0.41162109375
aF0.41357421875
aF0.41552734375
aF0.416015625
aF0.416015625
aF0.42041015625
aF0.42041015625
aF0.4150390625
aF0.41015625
aF0.4091796875
aF0.41650390625
aF0.41845703125
aF0.42138671875
aF0.4130859375
aF0.4033203125
aF0.400390625
aF0.3984375
aF0.396484375
aF0.37744140625
aF0.3134765625
aF0.041015625
aF0.0791015625
aF0.01220703125
aF0.07568359375
aF0.15869140625
aF0.20703125
aF0.23486328125
aF0.267578125
aF0.2900390625
aF0.29833984375
aF0.322265625
aF0.33154296875
aF0.337890625
aF0.35009765625
aF0.353515625
aF0.35986328125
aF0.3681640625
aF0.3759765625
aF0.37744140625
aF0.37939453125
aF0.38525390625
aF0.39013671875
aF0.392578125
aF0.39306640625
aF0.3935546875
aF0.3935546875
aF0.3984375
aF0.40576171875
aF0.40869140625
aF0.41650390625
aF0.419921875
aF0.4208984375
aF0.4208984375
aF0.42138671875
aF0.421875
aF0.42431640625
aF0.4267578125
aF0.43017578125
aF0.4306640625
aF0.4326171875
aF0.43310546875
aF0.435546875
aF0.4375
aF0.43701171875
aF0.43603515625
aF0.43408203125
aF0.43359375
aF0.4326171875
aF0.42919921875
aF0.427734375
aF0.4326171875
aF0.43017578125
aF0.42822265625
aF0.42724609375
aF0.42724609375
aF0.42724609375
aF0.42724609375
aF0.4267578125
aF0.42724609375
aF0.4248046875
aF0.4248046875
aF0.42529296875
aF0.42724609375
aF0.42724609375
aF0.4267578125
aF0.4287109375
aF0.42626953125
aF0.42431640625
aF0.4228515625
aF0.42333984375
aF0.4248046875
aF0.42431640625
aF0.42333984375
aF0.41748046875
aF0.4130859375
aF0.41259765625
aF0.41650390625
aF0.41845703125
aF0.41845703125
aF0.412109375
aF0.41015625
aF0.40771484375
aF0.40771484375
aF0.4169921875
aF0.42041015625
aF0.4208984375
aF0.4189453125
aF0.41552734375
aF0.41552734375
aF0.4140625
aF0.41552734375
aF0.416015625
aF0.41796875
aF0.41796875
aF0.4130859375
aF0.41064453125
aF0.41064453125
aF0.41064453125
aF0.4111328125
aF0.40576171875
aF0.40380859375
aF0.4033203125
aF0.40380859375
aF0.40478515625
aF0.40576171875
aF0.40478515625
aF0.40380859375
aF0.4033203125
aF0.40283203125
aF0.40380859375
aF0.40185546875
aF0.396484375
aF0.39013671875
aF0.38232421875
aF0.3828125
aF0.38427734375
aF0.37939453125
aF0.359375
aF0.36181640625
aF0.37060546875
aF0.375
aF0.37744140625
aF0.37939453125
aF0.3818359375
aF0.3828125
aF0.38330078125
aF0.3828125
aF0.37646484375
aF0.37548828125
aF0.375
aF0.37548828125
aF0.37548828125
aF0.37646484375
aF0.3798828125
aF0.38037109375
aF0.38037109375
aF0.38037109375
aF0.37939453125
aF0.3759765625
aF0.373046875
aF0.37158203125
aF0.3720703125
aF0.37109375
aF0.37109375
aF0.37158203125
aF0.3681640625
aF0.35546875
aF0.353515625
aF0.35302734375
aF0.357421875
aF0.369140625
aF0.37548828125
aF0.37353515625
aF0.37060546875
aF0.37255859375
aF0.37060546875
aF0.37353515625
aF0.3740234375
aF0.3740234375
aF0.37841796875
aF0.3837890625
aF0.39404296875
aF0.4013671875
aF0.40283203125
aF0.4033203125
aF0.4052734375
aF0.40478515625
aF0.40625
aF0.404296875
aF0.404296875
aF0.40673828125
aF0.4111328125
aF0.41748046875
aF0.42236328125
aF0.42333984375
aF0.42578125
aF0.42578125
aF0.42626953125
aF0.42626953125
aF0.42626953125
aF0.42626953125
aF0.42626953125
aF0.42431640625
aF0.42431640625
aF0.4228515625
aF0.4228515625
aF0.42333984375
aF0.423828125
aF0.42578125
aF0.42431640625
aF0.42431640625
aF0.4228515625
aF0.42626953125
aF0.43017578125
aF0.43212890625
aF0.4326171875
aF0.43310546875
aF0.4326171875
aF0.4365234375
aF0.4365234375
aF0.43701171875
aF0.43505859375
aF0.43408203125
aF0.43359375
aF0.4326171875
aF0.404296875
aF0.30029296875
asg10
(lp35
I-19
aI-19
aI-19
aI-19
aI-19
aI-19
aI-19
aI-19
aI-19
aI-19
aI-19
aI-19
aI-19
aI-19
aI-20
aI-20
aI-21
aI-21
aI-21
aI-22
aI-22
aI-22
aI-22
aI-23
aI-23
aI-23
aI-24
aI-24
aI-24
aI-25
aI-25
aI-25
aI-25
aI-25
aI-25
aI-26
aI-26
aI-26
aI-26
aI-26
aI-26
aI-26
aI-27
aI-27
aI-27
aI-27
aI-27
aI-27
aI-27
aI-27
aI-27
aI-27
aI-27
aI-27
aI-27
aI-27
aI-27
aI-27
aI-27
aI-27
aI-27
aI-26
aI-26
aI-26
aI-26
aI-26
aI-25
aI-25
aI-24
aI-24
aI-24
aI-23
aI-23
aI-23
aI-23
aI-23
aI-23
aI-23
aI-26
aI-26
aI-26
aI-26
aI-26
aI-26
aI-26
aI-26
aI-26
aI-26
aI-26
aI-27
aI-27
aI-27
aI-27
aI-28
aI-28
aI-29
aI-29
aI-30
aI-30
aI-30
aI-30
aI-31
aI-31
aI-31
aI-31
aI-31
aI-32
aI-32
aI-32
aI-32
aI-32
aI-33
aI-33
aI-33
aI-33
aI-33
aI-33
aI-33
aI-33
aI-33
aI-33
aI-33
aI-33
aI-33
aI-33
aI-33
aI-33
aI-33
aI-33
aI-33
aI-33
aI-33
aI-33
aI-33
aI-33
aI-33
aI-33
aI-33
aI-33
aI-33
aI-33
aI-33
aI-33
aI-33
aI-33
aI-33
aI-33
aI-33
aI-32
aI-32
aI-32
aI-32
aI-32
aI-32
aI-32
aI-32
aI-31
aI-31
aI-31
aI-31
aI-31
aI-31
aI-31
aI-31
aI-31
aI-31
aI-31
aI-31
aI-31
aI-31
aI-30
aI-30
aI-30
aI-30
aI-30
aI-30
aI-30
aI-30
aI-30
aI-31
aI-31
aI-31
aI-31
aI-31
aI-31
aI-31
aI-31
aI-31
aI-31
aI-31
aI-31
aI-31
aI-31
aI-31
aI-31
aI-31
aI-31
aI-31
aI-31
aI-31
aI-31
aI-31
aI-31
aI-31
aI-31
aI-31
aI-31
aI-31
aI-31
aI-31
aI-31
aI-31
aI-31
aI-31
aI-31
aI-31
aI-31
aI-31
aI-31
aI-32
aI-32
aI-32
aI-32
aI-32
aI-32
aI-32
aI-33
aI-33
aI-33
aI-33
aI-33
aI-33
aI-33
aI-33
aI-33
aI-33
aI-33
aI-33
aI-33
aI-33
aI-33
aI-33
aI-33
aI-33
aI-33
aI-33
aI-33
aI-33
aI-33
aI-33
aI-33
aI-33
aI-34
aI-34
aI-34
aI-34
aI-34
aI-34
aI-34
aI-35
aI-35
aI-35
aI-35
aI-35
aI-35
aI-35
aI-35
aI-35
aI-35
aI-35
aI-35
aI-35
aI-35
aI-35
aI-35
aI-35
aI-35
aI-35
aI-35
aI-35
aI-35
aI-35
aI-35
aI-35
aI-35
aI-35
aI-35
aI-35
aI-35
aI-35
aI-35
aI-35
aI-35
aI-35
aI-35
aI-35
aI-35
aI-35
aI-34
aI-34
aI-34
aI-34
aI-34
aI-34
aI-34
aI-34
aI-34
aI-34
aI-34
aI-34
aI-34
aI-34
aI-34
aI-34
aI-34
aI-34
aI-34
aI-34
aI-34
aI-34
aI-34
aI-34
aI-34
aI-34
aI-34
aI-34
aI-34
aI-34
aI-34
aI-34
aI-34
aI-34
aI-34
aI-34
aI-34
aI-34
aI-34
aI-34
aI-34
aI-34
aI-34
aI-34
aI-34
aI-34
aI-34
aI-34
aI-34
aI-34
aI-34
aI-34
aI-34
aI-34
aI-34
aI-34
aI-34
aI-34
aI-34
aI-34
aI-34
aI-35
aI-35
aI-35
aI-35
aI-36
aI-36
aI-36
aI-37
aI-37
aI-37
aI-37
aI-37
aI-37
aI-37
aI-37
aI-37
aI-37
aI-37
aI-37
aI-37
aI-37
aI-37
aI-37
aI-37
aI-37
aI-37
asg12
(lp36
I32383
aI32426
aI32468
aI32510
aI32552
aI32594
aI32636
aI32678
aI32720
aI32762
aI32804
aI32846
aI32888
aI32932
aI32974
aI33017
aI33060
aI33103
aI33145
aI33188
aI33230
aI33272
aI33316
aI33359
aI33401
aI33441
aI33483
aI33524
aI33565
aI33606
aI33648
aI33689
aI33731
aI33772
aI33814
aI33855
aI33895
aI33936
aI33979
aI34021
aI34063
aI34104
aI34145
aI34185
aI34225
aI34266
aI34307
aI34348
aI34389
aI34431
aI34471
aI34513
aI34554
aI34594
aI34635
aI34676
aI34717
aI34758
aI34800
aI34840
aI34882
aI34922
aI34964
aI35004
aI35045
aI35045
aI35086
aI35126
aI35167
aI35207
aI35249
aI35289
aI35331
aI35372
aI35413
aI35413
aI35455
aI35496
aI36140
aI36185
aI36226
aI36267
aI36307
aI36348
aI36388
aI36429
aI36470
aI36510
aI36551
aI36591
aI36632
aI36673
aI36713
aI36754
aI36795
aI36835
aI36876
aI36916
aI36957
aI36997
aI37038
aI37079
aI37119
aI37159
aI37200
aI37240
aI37241
aI37281
aI37322
aI37362
aI37403
aI37418
aI37434
aI37449
aI37465
aI37481
aI37496
aI37512
aI37528
aI37543
aI37559
aI37575
aI37591
aI37607
aI37623
aI37639
aI37656
aI37673
aI37689
aI37706
aI37723
aI37739
aI37756
aI37772
aI37789
aI37805
aI37822
aI37838
aI37838
aI37855
aI37872
aI37888
aI37904
aI37920
aI37936
aI37951
aI37967
aI37983
aI37999
aI38015
aI38031
aI38047
aI38062
aI38078
aI38093
aI38109
aI38124
aI38140
aI38157
aI38173
aI38189
aI38206
aI38222
aI38238
aI38255
aI38270
aI38286
aI38302
aI38318
aI38335
aI38351
aI38368
aI38384
aI38400
aI38416
aI38431
aI38447
aI38463
aI38479
aI38927
aI38966
aI38984
aI39001
aI39016
aI39031
aI39047
aI39062
aI39077
aI39093
aI39108
aI39125
aI39141
aI39157
aI39157
aI39174
aI39190
aI39206
aI39223
aI39239
aI39256
aI39272
aI39288
aI39305
aI39320
aI39336
aI39352
aI39367
aI39382
aI39398
aI39414
aI39429
aI39445
aI39460
aI39476
aI39491
aI39508
aI39524
aI39540
aI39556
aI39573
aI39589
aI39606
aI39623
aI39639
aI39655
aI39672
aI39688
aI39705
aI39721
aI39737
aI39753
aI39769
aI39784
aI39800
aI39815
aI39815
aI39831
aI39846
aI39861
aI39877
aI39892
aI39908
aI39924
aI39940
aI39956
aI39973
aI39989
aI40005
aI40021
aI40037
aI40053
aI40069
aI40085
aI40101
aI40118
aI40134
aI40150
aI40167
aI40183
aI40200
aI40216
aI40232
aI40249
aI40265
aI40281
aI40298
aI40313
aI40330
aI40346
aI40363
aI40379
aI40396
aI40412
aI40427
aI40444
aI40460
aI40476
aI40492
aI40509
aI40525
aI40542
aI40557
aI40574
aI40591
aI40608
aI40625
aI40642
aI40659
aI40676
aI40692
aI40709
aI40726
aI40742
aI40759
aI40776
aI40792
aI40808
aI40825
aI40841
aI40858
aI40875
aI40892
aI40909
aI40925
aI40942
aI40959
aI40976
aI40993
aI41008
aI41025
aI41042
aI41058
aI41074
aI41091
aI41108
aI41125
aI41142
aI41159
aI41176
aI41192
aI41209
aI41226
aI41241
aI41259
aI41276
aI41292
aI41308
aI41325
aI41342
aI41359
aI41376
aI41392
aI41408
aI41425
aI41442
aI41458
aI41475
aI41492
aI41509
aI41526
aI41542
aI41558
aI41558
aI41575
aI41591
aI41609
aI41626
aI41642
aI41658
aI41674
aI41692
aI41708
aI41725
aI41741
aI41758
aI41759
aI41776
aI41793
aI41808
aI41825
aI41842
aI41859
aI41876
aI41893
aI41909
aI41926
aI41942
aI41958
aI41975
aI41992
aI42008
aI42026
aI42042
aI42058
aI42075
aI42091
aI42108
aI42125
aI42142
aI42159
aI42176
aI42193
aI42210
aI42227
aI42244
asg14
(lp37
F604.328125
aF605.3738403320312
aF604.0339965820312
aF603.2824096679688
aF602.0079345703125
aF600.6027221679688
aF598.6420288085938
aF596.6159057617188
aF593.6421508789062
aF589.2958984375
aF586.3221435546875
aF582.7274780273438
aF577.3681640625
aF573.80615234375
aF571.7147216796875
aF569.4598999023438
aF567.6625366210938
aF565.1463012695312
aF563.21826171875
aF560.800048828125
aF558.577880859375
aF556.3230590820312
aF552.6956787109375
aF549.95068359375
aF548.0552978515625
aF546.5847778320312
aF545.0161743164062
aF543.6110229492188
aF542.1077880859375
aF541.2254638671875
aF540.7025756835938
aF540.2451171875
aF539.8202514648438
aF539.5914916992188
aF539.4934692382812
aF540.5718994140625
aF541.2581176757812
aF541.55224609375
aF542.1731567382812
aF543.120849609375
aF544.003173828125
aF545.2449340820312
aF546.9115600585938
aF548.7088623046875
aF550.6696166992188
aF552.793701171875
aF556.0942993164062
aF559.6235961914062
aF563.0875244140625
aF567.401123046875
aF571.61669921875
aF574.5578002929688
aF578.9694213867188
aF583.6424560546875
aF590.6357421875
aF596.158447265625
aF598.7073974609375
aF602.10595703125
aF606.9097290039062
aF612.6939086914062
aF618.249267578125
aF625.1771850585938
aF633.0853881835938
aF639.882568359375
aF644.0001220703125
aF644.7190551757812
aF650.6339111328125
aF659.0977172851562
aF669.9143676757812
aF676.4174194335938
aF681.6133422851562
aF687.0380249023438
aF695.3057861328125
aF702.658447265625
aF703.4427490234375
aF707.527587890625
aF710.1419067382812
aF709.3576049804688
aF582.2373046875
aF583.54443359375
aF577.8583374023438
aF575.603515625
aF573.610107421875
aF571.6820678710938
aF569.8193359375
aF567.825927734375
aF566.6168212890625
aF564.9175415039062
aF562.4993286132812
aF560.3751831054688
aF557.9896240234375
aF556.2903442382812
aF553.8067626953125
aF551.061767578125
aF547.6631469726562
aF545.8984985351562
aF544.395263671875
aF541.6502685546875
aF539.7548828125
aF538.9706420898438
aF538.8399047851562
aF539.5261840820312
aF541.12744140625
aF543.120849609375
aF546.0618896484375
aF546.5194091796875
aF548.839599609375
aF550.408203125
aF552.0094604492188
aF553.5453491210938
aF555.0812377929688
aF555.8328247070312
aF556.6498413085938
aF557.5321655273438
aF558.545166015625
aF559.7543334960938
aF561.0614624023438
aF562.4013061523438
aF563.7738037109375
aF565.0809326171875
aF566.4207763671875
aF567.3357543945312
aF568.8063354492188
aF570.3748779296875
aF572.1395263671875
aF574.0022583007812
aF576.5184936523438
aF578.2177734375
aF579.7210083007812
aF581.126220703125
aF582.6947631835938
aF584.655517578125
aF587.07373046875
aF589.8187255859375
aF592.6618041992188
aF595.3741455078125
aF598.0864868164062
aF599.00146484375
aF601.7465209960938
aF604.4915161132812
aF607.3018798828125
aF610.2102661132812
aF613.2821044921875
aF616.6806640625
aF620.6348266601562
aF624.8176879882812
aF628.6737670898438
aF632.0723876953125
aF635.046142578125
aF637.9545288085938
aF641.222412109375
aF643.8040771484375
aF648.2810668945312
aF653.0521240234375
aF657.8232421875
aF662.23486328125
aF666.3850708007812
aF670.5352783203125
aF674.848876953125
aF679.1297607421875
aF683.0839233398438
aF686.2864379882812
aF688.6719970703125
aF690.501953125
aF692.0051879882812
aF693.3123779296875
aF694.48876953125
aF695.6978759765625
aF697.1030883789062
aF698.6063232421875
aF699.8480834960938
aF700.5670166015625
aF700.7957763671875
aF700.926513671875
aF700.926513671875
aF700.926513671875
aF700.926513671875
aF700.4363403320312
aF698.7697143554688
aF578.1524658203125
aF577.7603149414062
aF578.1524658203125
aF578.9694213867188
aF579.59033203125
aF580.1131591796875
aF580.668701171875
aF581.2242431640625
aF581.4202880859375
aF581.322265625
aF580.9628295898438
aF580.0477905273438
aF579.0020751953125
aF578.6426391601562
aF577.6295776367188
aF576.6165161132812
aF575.5381469726562
aF574.2963256835938
aF572.727783203125
aF570.9957885742188
aF569.3618774414062
aF567.9893188476562
aF566.74755859375
aF565.3423461914062
aF563.5776977539062
aF561.682373046875
aF560.0157470703125
aF558.77392578125
aF557.695556640625
aF556.9439086914062
aF555.66943359375
aF554.166259765625
aF552.3362426757812
aF550.2120971679688
aF547.957275390625
aF545.8984985351562
aF544.2645874023438
aF543.0554809570312
aF542.0750732421875
aF541.2254638671875
aF540.5391845703125
aF540.1797485351562
aF540.0817260742188
aF540.0817260742188
aF539.983642578125
aF539.6895751953125
aF539.2647094726562
aF538.9706420898438
aF538.6438598632812
aF538.3170166015625
aF538.1536254882812
aF538.1863403320312
aF538.3823852539062
aF538.6111450195312
aF538.676513671875
aF538.7091674804688
aF538.7418823242188
aF538.7745361328125
aF538.8072509765625
aF538.8399047851562
aF538.8399047851562
aF538.8399047851562
aF539.134033203125
aF539.5261840820312
aF539.8202514648438
aF540.0490112304688
aF540.441162109375
aF540.9640502929688
aF541.5195922851562
aF541.8790283203125
aF542.2711791992188
aF542.7613525390625
aF543.3822631835938
aF544.2972412109375
aF545.4410400390625
aF546.6828002929688
aF547.76123046875
aF548.6435546875
aF549.52587890625
aF550.5715942382812
aF551.6826782226562
aF552.4342651367188
aF552.826416015625
aF553.1858520507812
aF553.8067626953125
aF554.7218017578125
aF555.7675170898438
aF556.9112548828125
aF558.0549926757812
aF559.1334228515625
aF560.1464233398438
aF561.4208984375
aF562.4013061523438
aF563.5123901367188
aF564.8195190429688
aF566.32275390625
aF567.401123046875
aF569.0350952148438
aF571.3225708007812
aF573.2506103515625
aF575.6361694335938
aF578.6099243164062
aF581.9431762695312
aF585.1783447265625
aF587.9234008789062
aF590.17822265625
aF592.3023681640625
aF594.5571899414062
aF597.923095703125
aF600.4066772460938
aF602.8902587890625
aF605.7332763671875
aF609.5240478515625
aF614.06640625
aF618.6414184570312
aF622.3341064453125
aF624.883056640625
aF625.5693359375
aF626.1575317382812
aF627.0071411132812
aF628.4777221679688
aF630.601806640625
aF633.0853881835938
aF635.6016845703125
aF637.9872436523438
aF640.8302612304688
aF642.6929931640625
aF644.4249267578125
aF646.3529663085938
aF648.54248046875
aF651.2548217773438
aF654.489990234375
aF657.9539184570312
aF661.3198852539062
aF664.3590087890625
aF667.9536743164062
aF670.5352783203125
aF673.1495361328125
aF675.8618774414062
aF678.7049560546875
aF681.5806884765625
aF684.554443359375
aF687.6915893554688
aF690.730712890625
aF693.5737915039062
aF694.4561157226562
aF694.9136352539062
aF695.7959594726562
aF697.6259765625
aF700.1095581054688
aF702.3643798828125
aF703.573486328125
aF703.9002685546875
aF703.998291015625
aF704.3577880859375
aF704.9786376953125
aF705.762939453125
aF706.7433471679688
aF708.2792358398438
aF710.664794921875
aF713.4097900390625
aF715.5665893554688
aF716.0567626953125
aF716.6123046875
aF716.9064331054688
aF717.06982421875
aF716.9717407226562
aF716.3181762695312
aF715.0110473632812
aF713.0176391601562
aF710.7301025390625
aF708.67138671875
aF707.0701293945312
aF705.9263305664062
aF705.109375
aF704.880615234375
aF704.259765625
aF703.7042236328125
aF703.0833129882812
aF702.4297485351562
aF701.7434692382812
aF700.9918823242188
aF699.9788208007812
aF699.0964965820312
aF698.1161499023438
aF697.0050659179688
aF695.9593505859375
aF694.9789428710938
aF694.1293334960938
aF693.410400390625
aF692.5934448242188
aF691.645751953125
aF690.305908203125
aF689.2275390625
aF688.083740234375
aF686.9400024414062
aF685.6001586914062
aF683.8682250976562
aF681.8094482421875
aF679.6199340820312
aF677.071044921875
aF675.6004638671875
aF674.5220947265625
aF673.6070556640625
aF672.5613403320312
aF671.1561889648438
asg16
(lp38
F2714.888427734375
aF2716.260986328125
aF2717.110595703125
aF2718.025634765625
aF2718.842529296875
aF2718.973388671875
aF2718.842529296875
aF2718.809814453125
aF2718.809814453125
aF2718.809814453125
aF2719.006103515625
aF2719.267333984375
aF2719.5615234375
aF2720.08447265625
aF2721.620361328125
aF2724.0712890625
aF2726.097412109375
aF2728.809814453125
aF2731.097412109375
aF2733.254150390625
aF2735.21484375
aF2737.044921875
aF2740.1494140625
aF2743.090576171875
aF2745.54150390625
aF2747.959716796875
aF2750.96630859375
aF2753.842041015625
aF2757.044677734375
aF2759.560791015625
aF2762.04443359375
aF2764.33203125
aF2766.782958984375
aF2767.82861328125
aF2769.29931640625
aF2771.55419921875
aF2773.580322265625
aF2775.377685546875
aF2777.33837890625
aF2779.16845703125
aF2780.41015625
aF2782.436279296875
aF2784.789306640625
aF2786.521240234375
aF2787.99169921875
aF2789.200927734375
aF2790.8349609375
aF2792.5341796875
aF2793.80859375
aF2794.7890625
aF2794.985107421875
aF2794.985107421875
aF2795.344482421875
aF2795.867431640625
aF2795.998046875
aF2796.03076171875
aF2795.5732421875
aF2795.18115234375
aF2795.18115234375
aF2795.18115234375
aF2795.344482421875
aF2795.73681640625
aF2796.390380859375
aF2797.37060546875
aF2797.5341796875
aF2797.46875
aF2797.174560546875
aF2797.50146484375
aF2797.697509765625
aF2796.52099609375
aF2793.939453125
aF2791.782470703125
aF2790.115966796875
aF2790.76953125
aF2790.965576171875
aF2792.338134765625
aF2793.220458984375
aF2793.35107421875
aF2794.82177734375
aF2795.638671875
aF2797.828125
aF2798.41650390625
aF2798.971923828125
aF2800.05029296875
aF2801.684326171875
aF2804.13525390625
aF2806.357421875
aF2808.57958984375
aF2811.2919921875
aF2814.42919921875
aF2818.1220703125
aF2820.866943359375
aF2823.710205078125
aF2826.48779296875
aF2829.821044921875
aF2831.9453125
aF2834.03662109375
aF2836.78173828125
aF2839.00390625
aF2842.1083984375
aF2844.722900390625
aF2847.892822265625
aF2851.02978515625
aF2854.101806640625
aF2857.40234375
aF2857.892578125
aF2860.6376953125
aF2863.546142578125
aF2866.38916015625
aF2869.591796875
aF2872.271484375
aF2873.251708984375
aF2874.166748046875
aF2875.147216796875
aF2876.25830078125
aF2877.4345703125
aF2878.51318359375
aF2879.42822265625
aF2880.1796875
aF2880.833251953125
aF2881.48681640625
aF2881.846435546875
aF2882.369140625
aF2882.9248046875
aF2883.480224609375
aF2884.134033203125
aF2885.08154296875
aF2885.735107421875
aF2886.323486328125
aF2886.87890625
aF2887.40185546875
aF2888.022705078125
aF2888.67626953125
aF2889.362548828125
aF2890.01611328125
aF2890.57177734375
aF2890.9638671875
aF2891.029296875
aF2891.225341796875
aF2891.3232421875
aF2891.42138671875
aF2891.51953125
aF2891.650146484375
aF2891.682861328125
aF2891.650146484375
aF2891.42138671875
aF2891.06201171875
aF2890.669677734375
aF2890.343017578125
aF2890.08154296875
aF2889.885498046875
aF2889.754638671875
aF2889.55859375
aF2889.329833984375
aF2889.068359375
aF2888.7744140625
aF2888.545654296875
aF2888.349609375
aF2888.120849609375
aF2887.82666015625
aF2887.499755859375
aF2887.238525390625
aF2887.04248046875
aF2886.91162109375
aF2886.84619140625
aF2886.813720703125
aF2886.781005859375
aF2886.617431640625
aF2886.388671875
aF2886.192626953125
aF2886.06201171875
aF2886.06201171875
aF2886.029296875
aF2886.029296875
aF2886.029296875
aF2886.029296875
aF2886.029296875
aF2886.0947265625
aF2886.55224609375
aF2892.20556640625
aF2891.9443359375
aF2891.35595703125
aF2890.8984375
aF2890.702392578125
aF2890.669677734375
aF2890.93115234375
aF2891.290771484375
aF2891.4541015625
aF2891.617431640625
aF2891.682861328125
aF2891.8134765625
aF2892.107666015625
aF2892.27099609375
aF2892.82666015625
aF2893.6435546875
aF2894.52587890625
aF2895.4736328125
aF2896.453857421875
aF2897.434326171875
aF2898.447509765625
aF2899.39501953125
aF2900.31005859375
aF2901.094482421875
aF2901.6826171875
aF2902.07470703125
aF2902.467041015625
aF2903.1533203125
aF2904.133544921875
aF2904.8525390625
aF2905.865478515625
aF2906.64990234375
aF2907.238037109375
aF2907.662841796875
aF2907.98974609375
aF2908.283935546875
aF2908.708740234375
aF2909.100830078125
aF2909.492919921875
aF2910.048583984375
aF2910.63671875
aF2911.290283203125
aF2912.107177734375
aF2913.153076171875
aF2914.852294921875
aF2916.159423828125
aF2917.36865234375
aF2918.447021484375
aF2919.394775390625
aF2920.244384765625
aF2921.192138671875
aF2922.30322265625
aF2923.67578125
aF2925.244384765625
aF2926.35546875
aF2926.910888671875
aF2928.0546875
aF2929.754150390625
aF2931.387939453125
aF2932.825927734375
aF2934.198486328125
aF2935.571044921875
aF2936.97607421875
aF2938.218017578125
aF2939.3291015625
aF2940.374755859375
aF2941.453125
aF2942.531494140625
aF2943.544677734375
aF2944.427001953125
aF2945.342041015625
aF2946.35498046875
aF2947.498779296875
aF2948.838623046875
aF2950.342041015625
aF2951.943115234375
aF2953.413818359375
aF2954.8515625
aF2956.158935546875
aF2957.433349609375
aF2958.4462890625
aF2959.03466796875
aF2959.361328125
aF2959.720947265625
aF2960.4072265625
aF2961.420166015625
aF2962.56396484375
aF2963.773193359375
aF2964.88427734375
aF2965.897216796875
aF2966.844970703125
aF2968.086669921875
aF2969.034423828125
aF2970.080078125
aF2971.256591796875
aF2972.400390625
aF2973.119384765625
aF2974.13232421875
aF2975.47216796875
aF2976.3544921875
aF2977.106201171875
aF2977.759765625
aF2978.413330078125
aF2979.06689453125
aF2979.55712890625
aF2979.98193359375
aF2980.243408203125
aF2980.602783203125
aF2980.9296875
aF2981.223876953125
aF2981.517822265625
aF2981.681396484375
aF2981.74658203125
aF2981.942626953125
aF2982.400146484375
aF2982.890380859375
aF2983.1845703125
aF2983.0537109375
aF2982.563720703125
aF2982.073486328125
aF2981.681396484375
aF2981.32177734375
aF2981.027587890625
aF2980.83154296875
aF2980.766357421875
aF2980.798828125
aF2980.96240234375
aF2981.060302734375
aF2981.093017578125
aF2981.093017578125
aF2981.25634765625
aF2981.648681640625
aF2982.23681640625
aF2982.988525390625
aF2983.870849609375
aF2984.98193359375
aF2985.635498046875
aF2986.32177734375
aF2986.942626953125
aF2987.400146484375
aF2987.759521484375
aF2988.217041015625
aF2988.739990234375
aF2989.29541015625
aF2989.8837890625
aF2990.079833984375
aF2990.21044921875
aF2990.30859375
aF2990.537353515625
aF2990.864013671875
aF2991.386962890625
aF2992.0078125
aF2992.98828125
aF2993.80517578125
aF2994.556884765625
aF2995.373779296875
aF2996.288818359375
aF2997.39990234375
aF2998.609130859375
aF2999.916259765625
aF3001.190673828125
aF3002.46533203125
aF3002.89013671875
aF3003.7724609375
aF3005.210205078125
aF3007.072998046875
aF3008.445556640625
aF3009.785400390625
aF3011.28857421875
aF3012.955322265625
aF3014.654541015625
aF3016.386474609375
aF3018.281982421875
aF3020.406005859375
aF3022.5302734375
aF3023.216552734375
aF3024.981201171875
aF3026.419189453125
aF3027.693603515625
aF3029.033447265625
aF3030.438720703125
aF3031.94189453125
aF3033.8046875
aF3034.98095703125
aF3036.157470703125
aF3037.399169921875
aF3038.70654296875
aF3039.98095703125
aF3041.353515625
aF3042.693359375
aF3044.131103515625
aF3045.732421875
aF3048.1181640625
aF3049.947998046875
aF3051.810791015625
aF3053.73876953125
aF3055.764892578125
aF3058.085205078125
aF3060.50341796875
aF3062.82373046875
aF3065.340087890625
aF3066.71240234375
aF3067.62744140625
aF3068.2158203125
aF3068.738525390625
aF3069.130859375
assg18
(lp39
ssS'l'
p40
(dp41
g3
I3
sg4
(dp42
g6
(lp43
I-3
aI-3
aI-3
aI-3
aI-3
aI-4
aI-4
aI-4
aI-4
aI-4
aI-4
aI-5
aI-6
aI-7
aI-7
aI-8
aI-9
aI-9
aI-9
aI-9
aI-10
aI-10
aI-10
aI-10
aI-10
aI-10
aI-10
aI-10
aI-10
aI-10
aI-10
aI-10
aI-10
aI-10
aI-10
aI-10
aI-10
aI-10
aI-10
aI-10
aI-10
aI-10
aI-10
aI-10
aI-10
aI-10
aI-10
aI-10
aI-10
aI-10
aI-10
aI-10
aI-10
aI-11
aI-11
aI-11
aI-11
aI-11
aI-11
aI-11
aI-11
aI-11
aI-11
aI-10
aI-10
aI-10
aI-10
aI-10
aI-10
aI-10
aI-10
aI-10
aI-10
aI-10
aI-9
aI-9
aI-8
aI-8
aI-8
aI-8
aI-7
aI-7
aI-7
aI-7
aI-7
aI-6
aI-6
aI-5
aI-5
aI-4
aI-4
aI-4
aI-3
aI-3
aI-2
aI-1
aI-1
aI-1
aI-1
aI0
aI0
aI0
aI0
aI0
aI0
aI1
aI2
aI3
aI4
aI4
aI5
aI5
aI5
aI5
aI6
aI6
aI7
aI8
aI9
aI9
aI9
aI9
aI10
aI10
aI11
aI12
aI13
aI13
aI13
aI13
aI13
aI14
aI14
aI14
aI14
aI14
aI14
aI14
aI14
aI14
aI14
aI15
aI15
aI16
aI16
aI17
aI18
aI18
aI18
aI18
aI19
aI19
aI19
aI19
aI19
aI19
aI19
aI19
aI19
aI19
aI19
aI19
aI19
aI19
aI19
aI19
aI19
aI19
aI19
aI19
aI19
aI19
aI19
aI19
aI19
aI19
aI18
aI18
aI17
aI16
aI16
aI15
aI15
aI15
aI15
aI14
aI14
aI13
aI12
aI12
aI11
aI11
aI10
aI10
aI10
aI10
aI10
aI10
aI9
aI9
aI8
aI8
aI7
aI7
aI7
aI7
aI7
aI7
aI7
aI7
aI7
aI7
aI6
aI6
aI6
aI6
aI5
aI5
aI5
aI4
aI4
aI4
aI4
aI4
aI4
aI3
aI3
aI2
aI2
aI1
aI1
aI0
aI0
aI0
aI0
aI0
aI0
aI0
aI0
aI-1
aI-1
aI-1
aI-2
aI-2
aI-2
aI-2
aI-2
aI-2
aI-2
aI-2
aI-2
aI-3
aI-3
aI-3
aI-3
aI-3
aI-3
aI-3
aI-3
aI-4
aI-4
aI-4
aI-4
aI-4
aI-4
aI-4
aI-4
aI-4
aI-4
aI-5
aI-5
aI-5
aI-5
aI-5
aI-5
aI-5
aI-5
aI-5
aI-6
aI-6
aI-7
aI-7
aI-8
aI-8
aI-9
aI-9
aI-10
aI-10
aI-10
aI-10
aI-11
aI-11
aI-11
aI-11
aI-12
aI-12
aI-12
aI-12
aI-12
aI-12
aI-12
aI-12
aI-12
aI-12
aI-12
aI-13
aI-13
aI-13
asg8
(lp44
F0.1689453125
aF0.25146484375
aF0.294921875
aF0.30029296875
aF0.3056640625
aF0.31640625
aF0.32421875
aF0.3310546875
aF0.33984375
aF0.35205078125
aF0.35400390625
aF0.3583984375
aF0.3623046875
aF0.36181640625
aF0.36083984375
aF0.3623046875
aF0.365234375
aF0.36962890625
aF0.37353515625
aF0.37646484375
aF0.37890625
aF0.380859375
aF0.38134765625
aF0.38427734375
aF0.38525390625
aF0.38525390625
aF0.38525390625
aF0.38671875
aF0.39013671875
aF0.39111328125
aF0.3916015625
aF0.3916015625
aF0.39306640625
aF0.400390625
aF0.40576171875
aF0.41015625
aF0.416015625
aF0.419921875
aF0.421875
aF0.42236328125
aF0.41943359375
aF0.4169921875
aF0.41650390625
aF0.41845703125
aF0.42333984375
aF0.42529296875
aF0.4296875
aF0.43408203125
aF0.43896484375
aF0.4375
aF0.43359375
aF0.43115234375
aF0.4306640625
aF0.43212890625
aF0.43603515625
aF0.43994140625
aF0.443359375
aF0.45068359375
aF0.455078125
aF0.45654296875
aF0.4560546875
aF0.45654296875
aF0.45849609375
aF0.46044921875
aF0.46240234375
aF0.462890625
aF0.46337890625
aF0.4638671875
aF0.46728515625
aF0.47021484375
aF0.47216796875
aF0.4716796875
aF0.4716796875
aF0.4736328125
aF0.4765625
aF0.48046875
aF0.4853515625
aF0.48876953125
aF0.48974609375
aF0.49365234375
aF0.4990234375
aF0.49951171875
aF0.49951171875
aF0.5029296875
aF0.50537109375
aF0.509765625
aF0.51416015625
aF0.5185546875
aF0.52294921875
aF0.52587890625
aF0.52783203125
aF0.533203125
aF0.53662109375
aF0.53759765625
aF0.5380859375
aF0.53759765625
aF0.53515625
aF0.53515625
aF0.53759765625
aF0.5380859375
aF0.53759765625
aF0.53515625
aF0.53369140625
aF0.533203125
aF0.533203125
aF0.53271484375
aF0.5302734375
aF0.5283203125
aF0.52587890625
aF0.52490234375
aF0.5244140625
aF0.5263671875
aF0.52685546875
aF0.52734375
aF0.52294921875
aF0.51416015625
aF0.51025390625
aF0.51025390625
aF0.51025390625
aF0.5078125
aF0.50732421875
aF0.5068359375
aF0.5068359375
aF0.50830078125
aF0.5078125
aF0.50732421875
aF0.50732421875
aF0.5
aF0.4970703125
aF0.4970703125
aF0.50537109375
aF0.50732421875
aF0.50439453125
aF0.49658203125
aF0.4912109375
aF0.49609375
aF0.49755859375
aF0.49560546875
aF0.49072265625
aF0.48681640625
aF0.48681640625
aF0.48583984375
aF0.48583984375
aF0.486328125
aF0.48486328125
aF0.47265625
aF0.45703125
aF0.44970703125
aF0.4541015625
aF0.45947265625
aF0.46142578125
aF0.45654296875
aF0.44873046875
aF0.443359375
aF0.43603515625
aF0.43408203125
aF0.42822265625
aF0.419921875
aF0.41259765625
aF0.412109375
aF0.412109375
aF0.41162109375
aF0.4111328125
aF0.408203125
aF0.4072265625
aF0.4013671875
aF0.39892578125
aF0.39697265625
aF0.39599609375
aF0.3955078125
aF0.39501953125
aF0.39501953125
aF0.39501953125
aF0.3935546875
aF0.3896484375
aF0.38232421875
aF0.380859375
aF0.38037109375
aF0.38037109375
aF0.380859375
aF0.3818359375
aF0.38134765625
aF0.37841796875
aF0.373046875
aF0.3720703125
aF0.37060546875
aF0.36767578125
aF0.36962890625
aF0.373046875
aF0.375
aF0.375
aF0.37744140625
aF0.3779296875
aF0.38232421875
aF0.3857421875
aF0.3857421875
aF0.3857421875
aF0.3857421875
aF0.38037109375
aF0.37451171875
aF0.3740234375
aF0.3701171875
aF0.3642578125
aF0.3623046875
aF0.3642578125
aF0.36572265625
aF0.3603515625
aF0.3525390625
aF0.33203125
aF0.30859375
aF0.306640625
aF0.30615234375
aF0.30859375
aF0.30908203125
aF0.30615234375
aF0.30224609375
aF0.29736328125
aF0.298828125
aF0.30224609375
aF0.3076171875
aF0.3115234375
aF0.31103515625
aF0.30908203125
aF0.3095703125
aF0.31201171875
aF0.31494140625
aF0.314453125
aF0.31494140625
aF0.32080078125
aF0.32958984375
aF0.33837890625
aF0.3486328125
aF0.35302734375
aF0.3662109375
aF0.369140625
aF0.36279296875
aF0.3564453125
aF0.35546875
aF0.35986328125
aF0.3642578125
aF0.35546875
aF0.35546875
aF0.36279296875
aF0.365234375
aF0.36328125
aF0.36474609375
aF0.3671875
aF0.37060546875
aF0.37255859375
aF0.37158203125
aF0.369140625
aF0.36669921875
aF0.365234375
aF0.37060546875
aF0.3818359375
aF0.3818359375
aF0.38134765625
aF0.3828125
aF0.380859375
aF0.380859375
aF0.3798828125
aF0.38232421875
aF0.384765625
aF0.3818359375
aF0.37841796875
aF0.37744140625
aF0.37890625
aF0.3798828125
aF0.37939453125
aF0.37744140625
aF0.37890625
aF0.380859375
aF0.38427734375
aF0.3916015625
aF0.39892578125
aF0.40966796875
aF0.42138671875
aF0.4287109375
aF0.43310546875
aF0.43408203125
aF0.4365234375
aF0.44091796875
aF0.4462890625
aF0.4560546875
aF0.46044921875
aF0.4609375
aF0.46337890625
aF0.46533203125
aF0.4697265625
aF0.47119140625
aF0.47509765625
aF0.4794921875
aF0.48193359375
aF0.4755859375
aF0.4677734375
aF0.46728515625
aF0.4697265625
aF0.47412109375
aF0.4765625
aF0.4775390625
aF0.46826171875
aF0.45703125
aF0.44482421875
aF0.42431640625
aF0.3876953125
aF0.33203125
aF0.26220703125
aF0.0517578125
asg10
(lp45
I-27
aI-27
aI-27
aI-27
aI-27
aI-26
aI-26
aI-25
aI-25
aI-25
aI-25
aI-24
aI-24
aI-24
aI-24
aI-24
aI-24
aI-24
aI-24
aI-24
aI-23
aI-23
aI-23
aI-23
aI-23
aI-23
aI-23
aI-23
aI-23
aI-22
aI-22
aI-22
aI-22
aI-22
aI-22
aI-22
aI-21
aI-21
aI-21
aI-21
aI-21
aI-21
aI-21
aI-21
aI-21
aI-20
aI-20
aI-20
aI-19
aI-19
aI-19
aI-19
aI-19
aI-19
aI-19
aI-19
aI-19
aI-19
aI-19
aI-19
aI-19
aI-19
aI-19
aI-19
aI-19
aI-19
aI-19
aI-19
aI-19
aI-19
aI-19
aI-19
aI-19
aI-19
aI-19
aI-19
aI-20
aI-20
aI-20
aI-20
aI-20
aI-20
aI-20
aI-21
aI-21
aI-21
aI-21
aI-22
aI-22
aI-22
aI-23
aI-23
aI-23
aI-23
aI-23
aI-24
aI-25
aI-25
aI-25
aI-25
aI-25
aI-26
aI-26
aI-26
aI-26
aI-26
aI-27
aI-27
aI-27
aI-28
aI-28
aI-28
aI-28
aI-28
aI-28
aI-29
aI-29
aI-29
aI-29
aI-29
aI-30
aI-30
aI-30
aI-30
aI-30
aI-31
aI-31
aI-31
aI-32
aI-32
aI-33
aI-33
aI-33
aI-33
aI-33
aI-33
aI-33
aI-33
aI-33
aI-33
aI-33
aI-33
aI-33
aI-33
aI-33
aI-33
aI-33
aI-33
aI-33
aI-33
aI-33
aI-33
aI-33
aI-33
aI-33
aI-33
aI-33
aI-32
aI-32
aI-32
aI-32
aI-32
aI-32
aI-32
aI-32
aI-32
aI-32
aI-32
aI-31
aI-31
aI-31
aI-31
aI-30
aI-30
aI-30
aI-30
aI-30
aI-30
aI-30
aI-30
aI-30
aI-30
aI-30
aI-30
aI-29
aI-29
aI-29
aI-29
aI-29
aI-29
aI-29
aI-29
aI-29
aI-29
aI-29
aI-29
aI-29
aI-29
aI-29
aI-29
aI-29
aI-29
aI-28
aI-28
aI-28
aI-28
aI-28
aI-28
aI-28
aI-28
aI-28
aI-28
aI-28
aI-28
aI-28
aI-28
aI-28
aI-28
aI-28
aI-28
aI-28
aI-28
aI-28
aI-28
aI-28
aI-28
aI-28
aI-28
aI-28
aI-28
aI-28
aI-28
aI-28
aI-28
aI-28
aI-28
aI-28
aI-28
aI-28
aI-28
aI-28
aI-28
aI-28
aI-28
aI-28
aI-28
aI-28
aI-28
aI-28
aI-28
aI-28
aI-28
aI-28
aI-28
aI-28
aI-28
aI-28
aI-28
aI-28
aI-28
aI-28
aI-28
aI-28
aI-28
aI-28
aI-28
aI-28
aI-28
aI-28
aI-28
aI-28
aI-27
aI-27
aI-27
aI-27
aI-27
aI-27
aI-26
aI-26
aI-26
aI-26
aI-26
aI-25
aI-25
aI-25
aI-25
aI-24
aI-24
aI-24
aI-24
aI-24
aI-23
aI-23
aI-23
aI-23
aI-23
aI-23
aI-23
aI-23
aI-22
aI-22
aI-22
aI-22
aI-22
aI-22
aI-22
aI-22
aI-21
asg12
(lp46
I1367
aI1385
aI1405
aI1421
aI1437
aI1454
aI1471
aI1487
aI1504
aI1520
aI1537
aI1554
aI1571
aI1587
aI1604
aI1620
aI1637
aI1654
aI1670
aI1688
aI1704
aI1720
aI1737
aI1754
aI1771
aI1787
aI1787
aI1804
aI1820
aI1837
aI1854
aI1871
aI1887
aI1904
aI1920
aI1937
aI1954
aI1970
aI1987
aI2004
aI2020
aI2037
aI2054
aI2070
aI2087
aI2104
aI2120
aI2137
aI2154
aI2170
aI2187
aI2204
aI2220
aI2237
aI2254
aI2270
aI2287
aI2304
aI2321
aI2337
aI2354
aI2370
aI2387
aI2404
aI2420
aI2437
aI2454
aI2471
aI2487
aI2504
aI2520
aI2537
aI2554
aI2571
aI2587
aI2604
aI2621
aI2637
aI2654
aI2671
aI2687
aI2704
aI2721
aI2737
aI2754
aI2770
aI2787
aI2804
aI2821
aI2837
aI2854
aI2870
aI2887
aI2904
aI2920
aI2938
aI2954
aI2971
aI2987
aI3004
aI3021
aI3037
aI3054
aI3071
aI3087
aI3104
aI3121
aI3137
aI3154
aI3171
aI3187
aI3204
aI3221
aI3237
aI3254
aI3271
aI3287
aI3305
aI3321
aI3338
aI3354
aI3371
aI3387
aI3404
aI3421
aI3437
aI3454
aI3471
aI3487
aI3504
aI3521
aI3538
aI3554
aI3571
aI3587
aI3604
aI3621
aI3637
aI3654
aI3671
aI3687
aI3704
aI3721
aI3738
aI3754
aI3754
aI3771
aI3787
aI3805
aI3821
aI3837
aI3854
aI3871
aI3887
aI3904
aI3921
aI3937
aI3954
aI3971
aI3987
aI4004
aI4021
aI4038
aI4055
aI4055
aI4071
aI4087
aI4104
aI4121
aI4137
aI4154
aI4171
aI4188
aI4204
aI4205
aI4221
aI4237
aI4254
aI4271
aI4287
aI4304
aI4321
aI4338
aI4354
aI4371
aI4387
aI4388
aI4404
aI4421
aI4438
aI4454
aI4471
aI4487
aI4504
aI4521
aI4537
aI4538
aI4554
aI4554
aI4571
aI4588
aI4604
aI4621
aI4638
aI4654
aI4671
aI4687
aI4704
aI4721
aI4737
aI4754
aI4771
aI4788
aI4804
aI4821
aI4838
aI4838
aI4854
aI4871
aI4888
aI4904
aI4921
aI4938
aI4954
aI4971
aI4988
aI5004
aI5021
aI5038
aI5055
aI5071
aI5088
aI5104
aI5121
aI5138
aI5154
aI5171
aI5187
aI5205
aI5222
aI5238
aI5254
aI5271
aI5288
aI5304
aI5321
aI5338
aI5354
aI5371
aI5388
aI5404
aI5421
aI5438
aI5455
aI5471
aI5487
aI5504
aI5521
aI5538
aI5554
aI5571
aI5587
aI5604
aI5621
aI5638
aI5655
aI5671
aI5688
aI5704
aI5721
aI5737
aI5754
aI5771
aI5788
aI5804
aI5821
aI5838
aI5854
aI5871
aI5887
aI5905
aI5921
aI5938
aI5954
aI5971
aI5988
aI6004
aI6021
aI6038
aI6054
aI6054
aI6071
aI6088
aI6104
aI6121
aI6137
aI6154
aI6171
aI6187
aI6205
aI6221
aI6237
aI6254
aI6271
aI6288
aI6304
aI6321
aI6338
asg14
(lp47
F740.2063598632812
aF741.9383544921875
aF743.4415283203125
aF744.258544921875
aF744.5526123046875
aF745.2388916015625
aF746.447998046875
aF748.670166015625
aF752.00341796875
aF755.9901733398438
aF760.3037719726562
aF765.1075439453125
aF770.0420532226562
aF774.2576293945312
aF777.2640380859375
aF779.4208374023438
aF781.7083740234375
aF783.1788940429688
aF784.486083984375
aF785.6624755859375
aF786.8062744140625
aF787.8192749023438
aF788.6362915039062
aF789.2571411132812
aF789.6820068359375
aF789.780029296875
aF790.0414428710938
aF789.9434204101562
aF788.9303588867188
aF786.904296875
aF784.1265869140625
aF781.2182006835938
aF778.8326416015625
aF776.969970703125
aF775.2706298828125
aF773.0158081054688
aF771.6106567382812
aF770.7283325195312
aF770.07470703125
aF769.1597290039062
aF768.0159912109375
aF766.8395385742188
aF765.9898681640625
aF765.5650634765625
aF765.5324096679688
aF765.891845703125
aF766.54541015625
aF767.6238403320312
aF769.1923828125
aF771.0223999023438
aF772.6236572265625
aF773.7020874023438
aF774.2249145507812
aF774.4536743164062
aF774.4210205078125
aF774.2249145507812
aF773.865478515625
aF773.0158081054688
aF771.447265625
aF769.22509765625
aF766.8395385742188
aF764.7153930664062
aF761.708984375
aF758.8986206054688
aF755.9248657226562
aF753.4085693359375
aF751.51318359375
aF750.1406860351562
aF749.0296020507812
aF747.8858642578125
aF746.3499755859375
aF743.2454833984375
aF740.3697509765625
aF737.39599609375
aF734.5529174804688
aF731.9059448242188
aF729.3569946289062
aF726.6446533203125
aF723.4094848632812
aF719.68408203125
aF714.5208740234375
aF710.86083984375
aF707.2988891601562
aF703.5081176757812
aF699.4559326171875
aF695.142333984375
aF690.4692993164062
aF685.2080078125
aF679.6199340820312
aF674.2606201171875
aF667.9536743164062
aF663.5419921875
aF658.9996948242188
aF653.9998168945312
aF648.3463745117188
aF642.6276245117188
aF637.725830078125
aF633.93505859375
aF630.7979125976562
aF626.6803588867188
aF623.3798217773438
aF620.0465698242188
aF616.71337890625
aF613.2493896484375
aF609.6220703125
aF605.7659912109375
aF601.6484375
aF597.4002075195312
aF591.7794799804688
aF587.53125
aF583.1849975585938
aF578.9367065429688
aF574.8192138671875
aF570.70166015625
aF566.518798828125
aF562.2379150390625
aF557.9896240234375
aF552.5650024414062
aF548.7415771484375
aF544.852783203125
aF540.3104248046875
aF534.8204345703125
aF528.6768188476562
aF522.9580078125
aF518.6444091796875
aF516.1935424804688
aF514.9517211914062
aF514.2981567382812
aF513.1217041015625
aF511.1283264160156
aF508.3506164550781
aF505.3114929199219
aF502.37042236328125
aF499.7887878417969
aF497.5993347167969
aF494.85430908203125
aF492.7301940917969
aF490.5080261230469
aF488.4819641113281
aF486.71728515625
aF485.0506896972656
aF482.8938903808594
aF479.8547668457031
aF476.0313415527344
aF474.62615966796875
aF470.6720275878906
aF467.6982727050781
aF466.2604064941406
aF465.8028869628906
aF465.2146911621094
aF463.8421630859375
aF461.4566345214844
aF458.61358642578125
aF456.2607116699219
aF454.3653259277344
aF453.3196105957031
aF452.1431884765625
aF450.7706604003906
aF449.7249450683594
aF449.1694030761719
aF449.0060119628906
aF449.0060119628906
aF449.0060119628906
aF449.0386962890625
aF449.3001403808594
aF449.7249450683594
aF450.2804870605469
aF450.86871337890625
aF451.4569396972656
aF452.012451171875
aF452.73138427734375
aF453.6790771484375
aF454.8228454589844
aF455.2476501464844
aF456.22802734375
aF458.80963134765625
aF461.6200256347656
aF465.34539794921875
aF469.6916809082031
aF474.39739990234375
aF479.3319091796875
aF484.3317565917969
aF489.2662353515625
aF494.29876708984375
aF499.4620056152344
aF501.1939697265625
aF506.1611633300781
aF510.7034912109375
aF514.7556762695312
aF518.5791015625
aF522.304443359375
aF525.9971313476562
aF529.6571655273438
aF533.5459594726562
aF537.794189453125
aF539.2974243164062
aF542.3692016601562
aF543.9050903320312
aF548.61083984375
aF552.9898071289062
aF556.9112548828125
aF560.342529296875
aF563.414306640625
aF566.3880615234375
aF569.3291625976562
aF573.2506103515625
aF576.257080078125
aF579.2962036132812
aF582.3679809570312
aF585.73388671875
aF589.4592895507812
aF593.2173461914062
aF596.583251953125
aF599.3282470703125
aF601.5831298828125
aF602.2366943359375
aF604.2301025390625
aF606.288818359375
aF608.6090087890625
aF611.3540649414062
aF614.3278198242188
aF617.1708374023438
aF619.7525024414062
aF622.4974975585938
aF626.9418334960938
aF630.6998901367188
aF634.4906005859375
aF638.150634765625
aF641.8106689453125
aF645.666748046875
aF649.88232421875
aF654.26123046875
aF657.9866333007812
aF660.8623657226562
aF662.038818359375
aF663.5093383789062
aF665.9602661132812
aF669.29345703125
aF672.9208374023438
aF676.0906372070312
aF678.3128051757812
aF679.9140625
aF682.103515625
aF683.7374877929688
aF684.9465942382812
aF685.469482421875
aF685.6981811523438
aF685.8289184570312
aF686.09033203125
aF686.5805053710938
aF687.2667846679688
aF688.5086059570312
aF689.0968017578125
aF689.9137573242188
aF690.2405395507812
aF690.6000366210938
aF691.2208862304688
aF692.2666625976562
aF693.5084228515625
aF694.6521606445312
aF695.6978759765625
aF696.74365234375
aF697.8873901367188
aF698.4429321289062
aF698.8350830078125
aF699.390625
aF700.468994140625
aF702.2009887695312
aF704.22705078125
aF705.99169921875
aF707.2008056640625
aF708.1812133789062
aF708.7694091796875
aF709.3576049804688
aF710.0765380859375
aF710.9915771484375
aF712.2333374023438
aF714.0633544921875
aF716.5469360351562
aF718.9651489257812
aF721.3834228515625
aF722.9519653320312
aF724.8800048828125
aF727.3309326171875
aF730.0106201171875
aF732.4288330078125
aF734.2588500976562
aF735.7620239257812
aF737.2979736328125
aF737.8861694335938
aF740.04296875
aF743.11474609375
aF746.6767578125
aF749.5851440429688
aF751.0557250976562
aF751.4478759765625
aF751.5785522460938
aF751.8073120117188
aF752.3955078125
aF753.76806640625
aF754.7156982421875
aF755.1405639648438
aF755.1732177734375
aF755.1732177734375
aF755.4019775390625
aF756.0228881835938
aF756.9378662109375
aF757.4607543945312
asg16
(lp48
F2954.001953125
aF2953.838623046875
aF2953.5771484375
aF2953.315673828125
aF2953.0869140625
aF2952.20458984375
aF2951.093505859375
aF2949.720947265625
aF2948.31591796875
aF2946.97607421875
aF2945.701416015625
aF2944.16552734375
aF2942.237548828125
aF2939.949951171875
aF2937.4990234375
aF2934.78662109375
aF2930.897705078125
aF2928.08740234375
aF2925.538330078125
aF2923.185546875
aF2920.83251953125
aF2918.545166015625
aF2916.649658203125
aF2915.146484375
aF2913.969970703125
aF2913.610595703125
aF2912.630126953125
aF2911.58447265625
aF2910.11376953125
aF2908.218505859375
aF2906.029052734375
aF2903.90478515625
aF2901.976806640625
aF2900.179443359375
aF2898.316650390625
aF2895.669677734375
aF2893.937744140625
aF2892.6630859375
aF2891.51953125
aF2889.918212890625
aF2887.630615234375
aF2884.983642578125
aF2882.46728515625
aF2880.473876953125
aF2878.4150390625
aF2877.009765625
aF2875.572021484375
aF2874.101318359375
aF2872.66357421875
aF2871.291015625
aF2870.0166015625
aF2868.741943359375
aF2867.30419921875
aF2865.343505859375
aF2864.232177734375
aF2863.513427734375
aF2862.85986328125
aF2862.108154296875
aF2861.291259765625
aF2860.5068359375
aF2859.68994140625
aF2858.84033203125
aF2857.598388671875
aF2856.58544921875
aF2855.735595703125
aF2855.11474609375
aF2854.75537109375
aF2854.493896484375
aF2854.36328125
aF2854.232421875
aF2854.1669921875
aF2854.036376953125
aF2853.84033203125
aF2853.4482421875
aF2852.99072265625
aF2852.598388671875
aF2852.304443359375
aF2852.14111328125
aF2852.1083984375
aF2852.206298828125
aF2852.8271484375
aF2853.35009765625
aF2853.77490234375
aF2854.134521484375
aF2854.592041015625
aF2855.24560546875
aF2856.225830078125
aF2857.663818359375
aF2859.363037109375
aF2860.931640625
aF2862.500244140625
aF2863.513427734375
aF2864.787841796875
aF2866.87939453125
aF2869.951171875
aF2873.5458984375
aF2876.781005859375
aF2879.166748046875
aF2880.931396484375
aF2883.055419921875
aF2884.72216796875
aF2886.356201171875
aF2887.82666015625
aF2889.19921875
aF2890.50634765625
aF2891.87890625
aF2893.349365234375
aF2894.88525390625
aF2896.6826171875
aF2897.793701171875
aF2898.708740234375
aF2899.52587890625
aF2900.473388671875
aF2901.64990234375
aF2903.0224609375
aF2904.427734375
aF2905.506103515625
aF2906.126953125
aF2906.15966796875
aF2906.061767578125
aF2905.604248046875
aF2905.081298828125
aF2904.75439453125
aF2905.37548828125
aF2907.368896484375
aF2910.2119140625
aF2913.512451171875
aF2914.885009765625
aF2915.440673828125
aF2915.66943359375
aF2915.734619140625
aF2915.767333984375
aF2915.96337890625
aF2916.159423828125
aF2916.192138671875
aF2915.865478515625
aF2915.440673828125
aF2915.146484375
aF2914.885009765625
aF2914.65625
aF2914.296875
aF2913.70849609375
aF2912.85888671875
aF2911.715087890625
aF2911.290283203125
aF2910.015869140625
aF2908.8720703125
aF2908.120361328125
aF2907.49951171875
aF2906.6171875
aF2905.146728515625
aF2903.218505859375
aF2901.15966796875
aF2899.329833984375
aF2897.56494140625
aF2896.35595703125
aF2894.852783203125
aF2892.891845703125
aF2890.9638671875
aF2889.362548828125
aF2888.088134765625
aF2886.84619140625
aF2885.6044921875
aF2885.21240234375
aF2884.003173828125
aF2882.53271484375
aF2880.63720703125
aF2878.349609375
aF2875.996826171875
aF2873.807373046875
aF2871.68310546875
aF2869.624267578125
aF2867.565673828125
aF2866.912109375
aF2865.572021484375
aF2863.28466796875
aF2862.140869140625
aF2861.4873046875
aF2861.127685546875
aF2860.96435546875
aF2860.89892578125
aF2860.866455078125
aF2860.735595703125
aF2860.18017578125
aF2859.1015625
aF2858.6767578125
aF2857.04296875
aF2855.08203125
aF2853.154052734375
aF2851.389404296875
aF2849.75537109375
aF2848.219482421875
aF2846.846923828125
aF2845.67041015625
aF2844.88623046875
aF2844.722900390625
aF2844.46142578125
aF2844.36328125
aF2844.00390625
aF2843.383056640625
aF2842.56591796875
aF2841.65087890625
aF2840.670654296875
aF2839.788330078125
aF2839.10205078125
aF2838.61181640625
aF2838.415771484375
aF2838.383056640625
aF2838.54638671875
aF2839.363525390625
aF2840.736083984375
aF2842.468017578125
aF2844.298095703125
aF2846.030029296875
aF2847.729248046875
aF2848.284912109375
aF2849.88623046875
aF2851.4873046875
aF2853.121337890625
aF2854.6572265625
aF2855.9970703125
aF2857.075439453125
aF2857.76171875
aF2858.088623046875
aF2858.21923828125
aF2858.088623046875
aF2857.50048828125
aF2856.552734375
aF2855.376220703125
aF2854.069091796875
aF2852.794677734375
aF2851.68359375
aF2850.931884765625
aF2850.507080078125
aF2850.474365234375
aF2850.866455078125
aF2851.846923828125
aF2853.121337890625
aF2854.395751953125
aF2855.310791015625
aF2855.735595703125
aF2855.801025390625
aF2855.18017578125
aF2854.559326171875
aF2854.069091796875
aF2853.77490234375
aF2853.611572265625
aF2853.611572265625
aF2853.578857421875
aF2853.513427734375
aF2853.35009765625
aF2853.0234375
aF2852.8271484375
aF2852.43505859375
aF2852.304443359375
aF2852.50048828125
aF2853.219482421875
aF2854.134521484375
aF2854.6572265625
aF2854.853271484375
aF2854.75537109375
aF2854.33056640625
aF2853.7421875
aF2853.4482421875
aF2853.219482421875
aF2852.8271484375
aF2852.07568359375
aF2851.02978515625
aF2849.918701171875
aF2848.775146484375
aF2847.56591796875
aF2845.507080078125
aF2843.54638671875
aF2841.29150390625
aF2838.873291015625
aF2836.585693359375
aF2834.722900390625
aF2833.25244140625
aF2832.075927734375
aF2831.160888671875
aF2830.1806640625
aF2829.29833984375
aF2828.28515625
aF2827.04345703125
aF2825.801513671875
aF2824.72314453125
aF2823.93896484375
aF2823.252685546875
aF2822.5009765625
aF2822.239501953125
aF2821.324462890625
aF2820.1806640625
aF2818.87353515625
aF2817.762451171875
aF2817.04345703125
aF2816.422607421875
aF2815.70361328125
aF2814.8212890625
aF2813.742919921875
aF2812.043701171875
aF2811.063232421875
aF2810.671142578125
aF2810.572998046875
aF2810.572998046875
aF2810.638427734375
aF2810.8017578125
aF2810.997802734375
aF2811.25927734375
assg18
(lp49
ssS'o'
p50
(dp51
g3
I6
sg4
(dp52
g6
(lp53
I-11
aI-11
aI-11
aI-11
aI-11
aI-11
aI-11
aI-11
aI-11
aI-11
aI-11
aI-11
aI-11
aI-11
aI-11
aI-11
aI-12
aI-12
aI-12
aI-12
aI-12
aI-12
aI-12
aI-12
aI-12
aI-12
aI-12
aI-12
aI-12
aI-12
aI-12
aI-12
aI-12
aI-12
aI-12
aI-12
aI-12
aI-13
aI-13
aI-13
aI-13
aI-13
aI-13
aI-13
aI-13
aI-13
aI-13
aI-13
aI-13
aI-13
aI-13
aI-13
aI-13
aI-13
aI-13
aI-13
aI-13
aI-13
aI-13
aI-13
aI-13
aI-13
aI-13
aI-13
aI-13
aI-13
aI-13
aI-13
aI-13
aI-13
aI-13
aI-13
aI-13
aI-13
aI-13
aI-13
aI-13
aI-13
aI-13
aI-13
aI-13
aI-13
aI-12
aI-12
aI-12
aI-12
aI-11
aI-11
aI-11
aI-11
aI-10
aI-10
aI-10
aI-10
aI-9
aI-9
aI-9
aI-9
aI-9
aI-9
aI-9
aI-8
aI-8
aI-8
aI-7
aI-7
aI-7
aI-7
aI-7
aI-7
aI-7
aI-6
aI-6
aI-6
aI-6
aI-6
aI-6
aI-6
aI-6
aI-6
aI-6
aI-6
aI-6
aI-6
aI-6
aI-6
aI-6
aI-6
aI-6
aI-7
aI-7
aI-7
aI-7
aI-7
aI-7
aI-7
aI-7
aI-7
aI-7
aI-7
aI-8
aI-8
aI-8
aI-8
aI-8
aI-8
aI-8
aI-9
aI-9
aI-9
aI-9
aI-10
aI-10
aI-10
aI-11
aI-11
aI-12
aI-12
aI-12
aI-13
aI-13
aI-13
aI-13
aI-14
aI-14
aI-14
aI-14
aI-15
aI-15
aI-15
aI-15
aI-15
aI-16
aI-16
aI-16
aI-17
aI-17
aI-17
aI-17
aI-18
aI-18
aI-18
aI-19
aI-19
aI-19
aI-19
aI-19
aI-19
aI-19
aI-19
aI-19
aI-19
aI-19
aI-19
aI-20
aI-20
aI-20
aI-20
aI-20
aI-20
aI-20
aI-20
aI-20
aI-20
aI-20
aI-20
aI-20
aI-20
aI-21
aI-21
aI-21
aI-21
aI-21
aI-21
aI-21
aI-21
aI-22
aI-22
aI-22
aI-22
aI-22
aI-22
aI-22
aI-22
aI-22
aI-22
aI-22
aI-22
aI-22
aI-22
aI-22
aI-22
aI-22
aI-22
aI-22
aI-22
aI-22
aI-22
aI-22
aI-21
aI-21
aI-21
aI-21
aI-20
aI-20
aI-20
aI-20
aI-20
aI-20
aI-20
aI-19
aI-18
aI-18
aI-18
aI-17
aI-17
aI-17
aI-16
aI-16
aI-16
aI-15
aI-15
aI-14
aI-14
aI-14
aI-13
aI-12
aI-12
aI-12
aI-11
aI-11
aI-11
aI-10
aI-10
aI-10
aI-10
aI-9
aI-9
aI-9
aI-9
aI-8
aI-8
aI-8
aI-8
aI-8
aI-8
aI-7
aI-7
aI-7
aI-7
aI-7
aI-7
aI-7
aI-7
aI-7
aI-6
aI-6
aI-6
aI-6
aI-6
aI-6
aI-5
aI-5
aI-5
aI-5
aI-5
aI-5
aI-5
aI-5
aI-5
aI-5
aI-5
aI-5
aI-5
aI-5
aI-5
aI-5
aI-5
aI-5
aI-5
aI-5
aI-5
aI-5
aI-5
aI-5
aI-6
aI-6
aI-6
aI-7
aI-7
aI-7
aI-7
aI-7
aI-7
aI-7
aI-7
aI-7
aI-7
aI-7
asg8
(lp54
F0.08544921875
aF0.15283203125
aF0.23095703125
aF0.2529296875
aF0.2685546875
aF0.30078125
aF0.31982421875
aF0.32275390625
aF0.3232421875
aF0.32421875
aF0.33154296875
aF0.3349609375
aF0.33837890625
aF0.33837890625
aF0.34423828125
aF0.3486328125
aF0.3544921875
aF0.35546875
aF0.35888671875
aF0.3623046875
aF0.365234375
aF0.369140625
aF0.36962890625
aF0.37109375
aF0.37158203125
aF0.3740234375
aF0.3779296875
aF0.380859375
aF0.3828125
aF0.3857421875
aF0.3916015625
aF0.39208984375
aF0.396484375
aF0.4013671875
aF0.4033203125
aF0.4033203125
aF0.4052734375
aF0.40576171875
aF0.40576171875
aF0.40625
aF0.40771484375
aF0.40771484375
aF0.4111328125
aF0.41796875
aF0.42041015625
aF0.421875
aF0.421875
aF0.419921875
aF0.41650390625
aF0.419921875
aF0.42626953125
aF0.427734375
aF0.42626953125
aF0.42578125
aF0.4248046875
aF0.423828125
aF0.423828125
aF0.423828125
aF0.42431640625
aF0.4267578125
aF0.431640625
aF0.4384765625
aF0.44091796875
aF0.44140625
aF0.44189453125
aF0.4423828125
aF0.4423828125
aF0.4443359375
aF0.447265625
aF0.44921875
aF0.45068359375
aF0.4501953125
aF0.45361328125
aF0.45458984375
aF0.45947265625
aF0.4599609375
aF0.4609375
aF0.46142578125
aF0.462890625
aF0.46533203125
aF0.46630859375
aF0.46826171875
aF0.46923828125
aF0.4697265625
aF0.47119140625
aF0.470703125
aF0.46533203125
aF0.4658203125
aF0.47509765625
aF0.48193359375
aF0.48583984375
aF0.48095703125
aF0.4755859375
aF0.47607421875
aF0.47998046875
aF0.48681640625
aF0.48974609375
aF0.4873046875
aF0.4892578125
aF0.4912109375
aF0.4931640625
aF0.4931640625
aF0.49658203125
aF0.50390625
aF0.5068359375
aF0.5087890625
aF0.50927734375
aF0.50927734375
aF0.509765625
aF0.51123046875
aF0.51123046875
aF0.5107421875
aF0.5126953125
aF0.51513671875
aF0.517578125
aF0.51806640625
aF0.52001953125
aF0.51953125
aF0.517578125
aF0.51513671875
aF0.5107421875
aF0.50830078125
aF0.50390625
aF0.49951171875
aF0.49560546875
aF0.49609375
aF0.49609375
aF0.49072265625
aF0.4873046875
aF0.48583984375
aF0.484375
aF0.48193359375
aF0.48095703125
aF0.48046875
aF0.48095703125
aF0.48095703125
aF0.4833984375
aF0.4853515625
aF0.49462890625
aF0.5
aF0.50537109375
aF0.50537109375
aF0.50244140625
aF0.498046875
aF0.49462890625
aF0.4912109375
aF0.4873046875
aF0.4873046875
aF0.4873046875
aF0.48779296875
aF0.4873046875
aF0.48486328125
aF0.4853515625
aF0.48779296875
aF0.490234375
aF0.49462890625
aF0.501953125
aF0.50537109375
aF0.505859375
aF0.5087890625
aF0.50927734375
aF0.51025390625
aF0.5107421875
aF0.513671875
aF0.5029296875
aF0.4921875
aF0.49267578125
aF0.49462890625
aF0.4990234375
aF0.50439453125
aF0.5107421875
aF0.51220703125
aF0.515625
aF0.51806640625
aF0.5234375
aF0.53076171875
aF0.53662109375
aF0.54052734375
aF0.54052734375
aF0.54052734375
aF0.537109375
aF0.5322265625
aF0.52685546875
aF0.52685546875
aF0.52490234375
aF0.52099609375
aF0.52099609375
aF0.52099609375
aF0.5205078125
aF0.52294921875
aF0.52490234375
aF0.52783203125
aF0.529296875
aF0.53125
aF0.5283203125
aF0.52783203125
aF0.52587890625
aF0.5244140625
aF0.521484375
aF0.51953125
aF0.52001953125
aF0.52197265625
aF0.5224609375
aF0.5244140625
aF0.52490234375
aF0.525390625
aF0.52490234375
aF0.525390625
aF0.525390625
aF0.52734375
aF0.5283203125
aF0.529296875
aF0.52978515625
aF0.5302734375
aF0.5302734375
aF0.53173828125
aF0.53173828125
aF0.53125
aF0.53173828125
aF0.53271484375
aF0.53271484375
aF0.529296875
aF0.52880859375
aF0.52880859375
aF0.533203125
aF0.533203125
aF0.53369140625
aF0.5361328125
aF0.53466796875
aF0.53271484375
aF0.525390625
aF0.5263671875
aF0.5263671875
aF0.5263671875
aF0.52587890625
aF0.52490234375
aF0.52294921875
aF0.521484375
aF0.52197265625
aF0.52392578125
aF0.5244140625
aF0.52587890625
aF0.52783203125
aF0.52978515625
aF0.5302734375
aF0.53564453125
aF0.5400390625
aF0.5400390625
aF0.5439453125
aF0.55126953125
aF0.56298828125
aF0.56591796875
aF0.5673828125
aF0.56787109375
aF0.5693359375
aF0.56982421875
aF0.5703125
aF0.5703125
aF0.57080078125
aF0.57080078125
aF0.5703125
aF0.56787109375
aF0.56689453125
aF0.56640625
aF0.56689453125
aF0.56689453125
aF0.56689453125
aF0.56689453125
aF0.56689453125
aF0.5703125
aF0.57080078125
aF0.5712890625
aF0.57275390625
aF0.572265625
aF0.5693359375
aF0.56689453125
aF0.5634765625
aF0.56298828125
aF0.55810546875
aF0.55224609375
aF0.54833984375
aF0.5458984375
aF0.5439453125
aF0.5439453125
aF0.54443359375
aF0.5478515625
aF0.5478515625
aF0.5458984375
aF0.55029296875
aF0.55712890625
aF0.55908203125
aF0.56201171875
aF0.55908203125
aF0.55712890625
aF0.55712890625
aF0.55322265625
aF0.55615234375
aF0.5625
aF0.56298828125
aF0.56298828125
aF0.56396484375
aF0.56201171875
aF0.5595703125
aF0.5595703125
aF0.56103515625
aF0.5625
aF0.5615234375
aF0.56103515625
aF0.5576171875
aF0.556640625
aF0.5556640625
aF0.5537109375
aF0.5537109375
aF0.55419921875
aF0.55615234375
aF0.55615234375
aF0.556640625
aF0.556640625
aF0.556640625
aF0.556640625
aF0.556640625
aF0.5556640625
aF0.5556640625
aF0.55615234375
aF0.556640625
aF0.56005859375
aF0.5625
aF0.5654296875
aF0.5654296875
aF0.56640625
aF0.56640625
aF0.56396484375
aF0.56103515625
aF0.54736328125
aF0.53271484375
aF0.486328125
aF0.3857421875
aF0.16162109375
aF0.02685546875
asg10
(lp55
I-21
aI-22
aI-22
aI-22
aI-22
aI-22
aI-22
aI-22
aI-22
aI-22
aI-22
aI-22
aI-22
aI-22
aI-22
aI-22
aI-22
aI-21
aI-21
aI-21
aI-21
aI-20
aI-20
aI-20
aI-20
aI-20
aI-20
aI-19
aI-19
aI-19
aI-19
aI-18
aI-18
aI-18
aI-18
aI-18
aI-18
aI-18
aI-18
aI-18
aI-18
aI-17
aI-17
aI-17
aI-17
aI-17
aI-17
aI-17
aI-17
aI-17
aI-17
aI-17
aI-17
aI-17
aI-17
aI-17
aI-17
aI-17
aI-17
aI-17
aI-17
aI-17
aI-17
aI-17
aI-17
aI-17
aI-17
aI-17
aI-17
aI-17
aI-17
aI-17
aI-17
aI-17
aI-17
aI-17
aI-17
aI-17
aI-17
aI-17
aI-17
aI-17
aI-17
aI-17
aI-17
aI-17
aI-17
aI-17
aI-17
aI-17
aI-17
aI-17
aI-17
aI-17
aI-17
aI-17
aI-17
aI-17
aI-17
aI-17
aI-17
aI-17
aI-17
aI-17
aI-17
aI-18
aI-18
aI-18
aI-18
aI-18
aI-18
aI-18
aI-18
aI-18
aI-18
aI-18
aI-18
aI-18
aI-18
aI-18
aI-18
aI-18
aI-18
aI-18
aI-18
aI-18
aI-18
aI-18
aI-18
aI-18
aI-18
aI-18
aI-18
aI-18
aI-18
aI-18
aI-18
aI-18
aI-18
aI-18
aI-18
aI-18
aI-18
aI-18
aI-18
aI-18
aI-18
aI-18
aI-18
aI-18
aI-18
aI-18
aI-18
aI-18
aI-18
aI-18
aI-18
aI-18
aI-18
aI-17
aI-17
aI-17
aI-17
aI-17
aI-17
aI-17
aI-16
aI-16
aI-16
aI-16
aI-15
aI-15
aI-15
aI-14
aI-14
aI-14
aI-14
aI-14
aI-14
aI-14
aI-14
aI-14
aI-14
aI-13
aI-13
aI-12
aI-12
aI-12
aI-12
aI-12
aI-11
aI-11
aI-10
aI-10
aI-9
aI-9
aI-9
aI-9
aI-9
aI-9
aI-9
aI-8
aI-8
aI-8
aI-8
aI-8
aI-7
aI-7
aI-7
aI-7
aI-7
aI-7
aI-7
aI-7
aI-7
aI-6
aI-6
aI-6
aI-6
aI-6
aI-6
aI-5
aI-5
aI-5
aI-5
aI-5
aI-4
aI-4
aI-3
aI-3
aI-3
aI-3
aI-3
aI-3
aI-3
aI-3
aI-3
aI-3
aI-4
aI-4
aI-4
aI-4
aI-4
aI-4
aI-5
aI-5
aI-5
aI-5
aI-5
aI-5
aI-5
aI-5
aI-5
aI-5
aI-6
aI-6
aI-6
aI-6
aI-6
aI-6
aI-6
aI-6
aI-7
aI-7
aI-7
aI-7
aI-7
aI-7
aI-8
aI-8
aI-8
aI-8
aI-8
aI-9
aI-9
aI-9
aI-9
aI-10
aI-10
aI-10
aI-11
aI-11
aI-11
aI-12
aI-12
aI-13
aI-13
aI-13
aI-13
aI-14
aI-14
aI-14
aI-14
aI-14
aI-14
aI-15
aI-15
aI-16
aI-16
aI-16
aI-16
aI-16
aI-17
aI-17
aI-18
aI-18
aI-18
aI-18
aI-18
aI-18
aI-18
aI-18
aI-18
aI-18
aI-18
aI-18
aI-18
aI-18
aI-18
aI-18
aI-18
aI-18
aI-18
aI-18
aI-18
aI-18
aI-18
aI-19
aI-19
aI-19
aI-19
aI-19
aI-19
aI-19
aI-20
aI-20
aI-20
aI-20
aI-20
asg12
(lp56
I1720
aI1742
aI1764
aI1779
aI1794
aI1808
aI1823
aI1838
aI1853
aI1868
aI1883
aI1898
aI1914
aI1929
aI1945
aI1960
aI1975
aI1989
aI2004
aI2019
aI2034
aI2049
aI2065
aI2080
aI2095
aI2110
aI2124
aI2139
aI2154
aI2169
aI2183
aI2199
aI2214
aI2230
aI2245
aI2259
aI2274
aI2289
aI2303
aI2318
aI2333
aI2349
aI2365
aI2379
aI2394
aI2409
aI2423
aI2438
aI2453
aI2467
aI2483
aI2499
aI2514
aI2528
aI2543
aI2558
aI2573
aI2588
aI2603
aI2617
aI2633
aI2648
aI2662
aI2677
aI2692
aI2707
aI2722
aI2737
aI2752
aI2767
aI2783
aI2798
aI2814
aI2829
aI2843
aI2858
aI2873
aI2888
aI2903
aI2903
aI2917
aI2933
aI2949
aI2965
aI2980
aI2995
aI3009
aI3024
aI3039
aI3054
aI3068
aI3083
aI3099
aI3115
aI3130
aI3145
aI3159
aI3174
aI3189
aI3204
aI3218
aI3234
aI3249
aI3265
aI3280
aI3294
aI3309
aI3324
aI3338
aI3353
aI3368
aI3383
aI3399
aI3415
aI3430
aI3444
aI3459
aI3474
aI3489
aI3504
aI3519
aI3534
aI3549
aI3565
aI3581
aI3596
aI3611
aI3626
aI3640
aI3655
aI3670
aI3685
aI3700
aI3716
aI3731
aI3746
aI3761
aI3775
aI3790
aI3805
aI3821
aI3837
aI3852
aI3852
aI3867
aI3882
aI3898
aI3913
aI3928
aI3942
aI3957
aI3972
aI3987
aI4002
aI4017
aI4032
aI4048
aI4062
aI4077
aI4077
aI4092
aI4107
aI4121
aI4136
aI4150
aI4166
aI4181
aI4195
aI4210
aI4225
aI4240
aI4255
aI4270
aI4285
aI4300
aI4316
aI4331
aI4346
aI4361
aI4361
aI4376
aI4391
aI4406
aI4420
aI4434
aI4450
aI4466
aI4482
aI4498
aI4514
aI4529
aI4544
aI4558
aI4573
aI4588
aI4603
aI4617
aI4633
aI4648
aI4663
aI4678
aI4692
aI4707
aI4722
aI4737
aI4751
aI4767
aI4782
aI4798
aI4812
aI4827
aI4842
aI4856
aI4871
aI4886
aI4886
aI4901
aI4916
aI4932
aI4947
aI4962
aI4977
aI4992
aI5006
aI5021
aI5036
aI5051
aI5066
aI5082
aI5097
aI5112
aI5126
aI5141
aI5155
aI5170
aI5185
aI5200
aI5216
aI5232
aI5248
aI5262
aI5277
aI5292
aI5307
aI5322
aI5336
aI5351
aI5367
aI5382
aI5396
aI5411
aI5426
aI5441
aI5456
aI5471
aI5486
aI5501
aI5516
aI5532
aI5547
aI5562
aI5577
aI5592
aI5607
aI5622
aI5637
aI5651
aI5667
aI5682
aI5698
aI5713
aI5728
aI5743
aI5757
aI5771
aI5786
aI5801
aI5816
aI5832
aI5848
aI5863
aI5878
aI5892
aI5907
aI5922
aI5936
aI5951
aI5967
aI5982
aI5998
aI6012
aI6027
aI6042
aI6056
aI6071
aI6071
aI6086
aI6100
aI6116
aI6131
aI6146
aI6160
aI6175
aI6190
aI6204
aI6219
aI6234
aI6250
aI6265
aI6281
aI6295
aI6310
aI6325
aI6339
aI6354
aI6369
aI6384
aI6399
aI6414
aI6414
aI6429
aI6444
aI6459
aI6474
aI6489
aI6503
aI6518
aI6533
aI6549
aI6565
aI6580
aI6595
aI6610
aI6625
aI6640
aI6654
aI6669
aI6683
aI6699
asg14
(lp57
F610.275634765625
aF609.3606567382812
aF609.2626342773438
aF609.2299194335938
aF609.16455078125
aF609.0665283203125
aF609.16455078125
aF609.8181762695312
aF610.4390258789062
aF611.4520874023438
aF612.3670654296875
aF613.0206909179688
aF613.60888671875
aF614.03369140625
aF614.4585571289062
aF614.6546020507812
aF614.8833618164062
aF614.94873046875
aF614.8833618164062
aF614.7526245117188
aF614.4912109375
aF614.295166015625
aF614.1317138671875
aF613.9030151367188
aF613.5435180664062
aF613.2493896484375
aF612.8899536132812
aF612.6285400390625
aF612.3997802734375
aF612.1383666992188
aF611.5174560546875
aF610.7005004882812
aF610.046875
aF609.7528076171875
aF609.7200927734375
aF609.9161987304688
aF610.2429809570312
aF610.4717407226562
aF610.6351318359375
aF610.7005004882812
aF610.8638916015625
aF611.0599365234375
aF611.157958984375
aF610.9945678710938
aF610.6351318359375
aF609.7854614257812
aF608.7723999023438
aF608.086181640625
aF607.0404663085938
aF605.8313598632812
aF604.328125
aF602.4000854492188
aF600.2759399414062
aF598.8707885742188
aF597.1061401367188
aF595.7662963867188
aF594.58984375
aF593.70751953125
aF592.1062622070312
aF590.4723510742188
aF589.2632446289062
aF588.609619140625
aF588.3155517578125
aF587.9560546875
aF587.5639038085938
aF587.1064453125
aF586.844970703125
aF586.3547973632812
aF585.7992553710938
aF585.2764282226562
aF584.8189086914062
aF584.4267578125
aF583.7078247070312
aF582.9888916015625
aF581.4530029296875
aF579.361572265625
aF577.0413818359375
aF575.603515625
aF574.9826049804688
aF573.8715209960938
aF572.5316772460938
aF571.2899169921875
aF569.7540283203125
aF567.9240112304688
aF565.9632568359375
aF564.5907592773438
aF562.4993286132812
aF560.5712890625
aF559.1007080078125
aF558.34912109375
aF557.3034057617188
aF556.3883666992188
aF555.7021484375
aF555.3099975585938
aF555.0812377929688
aF554.9832153320312
aF554.9178466796875
aF554.787109375
aF554.5584106445312
aF554.2969360351562
aF553.7741088867188
aF553.05517578125
aF552.0094604492188
aF550.8656616210938
aF549.95068359375
aF549.5585327148438
aF549.2317504882812
aF549.068359375
aF548.9376220703125
aF548.839599609375
aF548.7415771484375
aF548.7742309570312
aF549.2317504882812
aF550.0160522460938
aF550.9310302734375
aF551.486572265625
aF552.1728515625
aF552.8590698242188
aF553.708740234375
aF554.4930419921875
aF556.0615844726562
aF557.9896240234375
aF560.0484008789062
aF562.4013061523438
aF565.3423461914062
aF568.7736206054688
aF571.0938110351562
aF574.459716796875
aF577.596923828125
aF580.668701171875
aF582.6947631835938
aF585.7992553710938
aF589.0344848632812
aF592.3350219726562
aF595.4067993164062
aF597.23681640625
aF599.7531127929688
aF602.0733032226562
aF604.3934936523438
aF606.0274047851562
aF608.7070922851562
aF611.3213500976562
aF612.1056518554688
aF613.5435180664062
aF615.37353515625
aF617.366943359375
aF619.9812622070312
aF623.4778442382812
aF626.190185546875
aF630.3731079101562
aF634.1964721679688
aF637.46435546875
aF639.457763671875
aF642.4968872070312
aF645.7321166992188
aF649.3267822265625
aF653.2808837890625
aF656.1239624023438
aF657.5618286132812
aF660.4048461914062
aF664.5550537109375
aF668.3784790039062
aF670.862060546875
aF674.2933349609375
aF677.1036987304688
aF678.835693359375
aF679.8160400390625
aF680.4042358398438
aF681.449951171875
aF682.8224487304688
aF684.3910522460938
aF685.5675048828125
aF687.3321533203125
aF688.8680419921875
aF690.4039306640625
aF692.2666625976562
aF694.4234619140625
aF695.8612670898438
aF696.5802001953125
aF697.8873901367188
aF699.7500610351562
aF701.808837890625
aF704.1290283203125
aF705.8283081054688
aF708.3118896484375
aF710.4033203125
aF711.9065551757812
aF712.9849853515625
aF713.6712036132812
aF714.161376953125
aF714.6515502929688
aF715.0110473632812
aF715.8280029296875
aF716.9064331054688
aF718.0828247070312
aF718.8017578125
aF719.3900146484375
aF719.4226684570312
aF718.7691040039062
aF717.6580200195312
aF716.808349609375
aF715.6973266601562
aF714.84765625
aF714.194091796875
aF713.8019409179688
aF713.2136840820312
aF712.62548828125
aF711.971923828125
aF711.28564453125
aF710.5340576171875
aF710.0438842773438
aF709.324951171875
aF708.5733032226562
aF708.0831298828125
aF707.8217163085938
aF707.33154296875
aF706.44921875
aF705.4035034179688
aF704.22705078125
aF703.0505981445312
aF702.2990112304688
aF701.1879272460938
aF700.0768432617188
aF699.0311279296875
aF698.4755859375
aF697.7893676757812
aF697.16845703125
aF696.6782836914062
aF696.3187866210938
aF696.0247192382812
aF695.3057861328125
aF693.7698364257812
aF691.0574951171875
aF688.541259765625
aF683.9335327148438
aF678.9010009765625
aF673.966552734375
aF669.1300659179688
aF664.42431640625
aF659.8820190429688
aF656.9735717773438
aF652.8233642578125
aF648.771240234375
aF644.2942504882812
aF641.0263671875
aF635.8630981445312
aF630.634521484375
aF625.4712524414062
aF620.66748046875
aF617.7590942382812
aF613.9356689453125
aF610.50439453125
aF607.3018798828125
aF605.1777954101562
aF601.7791748046875
aF598.0537719726562
aF594.0016479492188
aF589.8187255859375
aF585.7012329101562
aF582.9888916015625
aF579.10009765625
aF575.4727783203125
aF572.270263671875
aF569.5579223632812
aF567.8912963867188
aF565.3423461914062
aF562.4013061523438
aF559.1007080078125
aF555.8001708984375
aF552.793701171875
aF551.061767578125
aF548.7742309570312
aF546.650146484375
aF544.427978515625
aF542.9901123046875
aF540.9967041015625
aF539.330078125
aF537.8268432617188
aF536.3563232421875
aF534.9838256835938
aF534.1015014648438
aF532.9904174804688
aF532.1734619140625
aF531.6832885742188
aF531.4871826171875
aF531.2257690429688
aF530.9970092773438
aF530.7682495117188
aF530.6048583984375
aF530.47412109375
aF530.47412109375
aF530.5722045898438
aF530.8336181640625
aF531.0623779296875
aF531.1930541992188
aF531.5198364257812
aF531.9773559570312
aF532.4348754882812
aF532.7616577148438
aF532.8923950195312
aF532.9577026367188
aF533.15380859375
aF533.7093505859375
aF534.2975463867188
aF535.3106079101562
aF536.3236694335938
aF537.2386474609375
aF538.1536254882812
aF538.8072509765625
aF540.016357421875
aF541.4542236328125
aF543.0554809570312
aF544.7874145507812
aF546.0618896484375
aF548.18603515625
aF550.5062255859375
aF553.0224609375
aF554.787109375
aF555.66943359375
aF557.466796875
aF560.0811157226562
aF562.4993286132812
aF564.6887817382812
aF566.061279296875
aF567.9566650390625
aF569.7213134765625
aF571.2245483398438
aF572.07421875
aF573.1852416992188
aF574.2310180664062
aF575.4401245117188
aF577.0413818359375
aF578.8713989257812
aF580.6033325195312
aF581.6163940429688
aF582.7928466796875
aF583.5117797851562
aF583.7078247070312
aF583.7078247070312
asg16
(lp58
F3000.177734375
aF3000.733154296875
aF3001.12548828125
aF3001.41943359375
aF3001.5830078125
aF3001.680908203125
aF3001.746337890625
aF3001.713623046875
aF3001.648193359375
aF3001.223388671875
aF3000.406494140625
aF2999.132080078125
aF2997.302001953125
aF2995.047119140625
aF2992.5634765625
aF2990.83154296875
aF2988.08642578125
aF2985.0146484375
aF2981.681396484375
aF2979.426513671875
aF2976.158447265625
aF2973.053955078125
aF2969.949462890625
aF2966.779541015625
aF2963.576904296875
aF2961.354736328125
aF2958.0869140625
aF2954.8515625
aF2951.7470703125
aF2949.851806640625
aF2947.204833984375
aF2944.65576171875
aF2942.04150390625
aF2939.3291015625
aF2937.53173828125
aF2935.048095703125
aF2933.02197265625
aF2931.420654296875
aF2929.754150390625
aF2928.4794921875
aF2926.38818359375
aF2923.9697265625
aF2921.38818359375
aF2918.871826171875
aF2917.30322265625
aF2914.983154296875
aF2912.597412109375
aF2910.99609375
aF2908.77392578125
aF2907.00927734375
aF2905.767578125
aF2904.8525390625
aF2904.0029296875
aF2903.3818359375
aF2902.368896484375
aF2901.3232421875
aF2900.179443359375
aF2899.231689453125
aF2897.499755859375
aF2895.604248046875
aF2893.905029296875
aF2892.434326171875
aF2891.4541015625
aF2889.689453125
aF2887.565185546875
aF2885.375732421875
aF2884.035888671875
aF2882.303955078125
aF2880.800537109375
aF2879.591552734375
aF2878.611083984375
aF2877.630859375
aF2876.454345703125
aF2875.441162109375
aF2873.643798828125
aF2871.650390625
aF2869.755126953125
aF2868.6767578125
aF2868.1865234375
aF2867.402099609375
aF2866.617919921875
aF2866.127685546875
aF2865.83349609375
aF2865.604736328125
aF2865.47412109375
aF2865.40869140625
aF2865.3759765625
aF2865.572021484375
aF2866.291015625
aF2867.2060546875
aF2869.42822265625
aF2872.6962890625
aF2876.487060546875
aF2880.375732421875
aF2884.101318359375
aF2886.356201171875
aF2889.2646484375
aF2891.48681640625
aF2893.18603515625
aF2894.10107421875
aF2895.244873046875
aF2896.29052734375
aF2897.434326171875
aF2898.839599609375
aF2900.37548828125
aF2901.486572265625
aF2903.316650390625
aF2905.440673828125
aF2907.826416015625
aF2909.492919921875
aF2911.9765625
aF2914.362060546875
aF2916.747802734375
aF2919.13330078125
aF2921.35546875
aF2922.597412109375
aF2923.9697265625
aF2924.98291015625
aF2926.028564453125
aF2926.845703125
aF2928.348876953125
aF2929.98291015625
aF2931.61669921875
aF2933.218017578125
aF2934.949951171875
aF2936.68212890625
aF2937.793212890625
aF2939.39453125
aF2940.832275390625
aF2942.302978515625
aF2943.3486328125
aF2945.01513671875
aF2946.84521484375
aF2948.74072265625
aF2950.603271484375
aF2951.77978515625
aF2953.446533203125
aF2955.01513671875
aF2956.583740234375
aF2957.7275390625
aF2959.45947265625
aF2961.060791015625
aF2961.518310546875
aF2962.269775390625
aF2963.0869140625
aF2963.707763671875
aF2964.26318359375
aF2964.720703125
aF2964.916748046875
aF2964.982177734375
aF2964.557373046875
aF2963.54443359375
aF2962.62939453125
aF2960.962646484375
aF2959.0673828125
aF2957.008544921875
aF2954.982421875
aF2953.740478515625
aF2953.15234375
aF2952.20458984375
aF2951.191650390625
aF2950.50537109375
aF2950.08056640625
aF2949.394287109375
aF2948.7080078125
aF2947.956298828125
aF2946.91064453125
aF2945.962890625
aF2944.067626953125
aF2941.97607421875
aF2939.8193359375
aF2938.4140625
aF2936.486083984375
aF2934.85205078125
aF2933.38134765625
aF2931.910888671875
aF2930.505615234375
aF2929.656005859375
aF2929.263916015625
aF2928.57763671875
aF2927.564453125
aF2926.25732421875
aF2924.231201171875
aF2922.3359375
aF2918.806640625
aF2915.04833984375
aF2911.715087890625
aF2908.9375
aF2906.6171875
aF2904.525634765625
aF2902.401611328125
aF2900.8330078125
aF2898.316650390625
aF2895.636962890625
aF2892.82666015625
aF2890.93115234375
aF2887.989990234375
aF2884.820068359375
aF2881.421630859375
aF2877.95751953125
aF2875.70263671875
aF2872.59814453125
aF2869.85302734375
aF2867.402099609375
aF2865.8662109375
aF2863.611328125
aF2861.421875
aF2859.19970703125
aF2856.9775390625
aF2854.82080078125
aF2853.35009765625
aF2851.0625
aF2848.578857421875
aF2846.814208984375
aF2845.899169921875
aF2843.97119140625
aF2840.833984375
aF2837.402587890625
aF2833.840576171875
aF2830.343994140625
aF2828.154541015625
aF2825.14794921875
aF2822.762451171875
aF2821.030517578125
aF2820.148193359375
aF2818.8408203125
aF2817.17431640625
aF2814.98486328125
aF2812.370361328125
aF2810.572998046875
aF2808.2529296875
aF2806.357421875
aF2804.5927734375
aF2803.383544921875
aF2801.48828125
aF2799.62548828125
aF2797.99169921875
aF2796.58642578125
aF2795.508056640625
aF2794.919677734375
aF2794.7236328125
aF2794.658203125
aF2794.8544921875
aF2795.31201171875
aF2795.638671875
aF2796.03076171875
aF2796.292236328125
aF2796.357666015625
aF2796.1943359375
aF2795.965576171875
aF2795.67138671875
aF2795.5732421875
aF2795.5732421875
aF2795.5732421875
aF2795.5732421875
aF2795.5732421875
aF2795.5732421875
aF2795.475341796875
aF2795.31201171875
aF2795.18115234375
aF2794.919677734375
aF2794.625732421875
aF2794.429443359375
aF2794.39697265625
aF2794.625732421875
aF2795.31201171875
aF2796.226806640625
aF2797.141845703125
aF2798.122314453125
aF2799.13525390625
aF2799.854248046875
aF2800.9326171875
aF2802.239990234375
aF2803.841064453125
aF2805.017578125
aF2806.81494140625
aF2808.57958984375
aF2810.4423828125
aF2812.56640625
aF2814.9521484375
aF2816.68408203125
aF2819.559814453125
aF2822.697021484375
aF2825.866943359375
aF2827.89306640625
aF2830.736083984375
aF2833.546630859375
aF2836.78173828125
aF2840.670654296875
aF2844.88623046875
aF2847.6640625
aF2851.4873046875
aF2855.18017578125
aF2857.76171875
aF2859.13427734375
aF2862.140869140625
aF2867.434814453125
aF2873.4150390625
aF2879.2646484375
aF2882.696044921875
aF2887.04248046875
aF2890.636962890625
aF2894.03564453125
aF2896.29052734375
aF2899.754638671875
aF2902.95703125
aF2905.538818359375
aF2907.630126953125
aF2908.9375
aF2910.832763671875
aF2912.662841796875
aF2914.460205078125
aF2916.257568359375
aF2917.531982421875
aF2919.55810546875
aF2921.715087890625
aF2924.06787109375
aF2925.734619140625
aF2926.616943359375
aF2928.348876953125
aF2930.83251953125
aF2933.0546875
aF2935.048095703125
aF2936.289794921875
aF2938.0546875
aF2939.590576171875
aF2940.897705078125
aF2941.681884765625
aF2942.662353515625
aF2943.642822265625
aF2944.819091796875
aF2946.224365234375
aF2947.76025390625
aF2949.23095703125
aF2950.11328125
aF2951.224365234375
aF2951.91064453125
aF2952.20458984375
aF2952.20458984375
assg18
(lp59
ssS'n'
p60
(dp61
g3
I7
sg4
(dp62
g6
(lp63
I-7
aI-7
aI-7
aI-7
aI-7
aI-8
aI-8
aI-8
aI-9
aI-9
aI-9
aI-9
aI-9
aI-10
aI-10
aI-10
aI-10
aI-10
aI-10
aI-10
aI-11
aI-11
aI-11
aI-11
aI-11
aI-11
aI-11
aI-11
aI-11
aI-11
aI-11
aI-10
aI-10
aI-10
aI-10
aI-10
aI-10
aI-10
aI-10
aI-10
aI-10
aI-9
aI-9
aI-8
aI-8
aI-8
aI-8
aI-7
aI-7
aI-6
aI-5
aI-5
aI-5
aI-5
aI-4
aI-4
aI-4
aI-4
aI-4
aI-3
aI-3
aI-3
aI-2
aI-2
aI-2
aI-2
aI-2
aI-2
aI-2
aI-2
aI-2
aI-2
aI-2
aI-2
aI-2
aI-3
aI-3
aI-3
aI-3
aI-3
aI-4
aI-4
aI-5
aI-6
aI-6
aI-7
aI-8
aI-8
aI-9
aI-10
aI-10
aI-11
aI-11
aI-12
aI-12
aI-12
aI-12
aI-12
aI-12
aI-12
aI-12
aI-11
aI-10
aI-10
aI-9
aI-8
aI-7
aI-7
aI-6
aI-6
aI-6
aI-6
aI-5
aI-5
aI-5
aI-4
aI-4
aI-4
aI-4
aI-4
aI-4
aI-4
aI-4
aI-4
aI-4
aI-4
aI-4
aI-4
aI-4
aI-4
aI-4
aI-4
aI-4
aI-5
aI-6
aI-6
aI-7
aI-8
aI-8
aI-9
aI-9
aI-10
aI-10
aI-10
aI-11
aI-11
asg8
(lp64
F0.205078125
aF0.30029296875
aF0.3359375
aF0.365234375
aF0.37939453125
aF0.3818359375
aF0.38720703125
aF0.3984375
aF0.4013671875
aF0.4091796875
aF0.40869140625
aF0.4150390625
aF0.4189453125
aF0.4228515625
aF0.439453125
aF0.4501953125
aF0.453125
aF0.45654296875
aF0.45849609375
aF0.46435546875
aF0.46435546875
aF0.47021484375
aF0.47021484375
aF0.4716796875
aF0.4716796875
aF0.4677734375
aF0.4677734375
aF0.462890625
aF0.46435546875
aF0.47021484375
aF0.47265625
aF0.47314453125
aF0.474609375
aF0.47509765625
aF0.47509765625
aF0.4755859375
aF0.47900390625
aF0.48095703125
aF0.48486328125
aF0.4873046875
aF0.486328125
aF0.4833984375
aF0.48583984375
aF0.48486328125
aF0.48681640625
aF0.48388671875
aF0.4833984375
aF0.4873046875
aF0.48974609375
aF0.490234375
aF0.48876953125
aF0.49169921875
aF0.49853515625
aF0.5
aF0.50048828125
aF0.50341796875
aF0.51123046875
aF0.5185546875
aF0.51904296875
aF0.5166015625
aF0.5107421875
aF0.51611328125
aF0.51953125
aF0.5146484375
aF0.51318359375
aF0.51318359375
aF0.51025390625
aF0.498046875
aF0.49365234375
aF0.48876953125
aF0.486328125
aF0.4814453125
aF0.482421875
aF0.482421875
aF0.4833984375
aF0.48779296875
aF0.48876953125
aF0.50146484375
aF0.49755859375
aF0.4951171875
aF0.50390625
aF0.51806640625
aF0.5244140625
aF0.53564453125
aF0.53564453125
aF0.54052734375
aF0.54150390625
aF0.541015625
aF0.54931640625
aF0.5498046875
aF0.5546875
aF0.55419921875
aF0.55322265625
aF0.53515625
aF0.52685546875
aF0.52685546875
aF0.52734375
aF0.5263671875
aF0.5263671875
aF0.5283203125
aF0.53759765625
aF0.54541015625
aF0.552734375
aF0.5615234375
aF0.56298828125
aF0.5576171875
aF0.56103515625
aF0.5537109375
aF0.54931640625
aF0.54833984375
aF0.55126953125
aF0.5478515625
aF0.5478515625
aF0.5498046875
aF0.54736328125
aF0.54443359375
aF0.5400390625
aF0.53662109375
aF0.53515625
aF0.53076171875
aF0.52783203125
aF0.5224609375
aF0.51953125
aF0.5205078125
aF0.5224609375
aF0.525390625
aF0.5224609375
aF0.52197265625
aF0.52392578125
aF0.525390625
aF0.5283203125
aF0.5341796875
aF0.54248046875
aF0.55126953125
aF0.5537109375
aF0.56640625
aF0.5869140625
aF0.58740234375
aF0.58984375
aF0.58935546875
aF0.60009765625
aF0.61572265625
aF0.61572265625
aF0.6240234375
aF0.619140625
aF0.572265625
asg10
(lp65
I-23
aI-22
aI-22
aI-22
aI-22
aI-22
aI-22
aI-21
aI-21
aI-20
aI-19
aI-19
aI-19
aI-19
aI-19
aI-18
aI-18
aI-18
aI-18
aI-17
aI-17
aI-17
aI-17
aI-17
aI-16
aI-16
aI-16
aI-16
aI-16
aI-16
aI-16
aI-16
aI-16
aI-16
aI-16
aI-16
aI-16
aI-16
aI-16
aI-16
aI-16
aI-16
aI-16
aI-16
aI-17
aI-17
aI-18
aI-18
aI-18
aI-18
aI-18
aI-19
aI-19
aI-19
aI-19
aI-19
aI-19
aI-19
aI-19
aI-19
aI-19
aI-19
aI-19
aI-19
aI-19
aI-19
aI-19
aI-19
aI-19
aI-18
aI-18
aI-18
aI-17
aI-17
aI-17
aI-17
aI-17
aI-16
aI-16
aI-16
aI-16
aI-16
aI-16
aI-16
aI-16
aI-16
aI-16
aI-15
aI-15
aI-15
aI-15
aI-15
aI-15
aI-15
aI-15
aI-15
aI-15
aI-15
aI-15
aI-15
aI-15
aI-15
aI-15
aI-16
aI-16
aI-17
aI-17
aI-18
aI-18
aI-18
aI-18
aI-18
aI-18
aI-18
aI-18
aI-18
aI-18
aI-18
aI-18
aI-18
aI-18
aI-18
aI-18
aI-17
aI-17
aI-16
aI-16
aI-16
aI-16
aI-15
aI-15
aI-15
aI-15
aI-15
aI-15
aI-15
aI-15
aI-14
aI-14
aI-13
aI-12
aI-12
aI-12
aI-12
aI-12
aI-12
asg12
(lp66
I1472
aI1506
aI1537
aI1568
aI1599
aI1630
aI1660
aI1691
aI1722
aI1753
aI1784
aI1814
aI1845
aI1876
aI1907
aI1937
aI1968
aI1999
aI2030
aI2061
aI2091
aI2122
aI2153
aI2183
aI2214
aI2245
aI2276
aI2307
aI2338
aI2368
aI2399
aI2430
aI2460
aI2491
aI2522
aI2522
aI2553
aI2584
aI2615
aI2646
aI2676
aI2707
aI2738
aI2769
aI2799
aI2830
aI2861
aI2892
aI2922
aI2953
aI2984
aI3015
aI3046
aI3077
aI3108
aI3139
aI3170
aI3200
aI3231
aI3263
aI3294
aI3325
aI3357
aI3388
aI3420
aI3451
aI3483
aI3514
aI3545
aI3576
aI3608
aI3639
aI3670
aI3701
aI3733
aI3764
aI3795
aI3830
aI3864
aI3898
aI3933
aI3967
aI4002
aI4037
aI4071
aI4106
aI4140
aI4175
aI4209
aI4244
aI4278
aI4312
aI4346
aI4380
aI4413
aI4447
aI4480
aI4514
aI4548
aI4582
aI4616
aI4650
aI4684
aI4718
aI4752
aI4786
aI4821
aI4855
aI4889
aI4923
aI4957
aI4988
aI5022
aI5057
aI5091
aI5125
aI5158
aI5192
aI5226
aI5260
aI5294
aI5328
aI5361
aI5395
aI5429
aI5463
aI5497
aI5531
aI5565
aI5599
aI5633
aI5667
aI5702
aI5736
aI5770
aI5804
aI5838
aI5872
aI5906
aI5941
aI5975
aI6009
aI6043
aI6043
aI6077
aI6111
asg14
(lp67
F678.0513916015625
aF679.3258666992188
aF680.8291015625
aF684.587158203125
aF689.5216064453125
aF694.1293334960938
aF697.5606079101562
aF701.5147094726562
aF705.338134765625
aF709.2269287109375
aF712.4947509765625
aF713.6385498046875
aF714.0307006835938
aF713.8673095703125
aF713.5731811523438
aF713.4751586914062
aF713.7039184570312
aF713.5731811523438
aF712.4620971679688
aF709.8151245117188
aF706.1550903320312
aF703.148681640625
aF701.1879272460938
aF698.279541015625
aF694.0313110351562
aF689.3582153320312
aF687.2667846679688
aF686.6132202148438
aF685.9923095703125
aF684.8485717773438
aF682.8551635742188
aF680.9597778320312
aF678.6395874023438
aF675.9599609375
aF675.3390502929688
aF671.5482788085938
aF666.5158081054688
aF662.1694946289062
aF658.9669799804688
aF656.1239624023438
aF651.189453125
aF645.7321166992188
aF640.9283447265625
aF636.4840087890625
aF630.86328125
aF625.1771850585938
aF620.1119384765625
aF615.2101440429688
aF610.9619140625
aF605.9620361328125
aF601.2562866210938
aF596.5178833007812
aF593.1193237304688
aF589.1651611328125
aF584.9496459960938
aF581.551025390625
aF577.4335327148438
aF573.2833251953125
aF569.7866821289062
aF565.178955078125
aF559.2314453125
aF553.90478515625
aF547.2383422851562
aF539.134033203125
aF535.5066528320312
aF535.0818481445312
aF535.0491943359375
aF535.7027587890625
aF537.2386474609375
aF539.7548828125
aF543.7744140625
aF548.9376220703125
aF553.8067626953125
aF560.53857421875
aF568.0546875
aF576.224365234375
aF584.230712890625
aF592.0408935546875
aF600.112548828125
aF605.9620361328125
aF610.7005004882812
aF615.79833984375
aF623.6085815429688
aF637.6277465820312
aF647.7255249023438
aF658.9669799804688
aF668.639892578125
aF676.384765625
aF683.2799682617188
aF689.9137573242188
aF694.8482666015625
aF700.468994140625
aF706.5799560546875
aF710.7301025390625
aF710.9588623046875
aF708.7040405273438
aF703.2139892578125
aF694.3580932617188
aF684.7505493164062
aF673.084228515625
aF659.816650390625
aF646.2876586914062
aF626.7457275390625
aF615.7003173828125
aF609.393310546875
aF598.57666015625
aF591.51806640625
aF588.9691162109375
aF585.3417358398438
aF580.7013549804688
aF576.0609741210938
aF571.7147216796875
aF565.5384521484375
aF561.1594848632812
aF558.7085571289062
aF556.5517578125
aF553.7741088867188
aF551.5845947265625
aF550.2774658203125
aF549.5911865234375
aF549.3624877929688
aF549.8853149414062
aF550.2120971679688
aF550.2120971679688
aF549.9833374023438
aF549.3951416015625
aF549.264404296875
aF549.3297729492188
aF549.3624877929688
aF548.839599609375
aF548.7742309570312
aF549.9833374023438
aF554.81982421875
aF567.6625366210938
aF576.48583984375
aF583.2176513671875
aF593.5441284179688
aF600.6354370117188
aF605.896728515625
aF611.2233276367188
aF616.1904907226562
aF621.778564453125
aF622.46484375
aF624.0987548828125
aF624.8176879882812
aF626.8110961914062
asg16
(lp68
F3014.785400390625
aF3016.451904296875
aF3018.05322265625
aF3019.621826171875
aF3019.03369140625
aF3014.621826171875
aF3008.70703125
aF3001.38671875
aF2994.818359375
aF2988.4130859375
aF2983.15185546875
aF2980.243408203125
aF2977.204345703125
aF2974.55712890625
aF2972.4658203125
aF2970.2109375
aF2967.041015625
aF2963.9365234375
aF2961.093505859375
aF2957.792724609375
aF2954.688232421875
aF2951.8125
aF2949.884521484375
aF2947.531494140625
aF2944.361572265625
aF2940.57080078125
aF2938.708251953125
aF2937.8583984375
aF2936.61669921875
aF2935.015380859375
aF2932.923828125
aF2931.028564453125
aF2928.9697265625
aF2926.976318359375
aF2926.551513671875
aF2924.296630859375
aF2921.584228515625
aF2919.460205078125
aF2918.447021484375
aF2918.054931640625
aF2917.630126953125
aF2916.845703125
aF2916.192138671875
aF2916.0615234375
aF2917.00927734375
aF2918.479736328125
aF2919.394775390625
aF2919.852294921875
aF2920.178955078125
aF2920.636474609375
aF2920.865234375
aF2920.9306640625
aF2920.734619140625
aF2920.53857421875
aF2920.178955078125
aF2919.49267578125
aF2918.34912109375
aF2917.205322265625
aF2916.224853515625
aF2914.68896484375
aF2911.878662109375
aF2908.05517578125
aF2902.69580078125
aF2895.8984375
aF2891.87890625
aF2890.800537109375
aF2889.395263671875
aF2885.57177734375
aF2880.57177734375
aF2875.179931640625
aF2870.572021484375
aF2866.7158203125
aF2863.251953125
aF2858.938232421875
aF2853.7421875
aF2848.0234375
aF2844.0693359375
aF2843.0888671875
aF2844.03662109375
aF2843.90576171875
aF2842.468017578125
aF2840.93212890625
aF2839.853515625
aF2839.4287109375
aF2839.16748046875
aF2837.958251953125
aF2836.977783203125
aF2835.768798828125
aF2834.52685546875
aF2833.64453125
aF2832.794921875
aF2831.97802734375
aF2830.93212890625
aF2829.886474609375
aF2829.59228515625
aF2829.330810546875
aF2828.121826171875
aF2825.932373046875
aF2822.8603515625
aF2819.00439453125
aF2815.050048828125
aF2812.59912109375
aF2812.17431640625
aF2812.926025390625
aF2813.710205078125
aF2815.965087890625
aF2817.6318359375
aF2818.350830078125
aF2819.102294921875
aF2819.527099609375
aF2819.29833984375
aF2817.9912109375
aF2815.671142578125
aF2814.00439453125
aF2813.08935546875
aF2811.716796875
aF2809.396728515625
aF2806.586181640625
aF2803.383544921875
aF2800.5078125
aF2797.07666015625
aF2792.730224609375
aF2789.0048828125
aF2786.16162109375
aF2783.710693359375
aF2781.390625
aF2779.88720703125
aF2776.78271484375
aF2772.599853515625
aF2768.9072265625
aF2767.175048828125
aF2765.181640625
aF2761.26025390625
aF2754.56103515625
aF2747.86181640625
aF2742.731201171875
aF2739.2998046875
aF2736.685546875
aF2733.711669921875
aF2729.692138671875
aF2725.705322265625
aF2723.25439453125
aF2723.12353515625
aF2722.927490234375
aF2722.927490234375
aF2723.417724609375
assg18
(lp69
ssS'r'
p70
(dp71
g3
I4
sg4
(dp72
g6
(lp73
I-1
aI-1
aI-1
aI-2
aI-3
aI-3
aI-4
aI-5
aI-6
aI-6
aI-7
aI-7
aI-9
aI-9
aI-9
aI-9
aI-8
aI-8
aI-7
aI-6
aI-6
aI-6
aI-6
aI-6
aI-6
aI-7
aI-7
aI-7
aI-8
aI-8
asg8
(lp74
F0.5615234375
aF0.57421875
aF0.59033203125
aF0.57373046875
aF0.55908203125
aF0.56103515625
aF0.6015625
aF0.6884765625
aF0.70458984375
aF0.69677734375
aF0.630859375
aF0.0546875
aF0.53369140625
aF0.60498046875
aF0.640625
aF0.65234375
aF0.65283203125
aF0.65087890625
aF0.650390625
aF0.650390625
aF0.6494140625
aF0.65673828125
aF0.66357421875
aF0.669921875
aF0.6787109375
aF0.693359375
aF0.7060546875
aF0.705078125
aF0.68115234375
aF0.57275390625
asg10
(lp75
I14
aI15
aI15
aI14
aI12
aI11
aI9
aI8
aI7
aI6
aI6
aI6
aI18
aI18
aI18
aI18
aI17
aI17
aI16
aI16
aI15
aI14
aI14
aI14
aI14
aI14
aI14
aI13
aI13
aI13
asg12
(lp76
I2116
aI2140
aI2164
aI2192
aI2214
aI2240
aI2260
aI2286
aI2306
aI2327
aI2352
aI2371
aI2737
aI2757
aI2774
aI2790
aI2807
aI2822
aI2836
aI2837
aI2851
aI2866
aI2881
aI2896
aI2912
aI2927
aI2941
aI2957
aI2971
aI2986
asg14
(lp77
F383.4851379394531
aF391.94891357421875
aF415.0201110839844
aF466.619873046875
aF509.72314453125
aF562.1398315429688
aF621.8765869140625
aF699.586669921875
aF756.5784301757812
aF798.603271484375
aF821.7398681640625
aF827.6873779296875
aF855.0068359375
aF848.1769409179688
aF832.2623901367188
aF797.8189697265625
aF761.1860961914062
aF731.4484252929688
aF715.5338745117188
aF683.0512084960938
aF635.3402709960938
aF589.524658203125
aF546.2906494140625
aF519.8208618164062
aF483.3840637207031
aF450.5746154785156
aF421.58856201171875
aF397.1775207519531
aF383.22369384765625
aF362.7668151855469
asg16
(lp78
F2522.7021484375
aF2530.31640625
aF2570.446533203125
aF2672.405517578125
aF2756.3583984375
aF2842.958251953125
aF2926.093994140625
aF3021.125
aF3092.169677734375
aF3147.00537109375
aF3177.168212890625
aF3183.67138671875
aF2432.213623046875
aF2449.958251953125
aF2492.1796875
aF2571.45947265625
aF2644.43212890625
aF2695.509765625
aF2721.326171875
aF2773.38427734375
aF2851.846923828125
aF2928.44677734375
aF3000.99462890625
aF3045.27490234375
aF3104.685791015625
aF3153.279541015625
aF3189.74951171875
aF3216.546630859375
aF3230.20654296875
aF3246.349853515625
assg18
(lp79
ssS'u'
p80
(dp81
g3
I1
sg4
(dp82
g6
(lp83
I-4
aI-4
aI-4
aI-4
aI-4
aI-4
aI-4
aI-4
aI-4
aI-3
aI-3
aI-3
aI-3
aI-3
aI-3
aI-3
aI-3
aI-3
aI-3
aI-2
aI-2
aI-2
aI-2
aI-2
aI-2
aI-2
aI-1
aI-1
aI-1
aI-1
aI-1
aI-1
aI-1
aI-1
aI-1
aI-1
aI0
aI0
aI0
aI0
aI0
aI0
aI0
aI0
aI0
aI0
aI0
aI0
aI1
aI2
aI2
aI2
aI2
aI3
aI3
aI3
aI3
aI3
aI4
aI4
aI4
aI4
aI4
aI4
aI4
aI5
aI5
aI5
aI6
aI6
aI6
aI7
aI7
aI8
aI8
aI8
aI8
aI8
aI8
aI8
aI8
aI8
aI8
aI8
aI8
aI8
aI8
aI8
aI8
aI8
aI8
aI8
aI9
aI9
aI9
aI9
aI9
aI9
aI9
aI8
aI4
aI4
aI4
aI4
aI3
aI3
aI3
aI3
aI2
aI2
aI1
aI1
aI1
aI1
aI1
aI1
aI1
aI1
aI1
aI1
aI1
aI1
aI1
aI1
aI1
aI1
aI1
aI1
aI0
aI0
aI0
aI0
aI0
aI0
aI0
aI0
aI0
aI0
aI0
aI0
aI0
aI-1
aI-1
aI-1
aI-1
aI-1
aI-1
aI-1
aI-1
aI-1
aI-1
aI-1
aI-1
aI-1
aI-1
aI-1
aI-1
aI-1
aI-1
aI-1
aI-1
aI-1
aI-1
aI-1
aI-1
aI-1
aI-2
aI-2
aI-2
aI-2
aI-2
aI-2
aI-2
aI-2
aI-2
aI-2
aI-2
aI-2
aI-2
aI-2
aI-2
aI-2
aI-2
aI-2
aI-2
aI-2
aI-2
aI-2
aI-2
aI-2
aI-2
aI-2
aI-2
aI-2
aI-2
aI-2
aI-2
aI-1
aI-1
aI-1
aI-1
aI-1
aI0
aI0
aI1
aI2
aI2
aI3
aI3
aI3
aI3
aI3
aI4
aI4
aI5
aI5
aI5
aI6
aI7
aI8
aI8
aI8
aI9
aI9
aI10
aI11
aI11
aI12
aI12
aI13
aI13
aI13
aI13
aI13
aI13
aI13
aI13
aI13
aI13
aI14
aI14
aI14
aI14
aI15
aI16
aI16
aI16
aI16
aI16
aI17
aI17
aI17
aI18
aI18
aI18
aI18
aI18
aI18
aI18
aI18
aI18
aI17
aI17
aI16
aI16
aI15
aI15
aI14
aI14
aI14
aI14
aI14
aI14
aI14
aI13
aI13
aI12
aI11
aI10
aI10
aI10
aI10
aI10
aI10
aI10
aI10
aI9
aI9
aI8
aI8
aI7
aI7
aI7
aI6
aI6
aI6
aI6
aI6
aI6
aI6
aI6
aI6
aI6
aI6
aI6
aI6
aI5
aI5
aI5
aI5
aI5
aI4
aI3
aI3
aI3
aI2
aI2
aI2
aI2
aI2
aI2
aI2
aI2
aI2
aI2
aI2
aI2
aI2
aI2
aI2
aI2
aI2
aI2
aI2
aI2
aI1
aI1
aI1
aI1
aI1
aI1
aI0
aI0
aI0
aI0
aI0
aI0
aI0
aI0
aI0
aI0
aI1
aI1
aI1
aI1
aI1
aI1
aI1
aI2
aI2
aI2
aI2
aI2
aI2
aI3
aI3
aI3
aI3
aI3
aI3
aI4
aI5
aI5
aI6
aI7
aI7
aI7
aI-14
aI-13
aI-13
asg8
(lp84
F0.3203125
aF0.32958984375
aF0.33447265625
aF0.34716796875
aF0.40771484375
aF0.423828125
aF0.4521484375
aF0.46142578125
aF0.4609375
aF0.4697265625
aF0.47265625
aF0.474609375
aF0.47509765625
aF0.47509765625
aF0.4755859375
aF0.4794921875
aF0.48486328125
aF0.4912109375
aF0.49658203125
aF0.49951171875
aF0.50341796875
aF0.50439453125
aF0.5048828125
aF0.50439453125
aF0.50390625
aF0.50439453125
aF0.50634765625
aF0.5068359375
aF0.5078125
aF0.509765625
aF0.509765625
aF0.509765625
aF0.5087890625
aF0.5107421875
aF0.51513671875
aF0.51904296875
aF0.521484375
aF0.52197265625
aF0.52099609375
aF0.5205078125
aF0.5205078125
aF0.52001953125
aF0.52001953125
aF0.51318359375
aF0.509765625
aF0.5107421875
aF0.513671875
aF0.51708984375
aF0.521484375
aF0.52197265625
aF0.52197265625
aF0.52001953125
aF0.5185546875
aF0.5205078125
aF0.521484375
aF0.52197265625
aF0.52197265625
aF0.521484375
aF0.52099609375
aF0.52099609375
aF0.5205078125
aF0.52001953125
aF0.51953125
aF0.51904296875
aF0.51806640625
aF0.517578125
aF0.51708984375
aF0.51708984375
aF0.513671875
aF0.51318359375
aF0.5126953125
aF0.51318359375
aF0.51708984375
aF0.51953125
aF0.5234375
aF0.52392578125
aF0.5234375
aF0.52197265625
aF0.52001953125
aF0.52001953125
aF0.5185546875
aF0.5185546875
aF0.5185546875
aF0.5185546875
aF0.51806640625
aF0.51806640625
aF0.52001953125
aF0.52001953125
aF0.51953125
aF0.517578125
aF0.51708984375
aF0.517578125
aF0.5146484375
aF0.50634765625
aF0.49267578125
aF0.4814453125
aF0.46435546875
aF0.4365234375
aF0.33544921875
aF0.08837890625
aF0.10302734375
aF0.24072265625
aF0.25634765625
aF0.2763671875
aF0.29443359375
aF0.30322265625
aF0.3037109375
aF0.3076171875
aF0.314453125
aF0.32568359375
aF0.34130859375
aF0.34912109375
aF0.3525390625
aF0.35546875
aF0.35888671875
aF0.3642578125
aF0.3681640625
aF0.37158203125
aF0.369140625
aF0.36181640625
aF0.3603515625
aF0.3623046875
aF0.36474609375
aF0.36669921875
aF0.3671875
aF0.365234375
aF0.365234375
aF0.36474609375
aF0.36474609375
aF0.3681640625
aF0.36962890625
aF0.3662109375
aF0.34912109375
aF0.33740234375
aF0.33251953125
aF0.33984375
aF0.3544921875
aF0.3603515625
aF0.36083984375
aF0.3564453125
aF0.34716796875
aF0.34521484375
aF0.35009765625
aF0.35498046875
aF0.3701171875
aF0.37255859375
aF0.37841796875
aF0.37548828125
aF0.36376953125
aF0.3642578125
aF0.37451171875
aF0.3798828125
aF0.38232421875
aF0.384765625
aF0.388671875
aF0.38916015625
aF0.39208984375
aF0.39892578125
aF0.39990234375
aF0.40869140625
aF0.4111328125
aF0.41259765625
aF0.41259765625
aF0.416015625
aF0.42138671875
aF0.42578125
aF0.42578125
aF0.42578125
aF0.42431640625
aF0.42431640625
aF0.4267578125
aF0.42822265625
aF0.4287109375
aF0.42822265625
aF0.4287109375
aF0.4287109375
aF0.4306640625
aF0.4345703125
aF0.439453125
aF0.447265625
aF0.45166015625
aF0.45361328125
aF0.4541015625
aF0.45947265625
aF0.4599609375
aF0.46435546875
aF0.46826171875
aF0.47412109375
aF0.478515625
aF0.47900390625
aF0.482421875
aF0.48779296875
aF0.48974609375
aF0.49365234375
aF0.49560546875
aF0.4970703125
aF0.498046875
aF0.49951171875
aF0.501953125
aF0.50439453125
aF0.5078125
aF0.51123046875
aF0.51611328125
aF0.51806640625
aF0.52001953125
aF0.5224609375
aF0.52490234375
aF0.52587890625
aF0.529296875
aF0.5302734375
aF0.53125
aF0.533203125
aF0.5322265625
aF0.52978515625
aF0.52978515625
aF0.52978515625
aF0.52978515625
aF0.5302734375
aF0.52978515625
aF0.52783203125
aF0.52783203125
aF0.5283203125
aF0.52978515625
aF0.53076171875
aF0.53076171875
aF0.53125
aF0.53125
aF0.53173828125
aF0.53173828125
aF0.529296875
aF0.52734375
aF0.52734375
aF0.525390625
aF0.52587890625
aF0.5224609375
aF0.51806640625
aF0.51318359375
aF0.5107421875
aF0.51025390625
aF0.51025390625
aF0.5087890625
aF0.5068359375
aF0.50244140625
aF0.5
aF0.49658203125
aF0.49365234375
aF0.4931640625
aF0.49267578125
aF0.49267578125
aF0.49072265625
aF0.48876953125
aF0.48486328125
aF0.48046875
aF0.47119140625
aF0.4658203125
aF0.45361328125
aF0.4501953125
aF0.44873046875
aF0.44677734375
aF0.44287109375
aF0.44091796875
aF0.4404296875
aF0.43994140625
aF0.43994140625
aF0.4365234375
aF0.43505859375
aF0.4345703125
aF0.43359375
aF0.43212890625
aF0.4287109375
aF0.42724609375
aF0.42724609375
aF0.42578125
aF0.42529296875
aF0.421875
aF0.4189453125
aF0.4189453125
aF0.4150390625
aF0.4140625
aF0.41064453125
aF0.408203125
aF0.40087890625
aF0.3994140625
aF0.3994140625
aF0.40380859375
aF0.40625
aF0.40673828125
aF0.4072265625
aF0.4072265625
aF0.4072265625
aF0.40869140625
aF0.40966796875
aF0.4091796875
aF0.40185546875
aF0.38916015625
aF0.39501953125
aF0.412109375
aF0.43798828125
aF0.4482421875
aF0.4462890625
aF0.4462890625
aF0.44384765625
aF0.43896484375
aF0.439453125
aF0.44140625
aF0.43994140625
aF0.447265625
aF0.455078125
aF0.46533203125
aF0.46826171875
aF0.4609375
aF0.4560546875
aF0.45361328125
aF0.44873046875
aF0.44970703125
aF0.45947265625
aF0.4697265625
aF0.48095703125
aF0.48388671875
aF0.49072265625
aF0.4892578125
aF0.4892578125
aF0.4931640625
aF0.5009765625
aF0.50830078125
aF0.51318359375
aF0.5185546875
aF0.5224609375
aF0.52734375
aF0.53076171875
aF0.53125
aF0.5361328125
aF0.53759765625
aF0.544921875
aF0.54833984375
aF0.552734375
aF0.5546875
aF0.556640625
aF0.55859375
aF0.55908203125
aF0.5615234375
aF0.56396484375
aF0.5703125
aF0.5791015625
aF0.58642578125
aF0.58642578125
aF0.5869140625
aF0.591796875
aF0.59228515625
aF0.59228515625
aF0.59326171875
aF0.59716796875
aF0.59912109375
aF0.599609375
aF0.60302734375
aF0.6103515625
aF0.615234375
aF0.6171875
aF0.6201171875
aF0.62060546875
aF0.6201171875
aF0.619140625
aF0.619140625
aF0.62109375
aF0.62548828125
aF0.62744140625
aF0.6259765625
aF0.6162109375
aF0.6123046875
aF0.607421875
aF0.59619140625
aF0.583984375
aF0.56689453125
aF0.54345703125
aF0.501953125
aF0.47509765625
aF0.306640625
aF0.24462890625
aF0.173828125
aF0.03369140625
asg10
(lp85
I-21
aI-21
aI-21
aI-21
aI-21
aI-21
aI-21
aI-21
aI-21
aI-21
aI-21
aI-21
aI-21
aI-21
aI-22
aI-22
aI-22
aI-22
aI-22
aI-22
aI-22
aI-23
aI-23
aI-23
aI-23
aI-23
aI-24
aI-24
aI-24
aI-24
aI-24
aI-24
aI-24
aI-24
aI-24
aI-24
aI-24
aI-24
aI-24
aI-24
aI-24
aI-25
aI-25
aI-25
aI-25
aI-25
aI-25
aI-25
aI-25
aI-25
aI-25
aI-25
aI-25
aI-25
aI-25
aI-25
aI-25
aI-25
aI-25
aI-25
aI-25
aI-25
aI-25
aI-25
aI-25
aI-25
aI-25
aI-25
aI-25
aI-25
aI-25
aI-25
aI-25
aI-25
aI-25
aI-25
aI-25
aI-25
aI-26
aI-26
aI-26
aI-26
aI-26
aI-26
aI-26
aI-26
aI-26
aI-26
aI-26
aI-26
aI-26
aI-26
aI-26
aI-26
aI-26
aI-26
aI-26
aI-26
aI-26
aI-26
aI-25
aI-25
aI-25
aI-24
aI-24
aI-24
aI-24
aI-24
aI-24
aI-24
aI-24
aI-24
aI-24
aI-24
aI-24
aI-24
aI-24
aI-24
aI-24
aI-24
aI-24
aI-24
aI-24
aI-24
aI-24
aI-24
aI-24
aI-24
aI-24
aI-24
aI-24
aI-24
aI-24
aI-24
aI-24
aI-24
aI-24
aI-24
aI-24
aI-24
aI-24
aI-24
aI-24
aI-24
aI-24
aI-24
aI-24
aI-24
aI-24
aI-24
aI-24
aI-24
aI-24
aI-24
aI-24
aI-24
aI-24
aI-24
aI-24
aI-24
aI-24
aI-24
aI-24
aI-24
aI-24
aI-24
aI-24
aI-24
aI-24
aI-24
aI-25
aI-25
aI-25
aI-25
aI-25
aI-25
aI-25
aI-25
aI-25
aI-25
aI-25
aI-25
aI-26
aI-26
aI-26
aI-27
aI-27
aI-27
aI-27
aI-27
aI-28
aI-28
aI-28
aI-28
aI-29
aI-29
aI-29
aI-29
aI-30
aI-30
aI-30
aI-30
aI-30
aI-31
aI-31
aI-32
aI-32
aI-32
aI-32
aI-32
aI-32
aI-33
aI-33
aI-34
aI-34
aI-34
aI-34
aI-34
aI-34
aI-34
aI-34
aI-34
aI-34
aI-34
aI-34
aI-34
aI-34
aI-34
aI-34
aI-34
aI-34
aI-34
aI-34
aI-34
aI-35
aI-35
aI-35
aI-35
aI-35
aI-35
aI-35
aI-35
aI-36
aI-36
aI-37
aI-37
aI-37
aI-37
aI-37
aI-37
aI-37
aI-37
aI-37
aI-37
aI-37
aI-37
aI-37
aI-37
aI-37
aI-37
aI-37
aI-37
aI-37
aI-36
aI-36
aI-36
aI-36
aI-36
aI-36
aI-36
aI-36
aI-36
aI-36
aI-36
aI-36
aI-35
aI-35
aI-35
aI-35
aI-35
aI-35
aI-35
aI-35
aI-35
aI-35
aI-35
aI-35
aI-35
aI-35
aI-35
aI-35
aI-35
aI-35
aI-35
aI-35
aI-35
aI-35
aI-35
aI-35
aI-35
aI-35
aI-35
aI-35
aI-35
aI-35
aI-35
aI-35
aI-35
aI-35
aI-35
aI-35
aI-35
aI-35
aI-35
aI-35
aI-35
aI-35
aI-35
aI-35
aI-35
aI-35
aI-35
aI-35
aI-35
aI-35
aI-35
aI-35
aI-35
aI-35
aI-35
aI-35
aI-35
aI-35
aI-35
aI-35
aI-35
aI-35
aI-34
aI-34
aI-34
aI-34
aI-34
aI-34
aI-34
aI-34
aI-34
aI-33
aI-33
aI-33
aI-33
aI-33
aI-33
aI-33
aI-32
aI-32
aI-32
aI-32
aI-32
aI-31
aI-31
aI-31
aI-31
aI-30
aI-30
aI-30
aI-30
aI-30
aI-30
aI-30
aI-30
aI-29
aI-29
aI-29
aI-28
aI-28
aI-27
aI-27
aI-11
aI-11
aI-10
asg12
(lp86
I2505
aI2523
aI2541
aI2557
aI2573
aI2588
aI2604
aI2620
aI2636
aI2653
aI2669
aI2685
aI2701
aI2718
aI2734
aI2749
aI2765
aI2781
aI2796
aI2812
aI2828
aI2844
aI2860
aI2875
aI2890
aI2906
aI2921
aI2937
aI2954
aI2970
aI2986
aI3002
aI3019
aI3035
aI3051
aI3068
aI3084
aI3101
aI3116
aI3132
aI3148
aI3164
aI3180
aI3195
aI3211
aI3227
aI3243
aI3258
aI3274
aI3289
aI3305
aI3321
aI3338
aI3355
aI3372
aI3389
aI3405
aI3421
aI3438
aI3455
aI3471
aI3488
aI3505
aI3522
aI3539
aI3555
aI3571
aI3588
aI3605
aI3621
aI3638
aI3638
aI3654
aI3672
aI3689
aI3705
aI3721
aI3738
aI3755
aI3772
aI3788
aI3805
aI3821
aI3838
aI3855
aI3872
aI3887
aI3904
aI3922
aI3939
aI3954
aI3971
aI3988
aI4005
aI4022
aI4038
aI4054
aI4071
aI4088
aI4105
aI4549
aI4587
aI4606
aI4622
aI4639
aI4655
aI4672
aI4672
aI4689
aI4705
aI4721
aI4738
aI4755
aI4771
aI4788
aI4805
aI4821
aI4838
aI4855
aI4872
aI4889
aI4906
aI4922
aI4939
aI4955
aI4972
aI4989
aI4989
aI5005
aI5022
aI5039
aI5055
aI5071
aI5089
aI5105
aI5122
aI5139
aI5156
aI5172
aI5189
aI5205
aI5221
aI5239
aI5255
aI5272
aI5289
aI5289
aI5305
aI5321
aI5339
aI5355
aI5372
aI5389
aI5405
aI5422
aI5439
aI5439
aI5456
aI5472
aI5489
aI5505
aI5522
aI5539
aI5555
aI5571
aI5588
aI5606
aI5623
aI5639
aI5656
aI5672
aI5688
aI5705
aI5721
aI5738
aI5756
aI5756
aI5773
aI5789
aI5806
aI5821
aI5839
aI5855
aI5872
aI5889
aI5889
aI5906
aI5922
aI5939
aI5956
aI5972
aI5989
aI6005
aI6022
aI6039
aI6055
aI6072
aI6089
aI6106
aI6124
aI6141
aI6158
aI6175
aI6193
aI6209
aI6227
aI6244
aI6261
aI6278
aI6295
aI6311
aI6327
aI6343
aI6360
aI6376
aI6393
aI6393
aI6409
aI6426
aI6443
aI6460
aI6476
aI6493
aI6510
aI6527
aI6543
aI6559
aI6575
aI6592
aI6592
aI6609
aI6624
aI6641
aI6658
aI6675
aI6691
aI6707
aI6723
aI6741
aI6758
aI6774
aI6791
aI6808
aI6824
aI6841
aI6858
aI6875
aI6891
aI6908
aI6908
aI6925
aI6942
aI6959
aI6976
aI6992
aI7009
aI7025
aI7042
aI7042
aI7059
aI7075
aI7092
aI7109
aI7125
aI7142
aI7158
aI7175
aI7192
aI7209
aI7226
aI7243
aI7260
aI7277
aI7293
aI7309
aI7325
aI7341
aI7357
aI7373
aI7389
aI7406
aI7406
aI7423
aI7439
aI7456
aI7473
aI7489
aI7506
aI7523
aI7539
aI7556
aI7573
aI7589
aI7605
aI7623
aI7639
aI7656
aI7673
aI7689
aI7706
aI7723
aI7739
aI7756
aI7773
aI7789
aI7806
aI7823
aI7839
aI7856
aI7873
aI7889
aI7906
aI7923
aI7939
aI7956
aI7973
aI7989
aI8006
aI8023
aI8039
aI8056
aI8073
aI8089
aI8106
aI8123
aI8139
aI8156
aI8173
aI8189
aI8206
aI8222
aI8239
aI8256
aI8273
aI8289
aI8306
aI8323
aI8339
aI8356
aI8373
aI8389
aI8406
aI8423
aI8439
aI8456
aI8472
aI8489
aI8506
aI8522
aI8539
aI8556
aI8573
aI8589
aI8606
aI8622
aI8639
aI8656
aI8673
aI8689
aI8706
aI8723
aI8739
aI8756
aI8773
aI8789
aI8806
aI8806
aI8823
aI8839
aI8857
aI8873
aI8889
aI8906
aI8923
aI8939
aI8956
aI8956
aI10211
aI10229
aI10247
asg14
(lp87
F659.4571533203125
aF657.6271362304688
aF654.26123046875
aF650.5685424804688
aF648.8038940429688
aF648.9346313476562
aF649.8169555664062
aF650.3724975585938
aF650.2417602539062
aF649.3267822265625
aF648.1829833984375
aF647.20263671875
aF646.4183349609375
aF645.5360107421875
aF644.5883178710938
aF643.5099487304688
aF642.4315185546875
aF641.3531494140625
aF640.4708251953125
aF639.7191772460938
aF638.9349365234375
aF638.150634765625
aF637.1702880859375
aF636.4186401367188
aF635.0787963867188
aF633.4122314453125
aF631.5494995117188
aF629.5234375
aF627.4320068359375
aF625.4712524414062
aF623.8699951171875
aF622.46484375
aF621.1576538085938
aF619.7525024414062
aF618.3472900390625
aF616.9747924804688
aF615.7330322265625
aF614.5565795898438
aF613.5108642578125
aF612.5304565429688
aF611.6808471679688
aF610.92919921875
aF610.4390258789062
aF610.2429809570312
aF610.1122436523438
aF609.9815673828125
aF609.2952880859375
aF607.4326171875
aF604.7529296875
aF602.3020629882812
aF600.570068359375
aF599.262939453125
aF598.15185546875
aF596.8773803710938
aF595.3087768554688
aF593.4461059570312
aF591.3219604492188
aF589.0344848632812
aF586.0606689453125
aF584.0673217773438
aF582.7601318359375
aF579.8517456054688
aF577.2374267578125
aF574.3290405273438
aF571.3225708007812
aF568.5775756835938
aF566.1920166015625
aF564.0352172851562
aF561.7803955078125
aF559.1987915039062
aF558.2837524414062
aF555.3753662109375
aF552.4996337890625
aF549.8526611328125
aF547.728515625
aF546.0618896484375
aF544.5913696289062
aF543.120849609375
aF541.8136596679688
aF540.5391845703125
aF540.016357421875
aF539.6895751953125
aF539.36279296875
aF539.134033203125
aF539.0359497070312
aF538.9379272460938
aF538.8399047851562
aF538.7418823242188
aF538.5457763671875
aF538.3170166015625
aF538.1863403320312
aF538.0883178710938
aF537.990234375
aF537.990234375
aF538.0883178710938
aF538.2843627929688
aF538.3823852539062
aF538.676513671875
aF540.016357421875
aF542.89208984375
aF594.2630615234375
aF596.9427490234375
aF597.5309448242188
aF598.2498779296875
aF599.3282470703125
aF600.7334594726562
aF601.2562866210938
aF602.8248901367188
aF604.524169921875
aF606.4522094726562
aF608.4129638671875
aF610.2102661132812
aF611.9749755859375
aF613.9356689453125
aF616.1251220703125
aF618.249267578125
aF619.8831787109375
aF621.0596313476562
aF622.43212890625
aF623.6412353515625
aF625.3732299804688
aF627.8241577148438
aF630.6671752929688
aF633.4122314453125
aF635.732421875
aF637.4970703125
aF637.9872436523438
aF639.3270874023438
aF640.8302612304688
aF642.75830078125
aF644.784423828125
aF646.4183349609375
aF647.431396484375
aF648.1176147460938
aF648.96728515625
aF650.3724975585938
aF653.182861328125
aF655.3396606445312
aF657.0062866210938
aF658.28076171875
aF659.55517578125
aF661.123779296875
aF663.1498413085938
aF665.535400390625
aF667.6921997070312
aF668.2477416992188
aF669.4241943359375
aF670.0451049804688
aF670.6659545898438
aF671.6136474609375
aF673.1495361328125
aF675.1756591796875
aF677.4304809570312
aF679.6199340820312
aF681.6787109375
aF682.332275390625
aF684.129638671875
aF685.5675048828125
aF686.3844604492188
aF686.7112426757812
aF687.0380249023438
aF687.658935546875
aF688.7046508789062
aF689.7830200195312
aF690.6654052734375
aF691.5803833007812
aF693.2796630859375
aF694.717529296875
aF695.9920043945312
aF697.0704345703125
aF698.2141723632812
aF699.5540161132812
aF701.12255859375
aF702.658447265625
aF704.031005859375
aF704.455810546875
aF705.6975708007812
aF707.0374145507812
aF708.2138671875
aF709.0635375976562
aF709.6517333984375
aF709.9458618164062
aF710.174560546875
aF710.3706665039062
aF710.4033203125
aF710.5340576171875
aF710.632080078125
aF710.664794921875
aF710.5994262695312
aF710.3052978515625
aF709.8477783203125
aF709.1615600585938
aF708.2465209960938
aF707.1354370117188
aF705.3707885742188
aF704.3577880859375
aF702.0702514648438
aF700.1422119140625
aF698.279541015625
aF696.2207641601562
aF694.8482666015625
aF693.3450317382812
aF691.4169921875
aF689.0314331054688
aF686.2537231445312
aF682.0054931640625
aF678.5089111328125
aF674.816162109375
aF671.0254516601562
aF667.0059814453125
aF662.7577514648438
aF658.5094604492188
aF654.6533813476562
aF651.3528442382812
aF648.4117431640625
aF647.4640502929688
aF644.4902954101562
aF641.1243896484375
aF637.1702880859375
aF632.59521484375
aF627.5626831054688
aF622.46484375
aF617.4323120117188
aF612.3670654296875
aF605.66796875
aF601.2236328125
aF597.6289672851562
aF595.7989501953125
aF595.04736328125
aF593.053955078125
aF590.9625244140625
aF588.5443115234375
aF586.0280151367188
aF583.773193359375
aF581.6163940429688
aF579.328857421875
aF576.9760131835938
aF574.6884765625
aF572.5643920898438
aF570.080810546875
aF568.4795532226562
aF566.9109497070312
aF565.0809326171875
aF562.9568481445312
aF560.800048828125
aF559.002685546875
aF557.6301879882812
aF556.4864501953125
aF556.0615844726562
aF554.7544555664062
aF553.3165893554688
aF552.0747680664062
aF551.29052734375
aF551.061767578125
aF551.061767578125
aF551.29052734375
aF551.6173095703125
aF551.7479858398438
aF552.401611328125
aF553.3165893554688
aF554.3623046875
aF555.6367797851562
aF557.0746459960938
aF558.77392578125
aF560.6693115234375
aF562.5973510742188
aF564.7214965820312
aF568.2507934570312
aF571.3225708007812
aF574.3616943359375
aF577.1720581054688
aF580.0477905273438
aF583.315673828125
aF587.1390991210938
aF591.3873291015625
aF595.6029052734375
aF599.4916381835938
aF603.0863037109375
aF606.55029296875
aF610.046875
aF611.2560424804688
aF615.2101440429688
aF619.4257202148438
aF623.4451904296875
aF626.9418334960938
aF629.8175659179688
aF632.3011474609375
aF634.7520141601562
aF637.5623779296875
aF640.6342163085938
aF643.67333984375
aF647.006591796875
aF649.1633911132812
aF651.6796264648438
aF655.3069458007812
aF659.9146728515625
aF664.1956176757812
aF666.9078979492188
aF667.986328125
aF668.1497192382812
aF668.182373046875
aF668.639892578125
aF669.4568481445312
aF670.6659545898438
aF672.2345581054688
aF674.1953125
aF676.5481567382812
aF679.0971069335938
aF681.2865600585938
aF683.3126831054688
aF684.7178344726562
aF686.5478515625
aF688.6719970703125
aF690.730712890625
aF692.7568359375
aF694.9136352539062
aF697.1357421875
aF699.0638427734375
aF701.0245361328125
aF702.1682739257812
aF703.2467041015625
aF704.3577880859375
aF705.5995483398438
aF706.90673828125
aF707.985107421875
aF708.7694091796875
aF709.3576049804688
aF709.8477783203125
aF710.0765380859375
aF710.174560546875
aF710.1092529296875
aF709.6843872070312
aF708.900146484375
aF707.985107421875
aF707.0374145507812
aF706.0570678710938
aF704.913330078125
aF704.1290283203125
aF703.2793579101562
aF702.266357421875
aF700.893798828125
aF699.2925415039062
aF697.6259765625
aF696.057373046875
aF694.717529296875
aF693.1162719726562
aF691.87451171875
aF690.53466796875
aF689.19482421875
aF687.8223266601562
aF686.3844604492188
aF684.8812255859375
aF683.5087280273438
aF682.364990234375
aF680.8944091796875
aF680.0447998046875
aF677.920654296875
aF676.0252685546875
aF674.1299438476562
aF672.2672119140625
aF670.2411499023438
aF667.8229370117188
aF665.0125732421875
aF662.2675170898438
aF659.9473266601562
aF659.359130859375
aF658.019287109375
aF657.2023315429688
aF656.0912475585938
aF654.065185546875
aF651.3201904296875
aF648.313720703125
aF645.0458374023438
aF641.1243896484375
aF636.9088134765625
aF635.5690307617188
aF632.399169921875
aF171.69415283203125
aF167.60931396484375
aF164.76625061035156
asg16
(lp88
F2731.326171875
aF2731.29345703125
aF2730.2802734375
aF2728.5810546875
aF2727.53515625
aF2727.6005859375
aF2728.417724609375
aF2729.365234375
aF2730.116943359375
aF2731.064697265625
aF2732.1103515625
aF2733.156005859375
aF2734.136474609375
aF2735.21484375
aF2736.358642578125
aF2737.53515625
aF2738.84228515625
aF2740.345458984375
aF2741.9794921875
aF2743.613525390625
aF2745.214599609375
aF2746.783203125
aF2748.1884765625
aF2748.972900390625
aF2750.11669921875
aF2751.162353515625
aF2752.17529296875
aF2753.1884765625
aF2754.201416015625
aF2755.083740234375
aF2755.802734375
aF2756.39111328125
aF2756.946533203125
aF2757.5673828125
aF2758.220947265625
aF2759.103271484375
aF2760.083740234375
aF2761.19482421875
aF2762.371337890625
aF2763.482421875
aF2764.462646484375
aF2765.181640625
aF2765.63916015625
aF2765.802490234375
aF2765.867919921875
aF2765.933349609375
aF2766.2275390625
aF2767.142333984375
aF2768.514892578125
aF2769.920166015625
aF2771.0966796875
aF2771.91357421875
aF2772.567138671875
aF2773.220703125
aF2774.005126953125
aF2774.822021484375
aF2775.6064453125
aF2776.3251953125
aF2777.044189453125
aF2777.436279296875
aF2777.632568359375
aF2778.024658203125
aF2778.416748046875
aF2778.7109375
aF2778.972412109375
aF2779.16845703125
aF2779.233642578125
aF2779.233642578125
aF2779.233642578125
aF2779.201171875
aF2779.201171875
aF2779.0048828125
aF2778.74365234375
aF2778.6455078125
aF2778.67822265625
aF2779.03759765625
aF2779.46240234375
aF2779.854736328125
aF2780.148681640625
aF2780.4755859375
aF2780.671630859375
aF2780.769775390625
aF2780.8349609375
aF2780.86767578125
aF2780.900390625
aF2780.93310546875
aF2780.99853515625
aF2781.031005859375
aF2781.129150390625
aF2781.194580078125
aF2781.22705078125
aF2781.259765625
aF2781.259765625
aF2781.259765625
aF2781.29248046875
aF2781.3251953125
aF2781.35791015625
aF2781.42333984375
aF2781.455810546875
aF2781.35791015625
aF2775.41015625
aF2774.201171875
aF2774.10302734375
aF2774.10302734375
aF2774.201171875
aF2774.429931640625
aF2774.52783203125
aF2774.65869140625
aF2774.65869140625
aF2774.65869140625
aF2774.65869140625
aF2774.6259765625
aF2774.560546875
aF2774.23388671875
aF2773.7109375
aF2773.31884765625
aF2773.155517578125
aF2773.25341796875
aF2773.7763671875
aF2774.1357421875
aF2774.2666015625
aF2774.23388671875
aF2774.16845703125
aF2774.23388671875
aF2774.560546875
aF2774.854736328125
aF2774.920166015625
aF2775.05078125
aF2775.08349609375
aF2775.1162109375
aF2775.312255859375
aF2775.671630859375
aF2776.06396484375
aF2776.390625
aF2776.750244140625
aF2777.20751953125
aF2778.25341796875
aF2779.201171875
aF2780.05078125
aF2780.671630859375
aF2781.096435546875
aF2781.3251953125
aF2781.42333984375
aF2781.553955078125
aF2781.78271484375
aF2781.913330078125
aF2782.27294921875
aF2782.69775390625
aF2783.18798828125
aF2783.776123046875
aF2784.52783203125
aF2785.4755859375
aF2786.586669921875
aF2787.795654296875
aF2789.102783203125
aF2789.527587890625
aF2790.900146484375
aF2792.239990234375
aF2793.579833984375
aF2795.11572265625
aF2796.9130859375
aF2798.84130859375
aF2800.5078125
aF2801.749755859375
aF2802.632080078125
aF2803.547119140625
aF2805.377197265625
aF2806.9130859375
aF2808.28564453125
aF2809.657958984375
aF2811.2919921875
aF2813.252685546875
aF2815.34423828125
aF2817.20703125
aF2818.742919921875
aF2819.200439453125
aF2820.60546875
aF2822.076171875
aF2823.4814453125
aF2824.78857421875
aF2826.06298828125
aF2827.435546875
aF2828.906005859375
aF2830.5400390625
aF2831.128173828125
aF2833.18701171875
aF2835.5400390625
aF2838.25244140625
aF2841.128173828125
aF2843.9384765625
aF2846.552978515625
aF2848.97119140625
aF2851.22607421875
aF2853.35009765625
aF2855.9970703125
aF2857.30419921875
aF2860.1474609375
aF2862.40234375
aF2864.5263671875
aF2866.977294921875
aF2868.64404296875
aF2870.245361328125
aF2871.81396484375
aF2873.57861328125
aF2875.539306640625
aF2878.4150390625
aF2880.57177734375
aF2882.696044921875
aF2884.852783203125
aF2887.04248046875
aF2889.329833984375
aF2891.584716796875
aF2893.67626953125
aF2895.37548828125
aF2896.650146484375
aF2896.976806640625
aF2897.891845703125
aF2898.67626953125
aF2899.297119140625
aF2899.623779296875
aF2899.623779296875
aF2899.264404296875
aF2898.774169921875
aF2898.447509765625
aF2898.18603515625
aF2898.21875
aF2898.54541015625
aF2898.90478515625
aF2899.068359375
aF2899.689208984375
aF2900.408203125
aF2901.2578125
aF2901.976806640625
aF2902.69580078125
aF2903.610595703125
aF2904.75439453125
aF2906.029052734375
aF2907.270751953125
aF2908.447265625
aF2909.885009765625
aF2910.99609375
aF2912.205322265625
aF2913.512451171875
aF2914.852294921875
aF2916.0615234375
aF2916.94384765625
aF2917.564697265625
aF2918.087646484375
aF2918.21826171875
aF2918.67578125
aF2919.002685546875
aF2919.19873046875
aF2919.263916015625
aF2919.263916015625
aF2919.263916015625
aF2919.427490234375
aF2919.394775390625
aF2919.362060546875
aF2918.871826171875
aF2918.15283203125
aF2917.466796875
aF2916.780517578125
aF2916.126953125
aF2915.47314453125
aF2914.819580078125
aF2914.26416015625
aF2913.7412109375
aF2913.022216796875
aF2912.597412109375
aF2912.270751953125
aF2911.878662109375
aF2911.388427734375
aF2910.73486328125
aF2910.015869140625
aF2909.3623046875
aF2908.83935546875
aF2908.545166015625
aF2908.3818359375
aF2908.251220703125
aF2908.05517578125
aF2907.98974609375
aF2907.728271484375
aF2907.401611328125
aF2907.00927734375
aF2906.780517578125
aF2906.747802734375
aF2906.780517578125
aF2907.07470703125
aF2907.56494140625
aF2908.120361328125
aF2908.806640625
aF2909.75439453125
aF2910.440673828125
aF2911.257568359375
aF2912.172607421875
aF2913.34912109375
aF2914.68896484375
aF2916.02880859375
aF2917.2705078125
aF2918.185546875
aF2919.06787109375
aF2919.68896484375
aF2920.47314453125
aF2921.257568359375
aF2922.041748046875
aF2922.72802734375
aF2923.512451171875
aF2924.362060546875
aF2925.211669921875
aF2926.35546875
aF2927.401123046875
aF2928.6103515625
aF2929.721435546875
aF2930.538330078125
aF2930.995849609375
aF2931.2900390625
aF2931.7802734375
aF2932.401123046875
aF2933.642822265625
aF2934.8193359375
aF2936.06103515625
aF2937.368408203125
aF2938.80615234375
aF2940.374755859375
aF2942.0087890625
aF2943.87158203125
aF2945.962890625
aF2949.03466796875
aF2951.42041015625
aF2953.96923828125
aF2956.7470703125
aF2959.9169921875
aF2963.47900390625
aF2967.07373046875
aF2970.472412109375
aF2973.544189453125
aF2976.91015625
aF2978.6748046875
aF2980.04736328125
aF2981.38720703125
aF2982.79248046875
aF2984.3935546875
aF2986.125732421875
aF2988.02099609375
aF2989.91650390625
aF2992.334716796875
aF2994.197509765625
aF2996.19091796875
aF2998.24951171875
aF3000.275634765625
aF3002.3671875
aF3004.58935546875
aF3006.77880859375
aF3008.903076171875
aF3011.648193359375
aF3012.922607421875
aF3015.112060546875
aF3016.484619140625
aF3017.791748046875
aF3019.0009765625
aF3020.275390625
aF3021.6806640625
aF3023.085693359375
aF3024.490966796875
aF3025.928955078125
aF3026.419189453125
aF3027.595458984375
aF3028.28173828125
aF3028.510498046875
aF3028.575927734375
aF3028.575927734375
aF3028.575927734375
aF3028.608642578125
aF3028.77197265625
aF3028.8046875
aF3028.8046875
aF3028.543212890625
aF2897.6630859375
aF2896.22509765625
aF2894.55859375
assg18
(lp89
ssg14
(dp90
g3
I5
sg4
(dp91
g6
(lp92
I-6
aI-6
aI-6
aI-6
aI-5
aI-5
aI-5
aI-5
aI-5
aI-5
aI-5
aI-5
aI-5
aI-5
aI-5
aI-5
aI-6
aI-6
aI-7
aI-7
aI-8
aI-8
aI-8
aI-8
aI-8
aI-8
aI-9
aI-9
aI-9
aI-9
aI-10
aI-10
aI-11
aI-11
aI-11
aI-11
aI-11
aI-11
aI-11
aI-11
aI-11
aI-12
aI-12
aI-12
aI-12
aI-12
aI-12
aI-12
aI-12
aI-12
aI-12
aI-13
aI-13
aI-13
aI-13
aI-13
aI-13
aI-13
aI-13
aI-13
aI-13
aI-13
aI-13
aI-13
aI-13
aI-13
aI-13
aI-13
aI-13
aI-13
aI-13
aI-13
aI-13
aI-13
aI-13
aI-14
aI-14
aI-14
aI-14
aI-14
aI-15
aI-15
aI-15
aI-15
aI-15
aI-15
aI-16
aI-16
aI-16
aI-16
aI-16
aI-16
aI-16
aI-16
aI-16
aI-16
aI-17
aI-17
aI-17
aI-18
aI-18
aI-18
aI-18
aI-18
aI-18
aI-18
aI-18
aI-19
aI-19
aI-19
aI-19
aI-18
aI-18
aI-18
aI-17
aI-17
aI-17
aI-17
aI-16
aI-16
aI-16
aI-15
aI-15
aI-15
aI-15
aI-15
aI-15
aI-14
aI-14
aI-14
aI-13
aI-13
aI-13
aI-13
aI-13
aI-13
aI-13
aI-12
aI-12
aI-12
aI-12
aI-12
aI-12
aI-11
aI-11
aI-11
aI-11
aI-10
aI-10
aI-10
aI-10
aI-10
aI-10
aI-10
aI-10
aI-10
aI-10
aI-10
aI-10
aI-10
aI-10
aI-10
aI-10
aI-10
aI-10
aI-10
aI-10
aI-10
aI-10
aI-10
aI-10
aI-10
aI-10
aI-9
aI-9
aI-9
aI-9
aI-9
aI-9
aI-9
aI-9
aI-9
aI-9
aI-9
aI-9
aI-9
aI-9
aI-9
aI-9
aI-9
aI-9
aI-9
aI-9
aI-18
aI-18
aI-17
aI-17
aI-16
aI-15
aI-15
aI-14
aI-13
aI-12
aI-12
aI-11
aI-11
aI-10
aI-9
aI-9
aI-8
aI-7
aI-7
aI-6
aI-6
aI-6
aI-6
aI-5
aI-5
aI-5
aI-5
aI-4
aI-4
aI-4
aI-4
aI-4
aI-4
aI-4
aI-4
aI-4
aI-4
aI-4
aI-4
aI-5
aI-5
aI-6
aI-6
aI-7
aI-7
aI-7
aI-7
aI-8
aI-9
aI-10
aI-10
aI-10
aI-11
aI-11
aI-11
aI-11
aI-12
aI-12
aI-12
aI-12
aI-12
aI-12
aI-13
aI-13
aI-13
aI-14
aI-14
aI-14
aI-14
aI-14
aI-14
aI-14
aI-14
aI-15
aI-15
aI-15
aI-15
aI-15
aI-15
aI-15
aI-15
aI-15
aI-15
aI-15
aI-15
aI-14
aI-14
aI-14
aI-14
aI-14
aI-14
aI-14
aI-14
aI-14
aI-14
aI-14
aI-14
aI-14
aI-14
aI-14
aI-14
aI-14
aI-14
aI-14
aI-14
aI-14
aI-14
aI-14
aI-14
aI-14
aI-14
aI-14
aI-13
aI-13
aI-13
aI-13
aI-12
aI-12
aI-12
aI-12
aI-12
aI-11
aI-11
aI-11
aI-11
aI-11
aI-11
aI-11
aI-11
aI-11
aI-11
aI-11
aI-11
aI-11
aI-11
aI-11
aI-11
aI-11
aI-11
aI-11
aI-11
aI-11
aI-11
aI-11
aI-11
aI-11
aI-11
aI-11
aI-11
aI-11
aI-11
aI-11
aI-11
aI-11
aI-11
aI-11
aI-11
aI-11
aI-11
aI-11
aI-12
aI-12
aI-13
aI-14
aI-14
aI-14
aI-14
aI-14
aI-14
aI-14
aI-14
aI-14
aI-14
aI-14
asg8
(lp93
F0.2021484375
aF0.287109375
aF0.328125
aF0.35888671875
aF0.38525390625
aF0.40283203125
aF0.4111328125
aF0.4150390625
aF0.4169921875
aF0.423828125
aF0.427734375
aF0.439453125
aF0.45263671875
aF0.45703125
aF0.4619140625
aF0.4677734375
aF0.47314453125
aF0.478515625
aF0.482421875
aF0.490234375
aF0.5068359375
aF0.51025390625
aF0.5126953125
aF0.5146484375
aF0.51953125
aF0.5244140625
aF0.52685546875
aF0.52734375
aF0.529296875
aF0.53466796875
aF0.5419921875
aF0.552734375
aF0.5576171875
aF0.5595703125
aF0.5625
aF0.56298828125
aF0.5634765625
aF0.56396484375
aF0.56591796875
aF0.568359375
aF0.5703125
aF0.56884765625
aF0.56689453125
aF0.56640625
aF0.568359375
aF0.57275390625
aF0.5732421875
aF0.5732421875
aF0.57373046875
aF0.57470703125
aF0.5751953125
aF0.5751953125
aF0.5771484375
aF0.5771484375
aF0.5771484375
aF0.5791015625
aF0.580078125
aF0.58056640625
aF0.57958984375
aF0.580078125
aF0.5810546875
aF0.57958984375
aF0.576171875
aF0.57373046875
aF0.57421875
aF0.5732421875
aF0.568359375
aF0.56494140625
aF0.5615234375
aF0.5595703125
aF0.55517578125
aF0.55419921875
aF0.55224609375
aF0.5498046875
aF0.5498046875
aF0.546875
aF0.5419921875
aF0.5380859375
aF0.53466796875
aF0.53125
aF0.53173828125
aF0.53125
aF0.52880859375
aF0.52880859375
aF0.52978515625
aF0.53076171875
aF0.53271484375
aF0.53271484375
aF0.53662109375
aF0.537109375
aF0.5361328125
aF0.53076171875
aF0.529296875
aF0.53369140625
aF0.537109375
aF0.5390625
aF0.53955078125
aF0.5419921875
aF0.54345703125
aF0.5419921875
aF0.54150390625
aF0.53955078125
aF0.53955078125
aF0.54150390625
aF0.544921875
aF0.54931640625
aF0.55322265625
aF0.5576171875
aF0.5615234375
aF0.5625
aF0.5634765625
aF0.56396484375
aF0.56591796875
aF0.56494140625
aF0.564453125
aF0.564453125
aF0.5634765625
aF0.5654296875
aF0.56640625
aF0.56689453125
aF0.56884765625
aF0.5712890625
aF0.5732421875
aF0.576171875
aF0.57861328125
aF0.58154296875
aF0.58154296875
aF0.57958984375
aF0.57763671875
aF0.57568359375
aF0.5751953125
aF0.57373046875
aF0.5732421875
aF0.5732421875
aF0.57470703125
aF0.57470703125
aF0.5732421875
aF0.57275390625
aF0.5673828125
aF0.5673828125
aF0.5693359375
aF0.57373046875
aF0.57958984375
aF0.57958984375
aF0.580078125
aF0.578125
aF0.57568359375
aF0.572265625
aF0.568359375
aF0.56787109375
aF0.56982421875
aF0.5751953125
aF0.578125
aF0.5791015625
aF0.5791015625
aF0.58056640625
aF0.57421875
aF0.57421875
aF0.572265625
aF0.5693359375
aF0.5673828125
aF0.5654296875
aF0.5654296875
aF0.5654296875
aF0.5654296875
aF0.56396484375
aF0.5615234375
aF0.56103515625
aF0.56298828125
aF0.56494140625
aF0.564453125
aF0.5625
aF0.5576171875
aF0.5498046875
aF0.54443359375
aF0.5400390625
aF0.53857421875
aF0.53857421875
aF0.53955078125
aF0.54248046875
aF0.54443359375
aF0.54736328125
aF0.54736328125
aF0.5400390625
aF0.5166015625
aF0.49755859375
aF0.47216796875
aF0.4345703125
aF0.3798828125
aF0.29296875
aF0.21142578125
aF0.1357421875
aF0.009765625
aF0.25
aF0.2373046875
aF0.3017578125
aF0.3447265625
aF0.3681640625
aF0.3798828125
aF0.39453125
aF0.412109375
aF0.43212890625
aF0.4462890625
aF0.45703125
aF0.466796875
aF0.474609375
aF0.484375
aF0.486328125
aF0.4892578125
aF0.49169921875
aF0.4921875
aF0.49267578125
aF0.4921875
aF0.48486328125
aF0.484375
aF0.478515625
aF0.47705078125
aF0.47509765625
aF0.47314453125
aF0.4658203125
aF0.4599609375
aF0.45458984375
aF0.43701171875
aF0.42626953125
aF0.42138671875
aF0.42041015625
aF0.4091796875
aF0.40576171875
aF0.40869140625
aF0.4111328125
aF0.42041015625
aF0.42431640625
aF0.4228515625
aF0.42431640625
aF0.43310546875
aF0.43310546875
aF0.43505859375
aF0.43798828125
aF0.439453125
aF0.44189453125
aF0.44482421875
aF0.44970703125
aF0.4521484375
aF0.4521484375
aF0.4521484375
aF0.4521484375
aF0.4501953125
aF0.45068359375
aF0.45166015625
aF0.451171875
aF0.45068359375
aF0.451171875
aF0.455078125
aF0.4609375
aF0.46484375
aF0.46728515625
aF0.470703125
aF0.47119140625
aF0.470703125
aF0.46826171875
aF0.46728515625
aF0.46728515625
aF0.46875
aF0.46875
aF0.4716796875
aF0.4775390625
aF0.47998046875
aF0.4833984375
aF0.48388671875
aF0.484375
aF0.484375
aF0.48388671875
aF0.48388671875
aF0.48388671875
aF0.48388671875
aF0.484375
aF0.484375
aF0.48388671875
aF0.484375
aF0.484375
aF0.4853515625
aF0.48583984375
aF0.48583984375
aF0.48828125
aF0.4912109375
aF0.49169921875
aF0.4921875
aF0.4921875
aF0.4921875
aF0.49169921875
aF0.49169921875
aF0.4912109375
aF0.490234375
aF0.48876953125
aF0.4892578125
aF0.4912109375
aF0.4921875
aF0.4921875
aF0.49169921875
aF0.49072265625
aF0.48876953125
aF0.48681640625
aF0.48583984375
aF0.48486328125
aF0.48095703125
aF0.47705078125
aF0.47314453125
aF0.47119140625
aF0.47216796875
aF0.47705078125
aF0.47998046875
aF0.48095703125
aF0.48095703125
aF0.47607421875
aF0.4638671875
aF0.45947265625
aF0.46142578125
aF0.46240234375
aF0.46044921875
aF0.45849609375
aF0.45751953125
aF0.45703125
aF0.45751953125
aF0.455078125
aF0.4541015625
aF0.45654296875
aF0.455078125
aF0.45068359375
aF0.44921875
aF0.4482421875
aF0.4482421875
aF0.44873046875
aF0.4501953125
aF0.45068359375
aF0.45263671875
aF0.45458984375
aF0.455078125
aF0.45556640625
aF0.45751953125
aF0.46142578125
aF0.46630859375
aF0.4736328125
aF0.48046875
aF0.4873046875
aF0.49267578125
aF0.49853515625
aF0.4990234375
aF0.49951171875
aF0.49951171875
aF0.49951171875
aF0.5
aF0.501953125
aF0.50244140625
aF0.501953125
aF0.50146484375
aF0.5009765625
aF0.5009765625
aF0.501953125
aF0.501953125
aF0.49658203125
aF0.47705078125
aF0.4560546875
aF0.4462890625
aF0.431640625
aF0.376953125
aF0.1708984375
aF0.00830078125
asg10
(lp94
I-23
aI-23
aI-23
aI-23
aI-23
aI-24
aI-24
aI-24
aI-24
aI-24
aI-24
aI-24
aI-24
aI-23
aI-23
aI-23
aI-23
aI-22
aI-22
aI-21
aI-21
aI-21
aI-20
aI-20
aI-20
aI-20
aI-20
aI-20
aI-20
aI-20
aI-19
aI-19
aI-19
aI-18
aI-18
aI-18
aI-17
aI-17
aI-16
aI-16
aI-16
aI-16
aI-15
aI-14
aI-13
aI-13
aI-13
aI-13
aI-13
aI-12
aI-12
aI-11
aI-11
aI-10
aI-10
aI-10
aI-10
aI-10
aI-10
aI-9
aI-9
aI-9
aI-8
aI-8
aI-8
aI-8
aI-8
aI-8
aI-8
aI-7
aI-7
aI-7
aI-7
aI-7
aI-7
aI-7
aI-7
aI-7
aI-7
aI-6
aI-6
aI-6
aI-6
aI-6
aI-5
aI-5
aI-5
aI-5
aI-5
aI-5
aI-5
aI-5
aI-5
aI-5
aI-5
aI-5
aI-5
aI-5
aI-5
aI-5
aI-5
aI-5
aI-5
aI-6
aI-7
aI-7
aI-8
aI-8
aI-8
aI-9
aI-10
aI-10
aI-11
aI-11
aI-11
aI-11
aI-11
aI-12
aI-12
aI-12
aI-13
aI-13
aI-13
aI-14
aI-14
aI-14
aI-15
aI-15
aI-16
aI-16
aI-16
aI-16
aI-17
aI-17
aI-17
aI-17
aI-17
aI-17
aI-17
aI-17
aI-17
aI-17
aI-17
aI-17
aI-18
aI-18
aI-18
aI-18
aI-18
aI-19
aI-19
aI-19
aI-19
aI-19
aI-19
aI-19
aI-19
aI-19
aI-19
aI-19
aI-19
aI-19
aI-19
aI-19
aI-19
aI-19
aI-19
aI-19
aI-19
aI-19
aI-19
aI-19
aI-19
aI-19
aI-19
aI-20
aI-20
aI-20
aI-20
aI-20
aI-20
aI-20
aI-20
aI-20
aI-20
aI-20
aI-20
aI-20
aI-20
aI-20
aI-20
aI-20
aI-21
aI-23
aI-23
aI-23
aI-23
aI-23
aI-23
aI-23
aI-23
aI-23
aI-23
aI-23
aI-23
aI-23
aI-23
aI-23
aI-23
aI-23
aI-23
aI-23
aI-23
aI-23
aI-23
aI-23
aI-24
aI-24
aI-24
aI-24
aI-24
aI-24
aI-24
aI-24
aI-24
aI-24
aI-24
aI-24
aI-24
aI-24
aI-24
aI-24
aI-24
aI-24
aI-24
aI-24
aI-24
aI-24
aI-24
aI-24
aI-24
aI-24
aI-24
aI-24
aI-24
aI-23
aI-23
aI-23
aI-23
aI-23
aI-23
aI-23
aI-22
aI-22
aI-22
aI-21
aI-21
aI-21
aI-20
aI-20
aI-19
aI-19
aI-19
aI-19
aI-19
aI-19
aI-19
aI-19
aI-19
aI-19
aI-19
aI-19
aI-19
aI-18
aI-18
aI-18
aI-18
aI-18
aI-18
aI-18
aI-18
aI-18
aI-18
aI-18
aI-18
aI-18
aI-18
aI-18
aI-18
aI-18
aI-18
aI-18
aI-18
aI-18
aI-18
aI-18
aI-18
aI-17
aI-17
aI-17
aI-17
aI-17
aI-17
aI-17
aI-17
aI-17
aI-17
aI-17
aI-17
aI-17
aI-17
aI-17
aI-17
aI-17
aI-17
aI-18
aI-18
aI-18
aI-18
aI-18
aI-19
aI-19
aI-19
aI-19
aI-19
aI-19
aI-19
aI-19
aI-19
aI-18
aI-18
aI-18
aI-18
aI-18
aI-18
aI-18
aI-17
aI-17
aI-16
aI-16
aI-15
aI-15
aI-15
aI-15
aI-15
aI-14
aI-14
aI-14
aI-14
aI-13
aI-13
aI-13
aI-13
aI-13
aI-12
aI-12
aI-12
aI-12
aI-12
aI-12
aI-12
aI-12
aI-12
aI-12
aI-12
aI-12
aI-12
asg12
(lp95
I2259
aI2278
aI2296
aI2312
aI2329
aI2345
aI2361
aI2378
aI2395
aI2395
aI2411
aI2428
aI2445
aI2461
aI2478
aI2494
aI2511
aI2529
aI2545
aI2562
aI2578
aI2595
aI2612
aI2628
aI2646
aI2663
aI2679
aI2695
aI2711
aI2728
aI2745
aI2761
aI2778
aI2795
aI2811
aI2828
aI2845
aI2861
aI2878
aI2895
aI2911
aI2928
aI2945
aI2961
aI2978
aI2995
aI3012
aI3028
aI3045
aI3061
aI3078
aI3095
aI3111
aI3129
aI3145
aI3161
aI3178
aI3195
aI3211
aI3228
aI3245
aI3261
aI3279
aI3295
aI3311
aI3329
aI3345
aI3362
aI3378
aI3395
aI3411
aI3429
aI3445
aI3461
aI3478
aI3495
aI3511
aI3528
aI3545
aI3561
aI3578
aI3595
aI3612
aI3628
aI3645
aI3661
aI3678
aI3695
aI3711
aI3728
aI3745
aI3761
aI3778
aI3795
aI3811
aI3828
aI3845
aI3861
aI3878
aI3895
aI3912
aI3928
aI3945
aI3961
aI3978
aI3995
aI4011
aI4028
aI4045
aI4062
aI4078
aI4095
aI4111
aI4128
aI4145
aI4162
aI4178
aI4195
aI4212
aI4228
aI4245
aI4262
aI4278
aI4295
aI4311
aI4328
aI4345
aI4362
aI4378
aI4395
aI4412
aI4428
aI4445
aI4462
aI4478
aI4495
aI4512
aI4528
aI4545
aI4562
aI4578
aI4595
aI4612
aI4628
aI4645
aI4662
aI4678
aI4695
aI4712
aI4728
aI4745
aI4761
aI4778
aI4795
aI4812
aI4812
aI4828
aI4845
aI4861
aI4878
aI4895
aI4912
aI4928
aI4945
aI4961
aI4962
aI4978
aI4995
aI5011
aI5028
aI5045
aI5061
aI5078
aI5095
aI5112
aI5128
aI5145
aI5162
aI5179
aI5195
aI5211
aI5228
aI5244
aI5261
aI5279
aI5295
aI5312
aI5328
aI5345
aI5362
aI5379
aI5395
aI5412
aI6029
aI6049
aI6068
aI6085
aI6102
aI6118
aI6134
aI6150
aI6166
aI6182
aI6198
aI6215
aI6231
aI6247
aI6263
aI6279
aI6295
aI6311
aI6328
aI6345
aI6361
aI6378
aI6378
aI6394
aI6411
aI6428
aI6445
aI6461
aI6478
aI6495
aI6511
aI6528
aI6544
aI6561
aI6578
aI6594
aI6611
aI6628
aI6644
aI6661
aI6678
aI6678
aI6694
aI6711
aI6728
aI6745
aI6761
aI6778
aI6795
aI6811
aI6828
aI6828
aI6845
aI6861
aI6878
aI6894
aI6911
aI6928
aI6944
aI6961
aI6978
aI6994
aI7011
aI7028
aI7044
aI7061
aI7078
aI7094
aI7111
aI7127
aI7127
aI7144
aI7144
aI7161
aI7178
aI7194
aI7211
aI7228
aI7245
aI7261
aI7278
aI7278
aI7294
aI7311
aI7328
aI7344
aI7361
aI7378
aI7395
aI7411
aI7428
aI7445
aI7461
aI7478
aI7494
aI7511
aI7528
aI7545
aI7560
aI7577
aI7594
aI7611
aI7611
aI7628
aI7644
aI7661
aI7678
aI7695
aI7711
aI7728
aI7745
aI7761
aI7778
aI7794
aI7811
aI7828
aI7844
aI7861
aI7878
aI7894
aI7895
aI7911
aI7928
aI7944
aI7960
aI7975
aI7990
aI8004
aI8019
aI8034
aI8049
aI8064
aI8079
aI8093
aI8108
aI8124
aI8139
aI8154
aI8169
aI8184
aI8198
aI8213
aI8227
aI8243
aI8258
aI8274
aI8289
aI8304
aI8319
aI8333
aI8348
aI8363
aI8378
aI8393
aI8409
aI8424
aI8439
aI8454
aI8469
aI8483
aI8498
aI8513
aI8527
aI8543
aI8558
aI8574
aI8589
aI8604
aI8618
aI8633
aI8633
aI8648
aI8662
aI8677
asg14
(lp96
F556.6824951171875
aF556.3230590820312
aF556.0289306640625
aF555.8328247070312
aF555.7348022460938
aF555.6367797851562
aF555.6367797851562
aF555.8655395507812
aF556.0615844726562
aF556.8458862304688
aF557.7609252929688
aF558.577880859375
aF559.460205078125
aF560.6693115234375
aF562.1725463867188
aF563.8064575195312
aF565.6691284179688
aF568.7736206054688
aF571.6493530273438
aF574.917236328125
aF578.2177734375
aF581.0281982421875
aF583.315673828125
aF585.30908203125
aF588.0214233398438
aF590.2108764648438
aF592.5637817382812
aF594.9493408203125
aF597.23681640625
aF599.3936157226562
aF601.5177612304688
aF603.8052368164062
aF606.3869018554688
aF609.197265625
aF612.040283203125
aF615.7330322265625
aF618.2819213867188
aF620.6348266601562
aF622.9876708984375
aF625.5039672851562
aF628.3143310546875
aF631.3534545898438
aF634.2945556640625
aF636.9741821289062
aF640.3074340820312
aF642.8890380859375
aF645.5360107421875
aF648.2156982421875
aF651.15673828125
aF654.5880126953125
aF658.3787841796875
aF662.1694946289062
aF665.76416015625
aF669.947021484375
aF672.5613403320312
aF675.0122680664062
aF677.5612182617188
aF680.3062133789062
aF683.0185546875
aF685.5675048828125
aF687.7896728515625
aF689.7830200195312
aF692.4627075195312
aF694.6195068359375
aF696.8743286132812
aF699.0311279296875
aF700.926513671875
aF702.6257934570312
aF704.6192016601562
aF707.2335205078125
aF710.3380126953125
aF715.0110473632812
aF718.8998413085938
aF722.9193115234375
aF726.6119995117188
aF729.455078125
aF731.3831176757812
aF733.0170288085938
aF735.3045654296875
aF738.5397338867188
aF742.3958129882812
aF746.4806518554688
aF751.8399658203125
aF755.6307373046875
aF759.1273803710938
aF762.4279174804688
aF765.5324096679688
aF768.2774047851562
aF770.4015502929688
aF771.8720703125
aF773.0158081054688
aF774.5516967773438
aF775.9242553710938
aF777.4927978515625
aF779.38818359375
aF782.0678100585938
aF785.4010620117188
aF788.7996826171875
aF791.6100463867188
aF793.6688232421875
aF795.498779296875
aF796.2830810546875
aF796.60986328125
aF796.60986328125
aF796.1524047851562
aF795.2047119140625
aF793.99560546875
aF792.3943481445312
aF790.204833984375
aF786.218017578125
aF782.6233520507812
aF778.8980102539062
aF775.2379760742188
aF771.6106567382812
aF767.9506225585938
aF764.159912109375
aF760.0750122070312
aF755.7941284179688
aF750.2387084960938
aF746.0558471679688
aF741.611572265625
aF737.1018676757812
aF732.6248779296875
aF728.2132568359375
aF723.70361328125
aF718.9324951171875
aF713.7692260742188
aF706.220458984375
aF700.4036254882812
aF694.8155517578125
aF689.7177124023438
aF685.3387451171875
aF681.5480346679688
aF678.0186767578125
aF674.2279663085938
aF669.8489990234375
aF662.6270141601562
aF656.254638671875
aF649.6862182617188
aF643.67333984375
aF638.7388305664062
aF634.6539916992188
aF630.86328125
aF626.8110961914062
aF622.3994750976562
aF616.3212280273438
aF611.7462158203125
aF607.0731201171875
aF602.3020629882812
aF597.9557495117188
aF594.9493408203125
aF593.478759765625
aF592.7271728515625
aF591.5507202148438
aF590.9298095703125
aF588.0214233398438
aF583.9039306640625
aF579.5249633789062
aF575.832275390625
aF573.152587890625
aF571.2572021484375
aF569.9827270507812
aF569.198486328125
aF568.6755981445312
aF568.5448608398438
aF568.2507934570312
aF567.401123046875
aF566.518798828125
aF565.4404296875
aF564.296630859375
aF563.2509155273438
aF562.4993286132812
aF561.9437866210938
aF561.5189819335938
aF560.8980712890625
aF559.65625
aF558.577880859375
aF557.7935791015625
aF557.4014282226562
aF557.3034057617188
aF557.3034057617188
aF557.3034057617188
aF557.2053833007812
aF557.2053833007812
aF557.2053833007812
aF557.2053833007812
aF557.2053833007812
aF556.8786010742188
aF555.1792602539062
aF553.283935546875
aF551.7479858398438
aF550.9310302734375
aF550.146728515625
aF591.9102172851562
aF591.4199829101562
aF588.7730102539062
aF584.5901489257812
aF579.2962036132812
aF573.577392578125
aF567.5972290039062
aF561.3555908203125
aF554.9505004882812
aF548.6762084960938
aF542.7613525390625
aF537.4346923828125
aF532.72900390625
aF528.5460815429688
aF524.5592651367188
aF520.6378173828125
aF516.8797607421875
aF513.5138549804688
aF510.76885986328125
aF508.54669189453125
aF506.5206298828125
aF505.8343811035156
aF503.57952880859375
aF501.095947265625
aF498.61236572265625
aF496.2594909667969
aF494.07000732421875
aF492.4034118652344
aF491.5210876464844
aF491.2923278808594
aF491.2923278808594
aF491.3903503417969
aF491.7171325683594
aF492.5994873046875
aF494.7236022949219
aF498.1875305175781
aF502.3050537109375
aF506.5206298828125
aF510.8015441894531
aF515.3438720703125
aF516.9124755859375
aF521.7816162109375
aF526.9775390625
aF532.5328979492188
aF538.3170166015625
aF544.19921875
aF550.2774658203125
aF556.6498413085938
aF562.8587646484375
aF567.9566650390625
aF569.3618774414062
aF572.8584594726562
aF575.7341918945312
aF578.5119018554688
aF581.322265625
aF584.2960205078125
aF587.2044677734375
aF589.8187255859375
aF591.9102172851562
aF594.2630615234375
aF595.9296875
aF597.5963134765625
aF599.2955932617188
aF601.0602416992188
aF602.8576049804688
aF604.556884765625
aF605.864013671875
aF606.4195556640625
aF606.55029296875
aF606.517578125
aF606.4849243164062
aF606.4195556640625
aF606.2561645507812
aF606.0601196289062
aF605.8313598632812
aF605.5698852539062
aF605.1777954101562
aF604.5895385742188
aF603.7399291992188
aF602.4327392578125
aF601.877197265625
aF599.4916381835938
aF596.0930786132812
aF592.138916015625
aF588.3155517578125
aF585.080322265625
aF582.2373046875
aF579.4269409179688
aF576.5838623046875
aF573.9368896484375
aF571.8781127929688
aF570.1788330078125
aF569.3618774414062
aF568.316162109375
aF566.7149047851562
aF564.4600219726562
aF561.7803955078125
aF558.8719482421875
aF556.0615844726562
aF553.47998046875
aF551.4212036132812
aF550.8656616210938
aF549.6892700195312
aF549.03564453125
aF548.4801635742188
aF547.7938842773438
aF546.8135375976562
aF545.4083251953125
aF543.4802856445312
aF541.0293579101562
aF537.0426025390625
aF533.5459594726562
aF529.7879028320312
aF525.9644775390625
aF522.2390747070312
aF518.9058837890625
aF516.35693359375
aF514.4288940429688
aF512.4027709960938
aF511.5858154296875
aF508.44866943359375
aF504.5599060058594
aF500.7364807128906
aF497.73004150390625
aF495.5405578613281
aF493.80859375
aF492.8282165527344
aF491.6844787597656
aF490.9655456542969
aF490.5733947753906
aF490.3773193359375
aF490.1158752441406
aF489.9524841308594
aF489.7237548828125
aF489.6257019042969
aF489.56036376953125
aF489.4949951171875
aF489.4949951171875
aF489.9524841308594
aF490.8021545410156
aF491.357666015625
aF492.2726745605469
aF493.18768310546875
aF494.2333984375
aF494.919677734375
aF495.73663330078125
aF496.226806640625
aF496.3248596191406
aF496.39019775390625
aF496.4882507324219
aF496.94573974609375
aF497.73004150390625
aF498.9064636230469
aF500.6384582519531
aF502.0763244628906
aF504.7232971191406
aF507.8604431152344
aF511.42242431640625
aF515.4092407226562
aF518.2523193359375
aF522.4351806640625
aF526.4219970703125
aF530.2127075195312
aF532.8596801757812
aF536.7484741210938
aF540.1143798828125
aF542.3038330078125
aF543.120849609375
aF543.2188720703125
aF543.2188720703125
aF543.120849609375
aF542.5979614257812
aF541.4215087890625
aF540.1143798828125
asg16
(lp97
F2974.98193359375
aF2975.733642578125
aF2976.3544921875
aF2976.648681640625
aF2976.714111328125
aF2976.746826171875
aF2976.4853515625
aF2976.02783203125
aF2975.668212890625
aF2974.001708984375
aF2971.55078125
aF2968.8056640625
aF2965.929931640625
aF2962.858154296875
aF2959.720947265625
aF2956.681640625
aF2953.773193359375
aF2949.982421875
aF2947.2373046875
aF2944.72119140625
aF2942.596923828125
aF2940.832275390625
aF2939.23095703125
aF2937.4990234375
aF2934.75390625
aF2932.433837890625
aF2930.113525390625
aF2927.858642578125
aF2925.603759765625
aF2923.28369140625
aF2920.865234375
aF2918.2509765625
aF2915.505859375
aF2912.79345703125
aF2910.27734375
aF2907.466796875
aF2905.73486328125
aF2904.166259765625
aF2902.63037109375
aF2901.061767578125
aF2899.39501953125
aF2897.63037109375
aF2895.8330078125
aF2893.905029296875
aF2891.127197265625
aF2888.905029296875
aF2886.682861328125
aF2884.558837890625
aF2882.238525390625
aF2879.526123046875
aF2876.5849609375
aF2873.676513671875
aF2871.094970703125
aF2868.21923828125
aF2866.519775390625
aF2865.04931640625
aF2863.70947265625
aF2862.40234375
aF2861.225830078125
aF2860.1474609375
aF2859.2978515625
aF2858.546142578125
aF2857.631103515625
aF2856.94482421875
aF2856.389404296875
aF2856.02978515625
aF2855.833740234375
aF2855.801025390625
aF2855.801025390625
aF2855.768310546875
aF2855.735595703125
aF2855.735595703125
aF2855.899169921875
aF2856.356689453125
aF2856.814208984375
aF2857.173583984375
aF2857.50048828125
aF2857.8271484375
aF2858.3173828125
aF2859.003662109375
aF2859.98388671875
aF2861.127685546875
aF2862.76171875
aF2863.970947265625
aF2865.11474609375
aF2866.127685546875
aF2867.010009765625
aF2867.76171875
aF2868.382568359375
aF2868.970703125
aF2869.689697265625
aF2870.80078125
aF2871.81396484375
aF2873.08837890625
aF2874.722412109375
aF2876.911865234375
aF2879.526123046875
aF2882.173095703125
aF2884.59130859375
aF2886.682861328125
aF2889.329833984375
aF2891.4541015625
aF2893.774169921875
aF2896.192626953125
aF2898.741455078125
aF2901.453857421875
aF2904.231689453125
aF2907.07470703125
aF2910.146484375
aF2914.492919921875
aF2917.695556640625
aF2920.53857421875
aF2923.022216796875
aF2925.04833984375
aF2926.71484375
aF2928.185546875
aF2929.525390625
aF2930.70166015625
aF2932.04150390625
aF2932.95654296875
aF2933.904296875
aF2934.982666015625
aF2936.19189453125
aF2937.368408203125
aF2938.44677734375
aF2939.492431640625
aF2940.63623046875
aF2942.302978515625
aF2943.3486328125
aF2944.034912109375
aF2944.328857421875
aF2944.29638671875
aF2943.969482421875
aF2943.446533203125
aF2942.76025390625
aF2942.0087890625
aF2941.12646484375
aF2940.6689453125
aF2940.244140625
aF2939.78662109375
aF2939.36181640625
aF2939.29638671875
aF2939.75390625
aF2940.6689453125
aF2941.747314453125
aF2942.923828125
aF2943.479248046875
aF2943.642822265625
aF2943.3486328125
aF2942.4990234375
aF2941.649169921875
aF2941.09375
aF2940.832275390625
aF2940.440185546875
aF2940.244140625
aF2939.29638671875
aF2937.923828125
aF2936.224609375
aF2934.557861328125
aF2933.185302734375
aF2932.1396484375
aF2931.420654296875
aF2930.995849609375
aF2930.669189453125
aF2930.603759765625
aF2930.505615234375
aF2930.27685546875
aF2930.080810546875
aF2929.91748046875
aF2929.884765625
aF2929.9501953125
aF2930.113525390625
aF2930.244140625
aF2930.3095703125
aF2930.34228515625
aF2930.3095703125
aF2930.244140625
aF2930.113525390625
aF2930.015380859375
aF2930.015380859375
aF2930.015380859375
aF2930.015380859375
aF2930.015380859375
aF2930.015380859375
aF2930.015380859375
aF2930.015380859375
aF2930.015380859375
aF2929.98291015625
aF2929.754150390625
aF2929.4599609375
aF2929.133056640625
aF2929.00244140625
aF2929.329345703125
aF2931.6494140625
aF2932.17236328125
aF2932.59716796875
aF2932.793212890625
aF2932.564453125
aF2931.878173828125
aF2930.930419921875
aF2929.91748046875
aF2929.198486328125
aF2928.904296875
aF2929.06787109375
aF2929.85205078125
aF2930.865234375
aF2932.04150390625
aF2933.316162109375
aF2934.688720703125
aF2935.995849609375
aF2937.172119140625
aF2938.218017578125
aF2939.1982421875
aF2940.08056640625
aF2940.309326171875
aF2940.963134765625
aF2941.42041015625
aF2941.714599609375
aF2942.172119140625
aF2942.727783203125
aF2943.31591796875
aF2943.610107421875
aF2943.74072265625
aF2943.74072265625
aF2943.74072265625
aF2943.74072265625
aF2943.74072265625
aF2943.904052734375
aF2944.459716796875
aF2945.243896484375
aF2946.09375
aF2946.84521484375
aF2947.662353515625
aF2947.923583984375
aF2948.67529296875
aF2949.263427734375
aF2949.4921875
aF2949.459716796875
aF2948.936767578125
aF2947.923583984375
aF2946.616455078125
aF2945.14599609375
aF2943.7734375
aF2943.3486328125
aF2942.04150390625
aF2940.472900390625
aF2938.4794921875
aF2935.897705078125
aF2932.858642578125
aF2929.590576171875
aF2926.2900390625
aF2923.15283203125
aF2919.035400390625
aF2915.898193359375
aF2912.662841796875
aF2909.460205078125
aF2906.355712890625
aF2903.283935546875
aF2900.081298828125
aF2896.617431640625
aF2892.989990234375
aF2889.52587890625
aF2888.480224609375
aF2886.5849609375
aF2885.767822265625
aF2883.676513671875
aF2881.97705078125
aF2880.57177734375
aF2879.29736328125
aF2878.0556640625
aF2876.74853515625
aF2875.27783203125
aF2873.57861328125
aF2872.925048828125
aF2870.7353515625
aF2868.251953125
aF2865.702880859375
aF2863.3173828125
aF2861.225830078125
aF2859.363037109375
aF2857.598388671875
aF2856.09521484375
aF2854.918701171875
aF2854.19970703125
aF2853.677001953125
aF2853.35009765625
aF2852.85986328125
aF2852.04296875
aF2850.997314453125
aF2849.657470703125
aF2848.121337890625
aF2846.389404296875
aF2844.592041015625
aF2843.0888671875
aF2842.69677734375
aF2841.84716796875
aF2841.35693359375
aF2841.095458984375
aF2840.80126953125
aF2840.37646484375
aF2839.755615234375
aF2838.97119140625
aF2837.925537109375
aF2836.095458984375
aF2834.428955078125
aF2832.7294921875
aF2831.160888671875
aF2829.919189453125
aF2829.134765625
aF2828.8408203125
aF2828.74267578125
aF2828.971435546875
aF2829.134765625
aF2829.919189453125
aF2830.8994140625
aF2831.91259765625
aF2832.82763671875
aF2833.7099609375
aF2834.5595703125
aF2835.115234375
aF2835.8994140625
aF2836.585693359375
aF2837.141357421875
aF2837.3701171875
aF2837.63134765625
aF2837.7294921875
aF2837.794921875
aF2837.76220703125
aF2837.598876953125
aF2837.043212890625
aF2836.0302734375
aF2834.428955078125
aF2832.043212890625
aF2830.01708984375
aF2826.455078125
aF2822.46826171875
aF2818.219970703125
aF2815.24609375
aF2810.572998046875
aF2805.89990234375
aF2801.684326171875
aF2798.220458984375
aF2796.48828125
aF2794.462158203125
aF2792.795654296875
aF2791.16162109375
aF2789.527587890625
aF2788.41650390625
aF2786.75
aF2785.148681640625
aF2783.743408203125
aF2782.6650390625
aF2782.076904296875
aF2781.3251953125
aF2780.541015625
aF2779.560546875
aF2778.841552734375
aF2777.82861328125
aF2777.076904296875
aF2776.717529296875
aF2776.521484375
aF2776.48876953125
aF2776.48876953125
aF2776.48876953125
aF2776.619384765625
aF2776.880859375
aF2777.40380859375
assg18
(lp98
ss.