(dp0
S'y_tilt'
p1
(lp2
I17
aI17
aI17
aI17
aI17
aI17
aI18
aI18
aI18
aI18
aI18
aI18
aI19
aI20
aI20
aI20
aI20
aI21
aI21
aI21
aI21
aI21
aI21
aI21
aI22
aI22
aI22
aI22
aI22
aI23
aI23
aI23
aI23
aI23
aI23
aI23
aI24
aI24
aI24
aI24
aI24
aI24
aI25
aI25
aI26
aI26
aI27
aI27
aI26
aI26
aI26
aI26
aI25
aI25
aI25
aI24
aI24
aI24
aI23
aI23
aI23
aI23
aI23
aI22
aI22
aI22
aI21
aI21
aI20
aI20
aI19
aI19
aI19
aI20
aI20
aI21
aI22
aI23
asS'pressure'
p3
(lp4
F0.21044921875
aF0.25244140625
aF0.2685546875
aF0.29931640625
aF0.32861328125
aF0.34765625
aF0.36767578125
aF0.3876953125
aF0.40625
aF0.419921875
aF0.4384765625
aF0.4501953125
aF0.45751953125
aF0.4658203125
aF0.48388671875
aF0.49169921875
aF0.4970703125
aF0.4990234375
aF0.501953125
aF0.5029296875
aF0.50341796875
aF0.50341796875
aF0.50341796875
aF0.50390625
aF0.50341796875
aF0.5029296875
aF0.5029296875
aF0.5009765625
aF0.49951171875
aF0.49951171875
aF0.50048828125
aF0.50048828125
aF0.5
aF0.5
aF0.49951171875
aF0.49755859375
aF0.49755859375
aF0.4970703125
aF0.49658203125
aF0.49658203125
aF0.4951171875
aF0.4951171875
aF0.49072265625
aF0.48583984375
aF0.47705078125
aF0.46826171875
aF0.46435546875
aF0.466796875
aF0.470703125
aF0.47509765625
aF0.4775390625
aF0.48095703125
aF0.4892578125
aF0.49462890625
aF0.50048828125
aF0.5048828125
aF0.50830078125
aF0.5107421875
aF0.51123046875
aF0.51611328125
aF0.51806640625
aF0.51953125
aF0.521484375
aF0.52587890625
aF0.52685546875
aF0.5263671875
aF0.5263671875
aF0.52392578125
aF0.5205078125
aF0.5185546875
aF0.521484375
aF0.53076171875
aF0.53955078125
aF0.541015625
aF0.5439453125
aF0.544921875
aF0.51708984375
aF0.4169921875
asS'x_tilt'
p5
(lp6
I32
aI32
aI32
aI32
aI33
aI33
aI33
aI33
aI33
aI33
aI33
aI33
aI33
aI33
aI33
aI32
aI32
aI32
aI32
aI32
aI32
aI32
aI32
aI31
aI31
aI30
aI30
aI30
aI30
aI30
aI30
aI30
aI30
aI30
aI30
aI29
aI29
aI28
aI28
aI28
aI28
aI28
aI28
aI29
aI29
aI29
aI29
aI29
aI29
aI29
aI29
aI29
aI30
aI30
aI30
aI30
aI30
aI30
aI30
aI30
aI30
aI30
aI30
aI30
aI30
aI30
aI30
aI30
aI30
aI30
aI29
aI29
aI29
aI29
aI29
aI29
aI29
aI29
asS'time'
p7
(lp8
I1240
aI1258
aI1275
aI1292
aI1308
aI1324
aI1340
aI1357
aI1373
aI1389
aI1406
aI1422
aI1438
aI1455
aI1472
aI1488
aI1505
aI1522
aI1538
aI1555
aI1571
aI1588
aI1605
aI1621
aI1638
aI1655
aI1672
aI1688
aI1705
aI1721
aI1738
aI1755
aI1772
aI1788
aI1805
aI1822
aI1838
aI1855
aI1871
aI1888
aI1905
aI1922
aI1938
aI1955
aI1972
aI1988
aI2005
aI2022
aI2038
aI2055
aI2071
aI2088
aI2105
aI2122
aI2138
aI2155
aI2172
aI2188
aI2205
aI2221
aI2239
aI2255
aI2255
aI2271
aI2288
aI2305
aI2322
aI2338
aI2355
aI2371
aI2389
aI2405
aI2421
aI2438
aI2438
aI2455
aI2471
aI2488
asS'y'
p9
(lp10
F769.421142578125
aF769.2904663085938
aF768.80029296875
aF767.5911254882812
aF765.69580078125
aF763.3102416992188
aF760.4998779296875
aF756.8724975585938
aF751.9053344726562
aF745.4349365234375
aF737.9188232421875
aF729.8145141601562
aF721.4160766601562
aF712.5928344726562
aF703.4427490234375
aF691.613037109375
aF671.744384765625
aF661.2871704101562
aF655.9605712890625
aF650.1437377929688
aF640.8629760742188
aF628.5757446289062
aF620.8308715820312
aF612.4324340820312
aF603.1843872070312
aF590.9625244140625
aF581.6163940429688
aF572.2048950195312
aF562.8587646484375
aF552.5650024414062
aF542.8267211914062
aF533.3171997070312
aF523.9057006835938
aF511.74920654296875
aF491.32501220703125
aF479.4626159667969
aF470.63934326171875
aF465.0513000488281
aF459.2998352050781
aF450.93408203125
aF443.02581787109375
aF436.06524658203125
aF430.1177062988281
aF424.1374816894531
aF421.68658447265625
aF421.2617492675781
aF423.2551574707031
aF428.2876892089844
aF439.85595703125
aF457.1430358886719
aF472.53472900390625
aF487.6322937011719
aF510.5074157714844
aF529.0362548828125
aF548.9049682617188
aF569.165771484375
aF590.60302734375
aF612.2036743164062
aF634.2945556640625
aF656.3526611328125
aF678.5415649414062
aF685.8289184570312
aF700.1422119140625
aF721.3180541992188
aF748.2780151367188
aF766.9049072265625
aF782.9828491210938
aF797.3287963867188
aF806.119384765625
aF813.4721069335938
aF817.9164428710938
aF816.08642578125
aF809.1585083007812
aF805.694580078125
aF792.7211303710938
aF777.6561889648438
aF764.0291748046875
aF751.8399658203125
asS'x'
p11
(lp12
F2792.664794921875
aF2792.403564453125
aF2792.63232421875
aF2793.80859375
aF2795.932861328125
aF2798.80859375
aF2802.141845703125
aF2805.834716796875
aF2809.821533203125
aF2814.36376953125
aF2819.592529296875
aF2825.442138671875
aF2831.781982421875
aF2838.383056640625
aF2844.95166015625
aF2852.92529296875
aF2865.931640625
aF2872.434814453125
aF2875.572021484375
aF2878.93798828125
aF2883.87255859375
aF2889.427978515625
aF2892.33642578125
aF2895.01611328125
aF2897.6630859375
aF2900.7021484375
aF2902.6630859375
aF2904.166259765625
aF2905.27734375
aF2906.126953125
aF2906.58447265625
aF2906.747802734375
aF2906.813232421875
aF2906.845947265625
aF2906.845947265625
aF2906.878662109375
aF2906.6826171875
aF2906.09423828125
aF2905.048583984375
aF2903.185791015625
aF2900.80029296875
aF2898.05517578125
aF2894.9833984375
aF2890.343017578125
aF2886.51953125
aF2882.5654296875
aF2878.578369140625
aF2874.166748046875
aF2867.434814453125
aF2859.951416015625
aF2855.5068359375
aF2852.598388671875
aF2849.624755859375
aF2848.0888671875
aF2847.50048828125
aF2847.696533203125
aF2848.578857421875
aF2849.526611328125
aF2850.082275390625
aF2850.376220703125
aF2850.474365234375
aF2850.474365234375
aF2850.833740234375
aF2852.304443359375
aF2855.931884765625
aF2860.408935546875
aF2865.83349609375
aF2872.434814453125
aF2878.317138671875
aF2887.696044921875
aF2900.44091796875
aF2912.4013671875
aF2926.126708984375
aF2930.83251953125
aF2944.75390625
aF2958.05419921875
aF2969.19775390625
aF2977.3349609375
as.