(dp0
S'y_tilt'
p1
(lp2
I9
aI9
aI9
aI9
aI9
aI10
aI10
aI10
aI10
aI11
aI11
aI11
aI12
aI12
aI13
aI13
aI14
aI14
aI15
aI15
aI15
aI15
aI16
aI17
aI17
aI17
aI17
aI17
aI16
aI16
aI15
aI15
aI14
aI14
aI13
aI13
aI12
aI12
aI11
aI10
aI9
aI8
aI8
aI8
aI8
aI8
aI8
aI8
aI9
aI9
asS'pressure'
p3
(lp4
F0.37451171875
aF0.3984375
aF0.4248046875
aF0.4482421875
aF0.458984375
aF0.48583984375
aF0.51318359375
aF0.53076171875
aF0.53857421875
aF0.54345703125
aF0.5439453125
aF0.5458984375
aF0.5458984375
aF0.54443359375
aF0.5478515625
aF0.5498046875
aF0.54931640625
aF0.54248046875
aF0.53466796875
aF0.53271484375
aF0.533203125
aF0.529296875
aF0.5166015625
aF0.515625
aF0.517578125
aF0.52392578125
aF0.53564453125
aF0.5537109375
aF0.5693359375
aF0.583984375
aF0.59716796875
aF0.60595703125
aF0.60888671875
aF0.61083984375
aF0.611328125
aF0.611328125
aF0.61083984375
aF0.61083984375
aF0.61279296875
aF0.61279296875
aF0.611328125
aF0.60302734375
aF0.58935546875
aF0.5888671875
aF0.59619140625
aF0.60791015625
aF0.60546875
aF0.58056640625
aF0.51171875
aF0.19921875
asS'x_tilt'
p5
(lp6
I26
aI26
aI26
aI26
aI26
aI26
aI25
aI25
aI25
aI25
aI25
aI25
aI24
aI23
aI22
aI22
aI22
aI22
aI21
aI21
aI21
aI22
aI22
aI23
aI23
aI23
aI23
aI23
aI23
aI24
aI24
aI24
aI25
aI25
aI25
aI25
aI25
aI25
aI25
aI24
aI24
aI24
aI24
aI24
aI24
aI24
aI23
aI23
aI23
aI23
asS'time'
p7
(lp8
I529
aI548
aI564
aI581
aI599
aI616
aI633
aI650
aI667
aI684
aI701
aI717
aI734
aI754
aI773
aI790
aI806
aI823
aI839
aI856
aI873
aI890
aI906
aI923
aI940
aI956
aI973
aI990
aI1006
aI1023
aI1040
aI1056
aI1073
aI1090
aI1106
aI1123
aI1140
aI1156
aI1173
aI1190
aI1207
aI1223
aI1240
aI1256
aI1273
aI1290
aI1306
aI1323
aI1340
aI1356
asS'y'
p9
(lp10
F772.8197631835938
aF763.5390014648438
aF748.1146240234375
aF727.4943237304688
aF708.67138671875
aF680.79638671875
aF656.5814208984375
aF630.177001953125
aF601.9425659179688
aF572.4990234375
aF542.859375
aF513.9713745117188
aF476.6522521972656
aF449.9210205078125
aF414.7913818359375
aF390.0208740234375
aF368.5509338378906
aF351.5252990722656
aF340.41455078125
aF335.54541015625
aF330.5455627441406
aF327.6698303222656
aF327.96392822265625
aF334.0748596191406
aF351.39459228515625
aF374.4657897949219
aF397.47161865234375
aF422.47088623046875
aF449.2674560546875
aF489.10284423828125
aF521.8142700195312
aF555.4080200195312
aF588.609619140625
aF623.085693359375
aF659.13037109375
aF695.9593505859375
aF732.4942016601562
aF766.0225830078125
aF805.1063842773438
aF828.8638305664062
aF848.6017456054688
aF863.2418823242188
aF872.2938842773438
aF875.1696166992188
aF872.3265380859375
aF864.026123046875
aF850.7258911132812
aF826.478271484375
aF804.9429931640625
aF784.0612182617188
asS'x'
p11
(lp12
F2811.161376953125
aF2814.85400390625
aF2822.631591796875
aF2832.925537109375
aF2841.2587890625
aF2850.997314453125
aF2857.990478515625
aF2865.245361328125
aF2872.761474609375
aF2880.539306640625
aF2887.33642578125
aF2892.467041015625
aF2896.486572265625
aF2898.18603515625
aF2900.44091796875
aF2902.56494140625
aF2904.231689453125
aF2904.623779296875
aF2904.0029296875
aF2902.793701171875
aF2899.88525390625
aF2896.453857421875
aF2893.12060546875
aF2889.362548828125
aF2885.375732421875
aF2882.630615234375
aF2881.029296875
aF2880.408447265625
aF2880.27783203125
aF2879.983642578125
aF2880.375732421875
aF2882.303955078125
aF2885.2451171875
aF2888.25146484375
aF2890.179443359375
aF2890.833251953125
aF2890.277587890625
aF2890.244873046875
aF2893.382080078125
aF2898.6435546875
aF2906.290283203125
aF2915.60400390625
aF2926.192138671875
aF2937.302978515625
aF2948.871337890625
aF2961.028076171875
aF2972.92333984375
aF2987.432861328125
aF2997.46533203125
aF3004.883544921875
as.