(dp0
S'y_tilt'
p1
(lp2
I9
aI8
aI8
aI8
aI8
aI8
aI8
aI8
aI8
aI8
aI8
aI8
aI9
aI9
aI10
aI10
aI11
aI11
aI11
aI12
aI12
aI13
aI13
aI13
aI14
aI14
aI14
aI15
aI15
aI15
aI15
aI15
aI15
aI16
aI16
aI16
aI16
aI16
aI16
aI15
aI14
aI14
aI13
aI12
aI12
aI11
aI10
aI10
aI10
aI9
aI9
aI9
aI8
aI8
aI8
aI8
aI8
aI8
aI8
aI8
aI9
aI9
aI10
aI10
asS'pressure'
p3
(lp4
F0.2744140625
aF0.28173828125
aF0.29833984375
aF0.32568359375
aF0.35986328125
aF0.3798828125
aF0.40185546875
aF0.42041015625
aF0.44189453125
aF0.46337890625
aF0.47900390625
aF0.49462890625
aF0.50634765625
aF0.5146484375
aF0.51806640625
aF0.51953125
aF0.5205078125
aF0.52099609375
aF0.52099609375
aF0.52099609375
aF0.52099609375
aF0.52099609375
aF0.51904296875
aF0.51708984375
aF0.51318359375
aF0.505859375
aF0.5
aF0.49267578125
aF0.49072265625
aF0.490234375
aF0.48388671875
aF0.47412109375
aF0.46337890625
aF0.458984375
aF0.45849609375
aF0.4599609375
aF0.47119140625
aF0.48291015625
aF0.48876953125
aF0.49462890625
aF0.4990234375
aF0.50048828125
aF0.5068359375
aF0.52001953125
aF0.5302734375
aF0.53271484375
aF0.53369140625
aF0.5341796875
aF0.53369140625
aF0.533203125
aF0.53369140625
aF0.53857421875
aF0.5400390625
aF0.53955078125
aF0.53955078125
aF0.54345703125
aF0.54736328125
aF0.548828125
aF0.5546875
aF0.56103515625
aF0.56640625
aF0.5537109375
aF0.505859375
aF0.2578125
asS'x_tilt'
p5
(lp6
I25
aI25
aI25
aI25
aI25
aI25
aI25
aI25
aI25
aI25
aI25
aI25
aI25
aI25
aI25
aI24
aI24
aI24
aI24
aI24
aI24
aI24
aI24
aI24
aI24
aI24
aI24
aI23
aI23
aI22
aI22
aI22
aI23
aI23
aI24
aI24
aI24
aI24
aI24
aI24
aI24
aI24
aI24
aI24
aI24
aI24
aI24
aI24
aI24
aI24
aI24
aI24
aI23
aI23
aI23
aI23
aI23
aI23
aI22
aI22
aI22
aI22
aI22
aI21
asS'time'
p7
(lp8
I652
aI670
aI688
aI705
aI721
aI736
aI752
aI767
aI784
aI800
aI817
aI833
aI850
aI866
aI882
aI899
aI915
aI932
aI932
aI948
aI964
aI981
aI996
aI1011
aI1027
aI1043
aI1059
aI1074
aI1090
aI1105
aI1121
aI1136
aI1151
aI1167
aI1183
aI1199
aI1215
aI1231
aI1247
aI1263
aI1278
aI1295
aI1311
aI1328
aI1344
aI1361
aI1377
aI1394
aI1411
aI1427
aI1444
aI1460
aI1477
aI1494
aI1510
aI1527
aI1544
aI1560
aI1577
aI1594
aI1611
aI1627
aI1644
aI1661
asS'y'
p9
(lp10
F747.55908203125
aF746.7747802734375
aF745.2062377929688
aF742.26513671875
aF738.0822143554688
aF732.984375
aF726.7427368164062
aF716.5469360351562
aF698.8023681640625
aF678.4108276367188
aF658.8035888671875
aF638.37939453125
aF617.1708374023438
aF594.8839721679688
aF570.4402465820312
aF535.996826171875
aF510.14794921875
aF493.4491271972656
aF485.34478759765625
aF462.4369812011719
aF440.47686767578125
aF418.876220703125
aF397.8310852050781
aF384.9230041503906
aF367.08038330078125
aF351.95013427734375
aF340.4798889160156
aF334.434326171875
aF330.4148254394531
aF325.31695556640625
aF322.0163879394531
aF321.3628234863281
aF323.55230712890625
aF330.9377136230469
aF340.7740173339844
aF359.6623229980469
aF377.6683044433594
aF396.3605651855469
aF417.111572265625
aF440.24810791015625
aF465.5087890625
aF491.6191101074219
aF517.468017578125
aF543.0554809570312
aF577.5315551757812
aF605.2758178710938
aF633.4775390625
aF661.4832763671875
aF687.7896728515625
aF712.1353149414062
aF735.0758056640625
aF755.728759765625
aF771.9700927734375
aF783.6364135742188
aF790.3028564453125
aF791.2505493164062
aF786.0873413085938
aF775.9242553710938
aF762.0357666015625
aF744.2911987304688
aF724.6839599609375
aF706.8413696289062
aF692.5934448242188
aF677.1363525390625
asS'x'
p11
(lp12
F2808.9716796875
aF2808.677734375
aF2808.9716796875
aF2810.47509765625
aF2813.44873046875
aF2817.795166015625
aF2823.219970703125
aF2831.095703125
aF2842.1083984375
aF2852.4677734375
aF2860.9970703125
aF2869.689697265625
aF2877.990234375
aF2885.93115234375
aF2893.12060546875
aF2901.944091796875
aF2907.630126953125
aF2910.506103515625
aF2911.6171875
aF2913.904541015625
aF2914.852294921875
aF2915.60400390625
aF2916.0615234375
aF2916.126953125
aF2915.505859375
aF2914.362060546875
aF2912.95703125
aF2911.747802734375
aF2910.440673828125
aF2907.92431640625
aF2904.4931640625
aF2900.669677734375
aF2897.009521484375
aF2892.7939453125
aF2889.297119140625
aF2883.87255859375
aF2880.1796875
aF2877.826904296875
aF2876.291015625
aF2875.114501953125
aF2873.382568359375
aF2871.19287109375
aF2869.42822265625
aF2868.5458984375
aF2869.199462890625
aF2870.539306640625
aF2872.140625
aF2874.3955078125
aF2877.761474609375
aF2882.46728515625
aF2888.25146484375
aF2895.277587890625
aF2904.198974609375
aF2915.11376953125
aF2927.858642578125
aF2946.09375
aF2960.341796875
aF2974.099609375
aF2986.81201171875
aF2999.393310546875
aF3011.22314453125
aF3020.536865234375
aF3026.255615234375
aF3029.294921875
as.