(dp0
S'y_tilt'
p1
(lp2
I23
aI23
aI23
aI23
aI23
aI23
aI23
aI23
aI23
aI23
aI23
aI23
aI23
aI23
aI23
aI23
aI22
aI22
aI21
aI21
aI20
aI20
aI20
aI20
aI20
aI20
aI20
aI20
aI20
aI20
aI20
aI19
aI19
aI18
aI18
aI17
aI17
aI17
aI17
aI16
aI16
aI15
aI15
aI14
aI13
aI13
aI13
aI13
aI13
aI12
aI11
aI10
aI10
aI10
aI10
aI9
aI9
aI8
aI8
aI8
aI8
aI8
aI8
aI8
aI7
aI7
aI6
aI6
aI6
aI6
aI6
aI5
aI5
aI4
aI4
aI4
aI4
aI4
aI4
aI4
aI4
aI4
aI4
aI4
aI4
aI4
aI3
aI3
aI24
aI24
aI25
aI25
aI25
aI25
aI25
aI25
aI25
aI25
aI25
aI25
aI25
aI25
aI25
aI25
aI25
aI25
aI24
aI24
aI24
aI23
aI23
aI23
aI23
aI23
aI23
aI22
aI21
aI21
aI20
aI19
aI18
aI18
aI16
aI16
aI15
aI14
aI14
aI13
aI12
aI11
aI11
aI10
aI10
aI10
aI9
aI8
aI8
aI7
aI7
aI7
aI6
aI6
aI5
aI4
aI4
aI4
aI3
aI3
aI2
aI1
aI0
aI0
aI0
aI-1
aI-2
aI-2
aI-3
aI-4
aI-5
aI-6
aI-6
aI-6
aI-6
aI-7
aI-7
aI-7
aI-7
aI-7
aI-7
aI-7
aI-7
aI-7
aI-7
aI-8
aI-8
aI-8
aI-8
aI-8
aI-8
aI-8
aI-8
aI-8
aI-7
aI-7
aI-6
aI-5
aI-5
aI-5
aI-5
aI-5
aI-5
aI-5
aI-5
aI-5
aI-5
aI-5
aI-5
aI-4
aI-4
aI-4
asS'pressure'
p3
(lp4
F0.26025390625
aF0.26318359375
aF0.29052734375
aF0.33203125
aF0.36279296875
aF0.38330078125
aF0.40283203125
aF0.41845703125
aF0.427734375
aF0.43505859375
aF0.4375
aF0.43798828125
aF0.44091796875
aF0.4462890625
aF0.44970703125
aF0.44970703125
aF0.44970703125
aF0.45166015625
aF0.455078125
aF0.46044921875
aF0.46484375
aF0.4716796875
aF0.47900390625
aF0.48583984375
aF0.49462890625
aF0.50439453125
aF0.50732421875
aF0.5107421875
aF0.51611328125
aF0.51953125
aF0.521484375
aF0.521484375
aF0.521484375
aF0.52197265625
aF0.52490234375
aF0.52685546875
aF0.52685546875
aF0.5302734375
aF0.5322265625
aF0.5361328125
aF0.5390625
aF0.54541015625
aF0.548828125
aF0.55078125
aF0.5517578125
aF0.5537109375
aF0.556640625
aF0.556640625
aF0.560546875
aF0.5615234375
aF0.56103515625
aF0.56201171875
aF0.56201171875
aF0.5625
aF0.5625
aF0.5595703125
aF0.56103515625
aF0.56005859375
aF0.5634765625
aF0.5634765625
aF0.5673828125
aF0.56982421875
aF0.57470703125
aF0.57763671875
aF0.5791015625
aF0.5791015625
aF0.57958984375
aF0.5791015625
aF0.57958984375
aF0.58056640625
aF0.583984375
aF0.58251953125
aF0.58447265625
aF0.58447265625
aF0.5849609375
aF0.58935546875
aF0.58935546875
aF0.5888671875
aF0.58837890625
aF0.5869140625
aF0.58349609375
aF0.58251953125
aF0.57861328125
aF0.57275390625
aF0.55126953125
aF0.51708984375
aF0.45263671875
aF0.22998046875
aF0.099609375
aF0.18603515625
aF0.16943359375
aF0.16943359375
aF0.19287109375
aF0.2353515625
aF0.275390625
aF0.31298828125
aF0.33349609375
aF0.361328125
aF0.38525390625
aF0.39794921875
aF0.40234375
aF0.4013671875
aF0.41064453125
aF0.4228515625
aF0.4306640625
aF0.43505859375
aF0.44091796875
aF0.4580078125
aF0.4658203125
aF0.47119140625
aF0.4716796875
aF0.4736328125
aF0.4765625
aF0.484375
aF0.4970703125
aF0.5048828125
aF0.50732421875
aF0.51171875
aF0.51318359375
aF0.5166015625
aF0.52294921875
aF0.53125
aF0.53955078125
aF0.54345703125
aF0.546875
aF0.55029296875
aF0.55224609375
aF0.5546875
aF0.5576171875
aF0.55859375
aF0.55859375
aF0.55859375
aF0.55859375
aF0.5615234375
aF0.5634765625
aF0.56396484375
aF0.5625
aF0.56298828125
aF0.56298828125
aF0.5625
aF0.56103515625
aF0.5595703125
aF0.55908203125
aF0.5595703125
aF0.56103515625
aF0.56201171875
aF0.560546875
aF0.55908203125
aF0.55419921875
aF0.55224609375
aF0.55224609375
aF0.55517578125
aF0.5556640625
aF0.55126953125
aF0.54736328125
aF0.5478515625
aF0.55029296875
aF0.5546875
aF0.5537109375
aF0.55029296875
aF0.54833984375
aF0.54833984375
aF0.548828125
aF0.548828125
aF0.548828125
aF0.548828125
aF0.5517578125
aF0.5537109375
aF0.5537109375
aF0.55517578125
aF0.55810546875
aF0.55908203125
aF0.56103515625
aF0.560546875
aF0.56005859375
aF0.5615234375
aF0.5634765625
aF0.56298828125
aF0.5634765625
aF0.56591796875
aF0.568359375
aF0.57421875
aF0.5810546875
aF0.5810546875
aF0.58203125
aF0.5849609375
aF0.5859375
aF0.58544921875
aF0.58642578125
aF0.5869140625
aF0.5869140625
aF0.58642578125
aF0.583984375
aF0.5791015625
aF0.5751953125
aF0.56787109375
aF0.55322265625
aF0.52880859375
aF0.47509765625
aF0.26806640625
asS'x_tilt'
p5
(lp6
I19
aI19
aI19
aI19
aI19
aI20
aI20
aI20
aI20
aI20
aI20
aI20
aI20
aI21
aI21
aI21
aI21
aI21
aI21
aI21
aI21
aI21
aI20
aI20
aI19
aI19
aI19
aI19
aI19
aI19
aI19
aI19
aI19
aI19
aI19
aI19
aI19
aI19
aI19
aI19
aI19
aI19
aI19
aI19
aI19
aI19
aI19
aI19
aI19
aI19
aI19
aI19
aI19
aI20
aI20
aI20
aI20
aI20
aI20
aI20
aI20
aI20
aI20
aI20
aI20
aI20
aI20
aI20
aI20
aI20
aI20
aI20
aI20
aI20
aI20
aI20
aI20
aI20
aI20
aI20
aI20
aI20
aI20
aI20
aI20
aI20
aI20
aI20
aI24
aI24
aI24
aI24
aI24
aI24
aI24
aI24
aI24
aI24
aI24
aI24
aI24
aI24
aI24
aI24
aI24
aI24
aI24
aI24
aI24
aI24
aI24
aI25
aI25
aI25
aI25
aI25
aI25
aI25
aI25
aI25
aI25
aI25
aI25
aI25
aI25
aI25
aI25
aI25
aI25
aI25
aI25
aI24
aI24
aI24
aI24
aI24
aI24
aI24
aI24
aI24
aI24
aI23
aI23
aI23
aI23
aI23
aI23
aI23
aI23
aI23
aI23
aI23
aI23
aI23
aI23
aI23
aI22
aI22
aI22
aI22
aI22
aI22
aI21
aI21
aI21
aI21
aI21
aI21
aI20
aI20
aI19
aI19
aI19
aI19
aI19
aI19
aI19
aI19
aI19
aI19
aI19
aI19
aI19
aI19
aI19
aI19
aI19
aI19
aI19
aI19
aI19
aI19
aI19
aI19
aI19
aI19
aI19
aI19
aI19
aI18
asS'time'
p7
(lp8
I22305
aI22305
aI22319
aI22336
aI22353
aI22371
aI22388
aI22405
aI22423
aI22440
aI22458
aI22475
aI22492
aI22509
aI22527
aI22544
aI22561
aI22579
aI22596
aI22614
aI22633
aI22651
aI22667
aI22685
aI22702
aI22719
aI22736
aI22752
aI22774
aI22787
aI22804
aI22821
aI22838
aI22860
aI22873
aI22895
aI22909
aI22909
aI22926
aI22943
aI22960
aI22977
aI22994
aI23011
aI23028
aI23049
aI23063
aI23081
aI23099
aI23117
aI23134
aI23151
aI23173
aI23186
aI23203
aI23220
aI23237
aI23255
aI23272
aI23289
aI23306
aI23323
aI23340
aI23357
aI23374
aI23391
aI23408
aI23425
aI23441
aI23458
aI23475
aI23492
aI23509
aI23526
aI23543
aI23559
aI23575
aI23591
aI23607
aI23623
aI23639
aI23654
aI23671
aI23687
aI23703
aI23718
aI23734
aI23750
aI24524
aI24543
aI24561
aI24579
aI24579
aI24595
aI24611
aI24627
aI24643
aI24659
aI24676
aI24692
aI24708
aI24724
aI24740
aI24756
aI24772
aI24788
aI24804
aI24821
aI24837
aI24853
aI24869
aI24885
aI24900
aI24916
aI24932
aI24949
aI24966
aI24982
aI24999
aI25016
aI25032
aI25049
aI25066
aI25082
aI25099
aI25116
aI25133
aI25150
aI25166
aI25182
aI25199
aI25216
aI25233
aI25250
aI25266
aI25283
aI25300
aI25316
aI25333
aI25350
aI25366
aI25383
aI25400
aI25417
aI25433
aI25450
aI25466
aI25483
aI25500
aI25516
aI25533
aI25549
aI25566
aI25583
aI25599
aI25616
aI25632
aI25649
aI25666
aI25683
aI25699
aI25722
aI25734
aI25755
aI25767
aI25783
aI25799
aI25817
aI25817
aI25833
aI25856
aI25870
aI25886
aI25903
aI25925
aI25939
aI25956
aI25974
aI25991
aI26009
aI26026
aI26043
aI26065
aI26078
aI26095
aI26112
aI26128
aI26144
aI26160
aI26177
aI26193
aI26209
aI26226
aI26242
aI26258
aI26274
aI26290
aI26306
aI26322
aI26339
asS'y'
p9
(lp10
F454.1039123535156
aF454.2019348144531
aF454.72479248046875
aF455.2476501464844
aF455.9339294433594
aF457.2410583496094
aF458.2867736816406
aF459.0710754394531
aF459.6266174316406
aF460.21484375
aF460.868408203125
aF461.7180480957031
aF462.69842529296875
aF464.2016296386719
aF465.5414733886719
aF467.2080993652344
aF469.3975524902344
aF471.9465026855469
aF475.2143859863281
aF477.27313232421875
aF479.6913757324219
aF481.6194152832031
aF483.67816162109375
aF485.8349609375
aF487.9590759277344
aF490.6714172363281
aF492.697509765625
aF494.8216247558594
aF497.8607482910156
aF499.56005859375
aF502.3377380371094
aF506.4879455566406
aF509.72314453125
aF514.0040283203125
aF516.1935424804688
aF520.8992919921875
aF522.2064208984375
aF525.0494995117188
aF529.820556640625
aF535.147216796875
aF542.3692016601562
aF547.2056884765625
aF551.7807006835938
aF556.7478637695312
aF562.3359375
aF570.080810546875
aF575.6361694335938
aF580.9628295898438
aF586.4528198242188
aF594.2630615234375
aF600.4066772460938
aF606.3869018554688
aF613.6742553710938
aF618.7721557617188
aF623.968017578125
aF629.4254150390625
aF634.9807739257812
aF641.8759765625
aF646.4510498046875
aF650.9280395507812
aF655.797119140625
aF661.156494140625
aF666.7445068359375
aF673.8358154296875
aF678.7703247070312
aF683.7374877929688
aF689.0968017578125
aF694.750244140625
aF700.27294921875
aF705.4035034179688
aF711.5797729492188
aF716.0567626953125
aF720.795166015625
aF725.7296752929688
aF730.33740234375
aF734.4548950195312
aF738.5724487304688
aF743.1474609375
aF747.98388671875
aF752.2321166992188
aF755.4346313476562
aF757.8855590820312
aF759.7482299804688
aF760.9900512695312
aF761.5455932617188
aF761.6436157226562
aF761.7416381835938
aF761.6436157226562
aF456.9796447753906
aF456.5548095703125
aF456.5874938964844
aF456.62017822265625
aF456.7508850097656
aF456.7508850097656
aF456.2607116699219
aF455.4110412597656
aF454.62677001953125
aF453.9405212402344
aF453.2542724609375
aF452.8294372558594
aF452.6006774902344
aF452.69873046875
aF453.4503173828125
aF455.0516052246094
aF458.1233825683594
aF462.7637634277344
aF467.99237060546875
aF472.5020446777344
aF475.9333190917969
aF479.03778076171875
aF482.69781494140625
aF487.24017333984375
aF492.0439453125
aF496.52093505859375
aF500.8671875
aF505.67095947265625
aF511.1936950683594
aF517.3372802734375
aF524.069091796875
aF531.2257690429688
aF538.4804077148438
aF545.9312133789062
aF556.15966796875
aF563.67578125
aF570.7670288085938
aF577.4008178710938
aF583.740478515625
aF590.0474853515625
aF596.2238159179688
aF602.1713256835938
aF607.857421875
aF614.8833618164062
aF619.8831787109375
aF625.0791015625
aF630.6998901367188
aF636.5166625976562
aF642.33349609375
aF647.9869384765625
aF653.607666015625
aF661.6466674804688
aF668.3457641601562
aF675.273681640625
aF681.8748168945312
aF688.0183715820312
aF694.1293334960938
aF700.8284912109375
aF708.0504760742188
aF715.4358520507812
aF724.6512451171875
aF731.0236206054688
aF737.2326049804688
aF743.5068969726562
aF749.8466186523438
aF755.8921508789062
aF761.3168334960938
aF765.8591918945312
aF769.878662109375
aF773.8001098632812
aF779.0286865234375
aF782.5253295898438
aF785.4337768554688
aF788.7343139648438
aF790.1721801757812
aF792.65576171875
aF793.6034545898438
aF794.8125610351562
aF795.7275390625
aF795.956298828125
aF796.5118408203125
aF796.8059692382812
aF796.7079467773438
aF796.0543212890625
aF795.1719970703125
aF794.2896728515625
aF792.9498901367188
aF792.0675659179688
aF789.8126831054688
aF787.8192749023438
aF785.7605590820312
aF782.8521118164062
aF780.3358764648438
aF777.3621215820312
aF772.8524169921875
aF770.4668579101562
aF765.4016723632812
aF761.3168334960938
aF757.1012573242188
aF753.1798095703125
aF749.9119262695312
aF747.4283447265625
aF745.3369140625
aF743.2781372070312
aF741.1867065429688
aF739.389404296875
aF738.1475830078125
aF737.4940185546875
aF737.2652587890625
aF737.1345825195312
aF737.0364990234375
aF737.0692138671875
asS'x'
p11
(lp12
F2871.2255859375
aF2871.19287109375
aF2871.519775390625
aF2871.977294921875
aF2872.402099609375
aF2873.08837890625
aF2874.0361328125
aF2875.179931640625
aF2876.291015625
aF2877.5
aF2878.51318359375
aF2879.8203125
aF2881.4541015625
aF2883.7744140625
aF2885.343017578125
aF2886.650146484375
aF2887.89208984375
aF2889.297119140625
aF2891.290771484375
aF2892.597900390625
aF2893.905029296875
aF2894.754638671875
aF2895.735107421875
aF2896.944091796875
aF2898.283935546875
aF2899.787353515625
aF2900.767578125
aF2901.748046875
aF2903.0224609375
aF2903.610595703125
aF2904.525634765625
aF2905.604248046875
aF2906.355712890625
aF2907.303466796875
aF2907.760986328125
aF2908.545166015625
aF2908.676025390625
aF2908.8720703125
aF2909.035400390625
aF2909.002685546875
aF2908.577880859375
aF2908.05517578125
aF2907.466796875
aF2906.51904296875
aF2905.24462890625
aF2903.185791015625
aF2901.748046875
aF2900.473388671875
aF2899.198974609375
aF2896.911376953125
aF2894.721923828125
aF2892.499755859375
aF2890.1142578125
aF2888.611083984375
aF2886.91162109375
aF2884.7548828125
aF2882.04248046875
aF2878.02294921875
aF2875.27783203125
aF2872.859619140625
aF2870.506591796875
aF2867.990478515625
aF2865.212646484375
aF2861.0625
aF2857.76171875
aF2854.2978515625
aF2850.60498046875
aF2846.65087890625
aF2842.827392578125
aF2839.232666015625
aF2834.722900390625
aF2831.291748046875
aF2827.82763671875
aF2824.461669921875
aF2821.488037109375
aF2819.00439453125
aF2816.5859375
aF2813.873779296875
aF2810.96533203125
aF2808.318115234375
aF2806.226806640625
aF2804.658203125
aF2803.579833984375
aF2802.958740234375
aF2802.664794921875
aF2802.632080078125
aF2802.599365234375
aF2803.22021484375
aF2873.93798828125
aF2874.232177734375
aF2873.611328125
aF2873.349853515625
aF2872.53271484375
aF2872.0751953125
aF2872.042724609375
aF2872.10791015625
aF2872.010009765625
aF2871.454345703125
aF2870.637451171875
aF2869.820556640625
aF2869.13427734375
aF2868.57861328125
aF2868.023193359375
aF2867.30419921875
aF2866.062255859375
aF2864.1669921875
aF2861.716064453125
aF2859.330322265625
aF2857.40234375
aF2855.768310546875
aF2854.101806640625
aF2852.304443359375
aF2850.6376953125
aF2849.36328125
aF2848.3828125
aF2847.5986328125
aF2846.912353515625
aF2846.356689453125
aF2845.997314453125
aF2845.80126953125
aF2845.80126953125
aF2845.80126953125
aF2845.703125
aF2845.4091796875
aF2844.95166015625
aF2844.690185546875
aF2844.559326171875
aF2844.559326171875
aF2844.52685546875
aF2844.39599609375
aF2844.232666015625
aF2844.199951171875
aF2844.298095703125
aF2844.559326171875
aF2844.7880859375
aF2844.88623046875
aF2844.88623046875
aF2844.9189453125
aF2844.95166015625
aF2845.016845703125
aF2845.082275390625
aF2845.114990234375
aF2845.180419921875
aF2845.37646484375
aF2845.833984375
aF2846.32421875
aF2846.977783203125
aF2847.6640625
aF2848.578857421875
aF2849.46142578125
aF2850.539794921875
aF2851.814208984375
aF2853.154052734375
aF2854.526611328125
aF2855.9970703125
aF2857.631103515625
aF2859.526611328125
aF2861.552490234375
aF2864.4609375
aF2866.78125
aF2869.166748046875
aF2872.66357421875
aF2874.558837890625
aF2878.5458984375
aF2880.57177734375
aF2883.676513671875
aF2886.87890625
aF2887.989990234375
aF2891.3232421875
aF2894.820068359375
aF2899.689208984375
aF2903.3818359375
aF2906.944091796875
aF2910.407958984375
aF2915.146484375
aF2917.630126953125
aF2922.531982421875
aF2926.028564453125
aF2929.36181640625
aF2933.675537109375
aF2936.812744140625
aF2939.851806640625
aF2943.642822265625
aF2945.342041015625
aF2948.413818359375
aF2950.5380859375
aF2952.498779296875
aF2954.230712890625
aF2955.537841796875
aF2956.420166015625
aF2957.041259765625
aF2957.62939453125
aF2958.217529296875
aF2958.707763671875
aF2959.03466796875
aF2959.197998046875
aF2959.230712890625
aF2959.230712890625
aF2959.197998046875
aF2959.099853515625
as.