(dp0
S'y_tilt'
p1
(lp2
I10
aI10
aI9
aI9
aI9
aI9
aI9
aI9
aI9
aI10
aI10
aI10
aI10
aI11
aI11
aI12
aI12
aI12
aI12
aI12
aI13
aI13
aI13
aI13
aI13
aI14
aI14
aI14
aI14
aI14
aI14
aI13
aI13
aI13
aI12
aI12
aI11
aI11
aI11
aI10
aI10
aI9
aI8
aI8
aI7
aI7
aI7
aI8
aI9
aI9
aI10
aI10
asS'pressure'
p3
(lp4
F0.328125
aF0.35986328125
aF0.369140625
aF0.3837890625
aF0.404296875
aF0.421875
aF0.43603515625
aF0.46142578125
aF0.47900390625
aF0.49169921875
aF0.5009765625
aF0.50439453125
aF0.50537109375
aF0.50732421875
aF0.5107421875
aF0.51123046875
aF0.50634765625
aF0.50341796875
aF0.5009765625
aF0.4951171875
aF0.486328125
aF0.474609375
aF0.4755859375
aF0.47900390625
aF0.458984375
aF0.4541015625
aF0.45263671875
aF0.45751953125
aF0.46728515625
aF0.48974609375
aF0.49658203125
aF0.50244140625
aF0.5029296875
aF0.505859375
aF0.50634765625
aF0.51123046875
aF0.515625
aF0.51904296875
aF0.521484375
aF0.52587890625
aF0.52783203125
aF0.52734375
aF0.525390625
aF0.52587890625
aF0.5263671875
aF0.53076171875
aF0.53955078125
aF0.54541015625
aF0.54541015625
aF0.52197265625
aF0.48779296875
aF0.39599609375
asS'x_tilt'
p5
(lp6
I26
aI26
aI26
aI26
aI26
aI26
aI26
aI26
aI25
aI25
aI25
aI25
aI25
aI24
aI24
aI23
aI23
aI22
aI22
aI22
aI21
aI21
aI21
aI22
aI22
aI22
aI22
aI22
aI22
aI22
aI22
aI22
aI22
aI22
aI22
aI22
aI23
aI23
aI23
aI23
aI23
aI23
aI23
aI23
aI23
aI23
aI23
aI23
aI22
aI22
aI22
aI21
asS'time'
p7
(lp8
I643
aI661
aI679
aI697
aI716
aI732
aI749
aI765
aI782
aI798
aI815
aI832
aI848
aI865
aI882
aI898
aI915
aI932
aI950
aI967
aI984
aI1001
aI1017
aI1035
aI1052
aI1069
aI1086
aI1103
aI1120
aI1137
aI1154
aI1172
aI1189
aI1206
aI1223
aI1240
aI1256
aI1274
aI1290
aI1306
aI1322
aI1338
aI1354
aI1370
aI1386
aI1401
aI1417
aI1432
aI1448
aI1465
aI1482
aI1498
asS'y'
p9
(lp10
F760.1077270507812
aF756.5457153320312
aF750.9903564453125
aF736.1215209960938
aF719.8148193359375
aF703.998291015625
aF687.5935668945312
aF669.4241943359375
aF650.6665649414062
aF631.6475830078125
aF604.4915161132812
aF582.9235229492188
aF560.5059204101562
aF538.4151000976562
aF517.3046264648438
aF497.0111083984375
aF477.4692077636719
aF460.0187683105469
aF439.1043701171875
aF424.79107666015625
aF412.013671875
aF404.1380920410156
aF400.57611083984375
aF396.9487609863281
aF395.0207214355469
aF398.3539733886719
aF409.53009033203125
aF430.41180419921875
aF451.7837219238281
aF480.7370910644531
aF503.5141906738281
aF527.8925170898438
aF555.1138916015625
aF584.197998046875
aF624.000732421875
aF652.9541015625
aF681.482666015625
aF709.782470703125
aF736.709716796875
aF760.6959228515625
aF780.8587036132812
aF797.52490234375
aF808.341552734375
aF815.9556884765625
aF820.0732421875
aF817.8184204101562
aF810.106201171875
aF796.60986328125
aF778.2117309570312
aF758.6044921875
aF739.814208984375
aF723.017333984375
asS'x'
p11
(lp12
F2799.560302734375
aF2801.194091796875
aF2804.462158203125
aF2813.1875
aF2821.880126953125
aF2829.069580078125
aF2836.160888671875
aF2843.807861328125
aF2851.16064453125
aF2858.447998046875
aF2868.93798828125
aF2877.140625
aF2885.21240234375
aF2892.597900390625
aF2899.0029296875
aF2904.166259765625
aF2907.826416015625
aF2909.26416015625
aF2907.826416015625
aF2905.473388671875
aF2902.401611328125
aF2899.4931640625
aF2897.1728515625
aF2893.6435546875
aF2887.205810546875
aF2882.271240234375
aF2876.0947265625
aF2869.5263671875
aF2864.363037109375
aF2860.1474609375
aF2858.6767578125
aF2858.154052734375
aF2857.532958984375
aF2856.323974609375
aF2854.036376953125
aF2852.304443359375
aF2851.09521484375
aF2850.572509765625
aF2851.0625
aF2853.48095703125
aF2857.729248046875
aF2863.938232421875
aF2870.89892578125
aF2880.7353515625
aF2892.859375
aF2904.91796875
aF2918.871826171875
aF2933.708251953125
aF2948.7734375
aF2963.021484375
aF2974.785888671875
aF2983.446044921875
as.