(dp0
S'y_tilt'
p1
(lp2
I22
aI22
aI22
aI22
aI22
aI22
aI22
aI22
aI22
aI22
aI21
aI21
aI20
aI20
aI19
aI19
aI19
aI19
aI19
aI19
aI19
aI19
aI18
aI17
aI16
aI16
aI16
aI16
aI16
aI15
aI15
aI14
aI14
aI13
aI13
aI13
aI13
aI13
aI13
aI13
aI13
aI12
aI11
aI11
aI11
aI11
aI11
aI10
aI10
aI10
aI9
aI8
aI8
aI8
aI7
aI7
aI7
aI6
aI6
aI5
aI5
aI5
aI5
aI4
aI4
aI4
aI4
aI3
aI2
aI2
aI2
aI2
aI1
aI1
aI1
aI1
aI1
aI1
aI1
aI1
aI0
aI0
aI0
aI0
aI0
aI18
aI18
aI18
aI18
aI18
aI18
aI18
aI18
aI18
aI19
aI19
aI19
aI19
aI19
aI18
aI17
aI17
aI17
aI17
aI16
aI16
aI15
aI14
aI13
aI13
aI13
aI12
aI12
aI11
aI10
aI10
aI9
aI9
aI8
aI8
aI7
aI7
aI6
aI6
aI5
aI4
aI4
aI3
aI3
aI3
aI2
aI1
aI0
aI0
aI0
aI0
aI-1
aI-2
aI-2
aI-3
aI-3
aI-4
aI-5
aI-6
aI-6
aI-7
aI-8
aI-9
aI-9
aI-10
aI-10
aI-10
aI-10
aI-11
aI-11
aI-11
aI-11
aI-10
aI-10
aI-10
aI-9
aI-8
aI-8
aI-7
aI-7
aI-7
aI-6
asS'pressure'
p3
(lp4
F0.10693359375
aF0.13623046875
aF0.19873046875
aF0.2587890625
aF0.29345703125
aF0.3173828125
aF0.32763671875
aF0.330078125
aF0.33544921875
aF0.35205078125
aF0.3623046875
aF0.37353515625
aF0.37890625
aF0.388671875
aF0.39892578125
aF0.40771484375
aF0.4150390625
aF0.42529296875
aF0.43603515625
aF0.43798828125
aF0.44580078125
aF0.4560546875
aF0.4638671875
aF0.46484375
aF0.470703125
aF0.4765625
aF0.486328125
aF0.4921875
aF0.4951171875
aF0.4970703125
aF0.4990234375
aF0.5029296875
aF0.50732421875
aF0.50927734375
aF0.51123046875
aF0.51318359375
aF0.51953125
aF0.51953125
aF0.521484375
aF0.5234375
aF0.5244140625
aF0.52685546875
aF0.52685546875
aF0.52783203125
aF0.52734375
aF0.52783203125
aF0.5283203125
aF0.52880859375
aF0.52978515625
aF0.53271484375
aF0.53369140625
aF0.537109375
aF0.537109375
aF0.53857421875
aF0.5400390625
aF0.53955078125
aF0.5400390625
aF0.54248046875
aF0.54052734375
aF0.53857421875
aF0.5380859375
aF0.53759765625
aF0.53515625
aF0.53369140625
aF0.5341796875
aF0.5341796875
aF0.5341796875
aF0.53759765625
aF0.5439453125
aF0.54443359375
aF0.5517578125
aF0.5576171875
aF0.55859375
aF0.5595703125
aF0.56103515625
aF0.56298828125
aF0.5595703125
aF0.5537109375
aF0.548828125
aF0.5224609375
aF0.49755859375
aF0.47021484375
aF0.45947265625
aF0.38720703125
aF0.10986328125
aF0.12158203125
aF0.1650390625
aF0.25048828125
aF0.30615234375
aF0.35400390625
aF0.400390625
aF0.43310546875
aF0.4482421875
aF0.45849609375
aF0.46240234375
aF0.462890625
aF0.462890625
aF0.4697265625
aF0.47607421875
aF0.48388671875
aF0.4921875
aF0.49462890625
aF0.498046875
aF0.50146484375
aF0.50341796875
aF0.5087890625
aF0.51171875
aF0.513671875
aF0.51708984375
aF0.5224609375
aF0.52294921875
aF0.529296875
aF0.53466796875
aF0.53515625
aF0.53564453125
aF0.53857421875
aF0.54150390625
aF0.54296875
aF0.54443359375
aF0.54638671875
aF0.5458984375
aF0.5458984375
aF0.54541015625
aF0.54736328125
aF0.5478515625
aF0.55029296875
aF0.5498046875
aF0.5478515625
aF0.54931640625
aF0.546875
aF0.54736328125
aF0.54736328125
aF0.544921875
aF0.544921875
aF0.546875
aF0.548828125
aF0.54833984375
aF0.54833984375
aF0.5478515625
aF0.55029296875
aF0.55078125
aF0.55224609375
aF0.5546875
aF0.5546875
aF0.55126953125
aF0.552734375
aF0.55517578125
aF0.5556640625
aF0.5576171875
aF0.55419921875
aF0.55517578125
aF0.55810546875
aF0.56396484375
aF0.568359375
aF0.57177734375
aF0.5703125
aF0.57080078125
aF0.5703125
aF0.57275390625
aF0.57470703125
aF0.57470703125
aF0.576171875
aF0.57568359375
aF0.55810546875
aF0.529296875
aF0.46875
aF0.23779296875
asS'x_tilt'
p5
(lp6
I22
aI22
aI22
aI22
aI22
aI22
aI22
aI22
aI22
aI22
aI22
aI22
aI22
aI22
aI22
aI21
aI20
aI20
aI20
aI20
aI20
aI20
aI20
aI20
aI20
aI20
aI20
aI20
aI20
aI19
aI19
aI19
aI19
aI19
aI19
aI19
aI19
aI19
aI19
aI20
aI20
aI20
aI20
aI20
aI20
aI20
aI20
aI20
aI20
aI20
aI20
aI20
aI20
aI20
aI20
aI20
aI20
aI20
aI20
aI20
aI20
aI20
aI20
aI20
aI20
aI20
aI20
aI20
aI20
aI20
aI20
aI20
aI20
aI20
aI20
aI20
aI21
aI21
aI21
aI21
aI21
aI21
aI21
aI21
aI21
aI24
aI24
aI24
aI24
aI24
aI24
aI24
aI24
aI24
aI24
aI24
aI24
aI24
aI24
aI24
aI24
aI24
aI24
aI24
aI24
aI25
aI25
aI25
aI25
aI25
aI25
aI25
aI25
aI25
aI25
aI25
aI25
aI25
aI25
aI25
aI25
aI25
aI25
aI25
aI25
aI25
aI25
aI25
aI25
aI25
aI25
aI25
aI25
aI25
aI24
aI24
aI23
aI23
aI23
aI23
aI23
aI23
aI23
aI22
aI22
aI22
aI22
aI22
aI21
aI20
aI20
aI20
aI20
aI19
aI19
aI19
aI19
aI19
aI19
aI19
aI18
aI18
aI18
aI18
aI18
aI18
aI18
asS'time'
p7
(lp8
I2006
aI2025
aI2044
aI2061
aI2078
aI2095
aI2112
aI2129
aI2146
aI2163
aI2180
aI2197
aI2214
aI2231
aI2247
aI2264
aI2281
aI2297
aI2314
aI2331
aI2348
aI2364
aI2381
aI2398
aI2415
aI2431
aI2448
aI2464
aI2481
aI2498
aI2515
aI2531
aI2548
aI2565
aI2581
aI2598
aI2615
aI2632
aI2648
aI2665
aI2682
aI2698
aI2715
aI2732
aI2749
aI2766
aI2782
aI2799
aI2815
aI2832
aI2848
aI2865
aI2882
aI2898
aI2916
aI2932
aI2949
aI2965
aI2982
aI2999
aI3015
aI3032
aI3048
aI3065
aI3082
aI3099
aI3115
aI3132
aI3149
aI3165
aI3182
aI3198
aI3215
aI3232
aI3249
aI3265
aI3282
aI3298
aI3315
aI3332
aI3348
aI3365
aI3382
aI3398
aI3415
aI3975
aI3994
aI4011
aI4030
aI4047
aI4064
aI4081
aI4098
aI4114
aI4131
aI4148
aI4165
aI4182
aI4199
aI4215
aI4232
aI4248
aI4265
aI4282
aI4298
aI4315
aI4332
aI4349
aI4365
aI4381
aI4399
aI4399
aI4415
aI4432
aI4449
aI4465
aI4482
aI4499
aI4515
aI4532
aI4548
aI4565
aI4565
aI4582
aI4599
aI4615
aI4632
aI4648
aI4665
aI4682
aI4699
aI4715
aI4732
aI4748
aI4765
aI4782
aI4798
aI4815
aI4832
aI4848
aI4865
aI4865
aI4882
aI4899
aI4915
aI4932
aI4949
aI4965
aI4982
aI4999
aI5015
aI5032
aI5049
aI5065
aI5082
aI5099
aI5115
aI5132
aI5149
aI5166
aI5183
aI5200
aI5218
aI5235
aI5252
aI5269
aI5286
asS'y'
p9
(lp10
F455.574462890625
aF455.7705078125
aF456.0319519042969
aF456.3587341308594
aF456.456787109375
aF456.5874938964844
aF457.2083740234375
aF458.4175109863281
aF460.3128662109375
aF463.58074951171875
aF466.22772216796875
aF468.9400634765625
aF471.75042724609375
aF474.62615966796875
aF477.6979675292969
aF480.8677978515625
aF484.9199523925781
aF487.828369140625
aF490.9655456542969
aF494.462158203125
aF498.448974609375
aF502.7298889160156
aF507.076171875
aF511.48779296875
aF517.3372802734375
aF521.8142700195312
aF526.6507568359375
aF531.9773559570312
aF537.8922119140625
aF543.8070678710938
aF549.2317504882812
aF554.2315673828125
aF559.427490234375
aF566.8782958984375
aF572.07421875
aF576.3551025390625
aF579.8843994140625
aF583.3810424804688
aF587.1390991210938
aF591.0278930664062
aF594.7859497070312
aF598.2171630859375
aF602.334716796875
aF605.2758178710938
aF608.4783325195312
aF612.1056518554688
aF616.2232055664062
aF620.6021118164062
aF625.1444702148438
aF629.8175659179688
aF634.6867065429688
aF641.7453002929688
aF647.1699829101562
aF652.3985595703125
aF657.3003540039062
aF662.1368408203125
aF667.4634399414062
aF673.2802734375
aF678.9010009765625
aF684.979248046875
aF688.77001953125
aF692.7568359375
aF697.59326171875
aF703.115966796875
aF708.409912109375
aF712.7235107421875
aF716.1875
aF719.7494506835938
aF725.2721557617188
aF729.5203857421875
aF733.180419921875
aF735.7947387695312
aF737.6901245117188
aF739.814208984375
aF743.0167236328125
aF746.872802734375
aF750.0753173828125
aF752.1014404296875
aF752.5262451171875
aF753.4739379882812
aF754.61767578125
aF756.186279296875
aF757.6895141601562
aF758.3103637695312
aF757.0032348632812
aF456.881591796875
aF456.62017822265625
aF456.3587341308594
aF455.73785400390625
aF455.0842590332031
aF454.3326721191406
aF453.6463928222656
aF452.9928283691406
aF452.96014404296875
aF453.7117614746094
aF455.4764099121094
aF458.221435546875
aF461.68536376953125
aF465.737548828125
aF470.5086364746094
aF477.89404296875
aF483.8415832519531
aF489.7237548828125
aF495.5405578613281
aF501.32470703125
aF507.2068786621094
aF513.25244140625
aF519.5267333984375
aF526.0625
aF532.7616577148438
aF535.0164794921875
aF541.8136596679688
aF548.5454711914062
aF555.27734375
aF561.7150268554688
aF567.7932739257812
aF573.8388671875
aF580.3419189453125
aF587.6619262695312
aF595.47216796875
aF603.1516723632812
aF605.5698852539062
aF612.5304565429688
aF619.556396484375
aF627.1705932617188
aF635.2421875
aF643.2811889648438
aF651.0914306640625
aF658.8035888671875
aF666.646484375
aF677.0056762695312
aF684.587158203125
aF692.0379028320312
aF699.4886474609375
aF707.102783203125
aF714.7822875976562
aF722.4945068359375
aF730.1740112304688
aF737.5593872070312
aF744.683349609375
aF747.0361938476562
aF754.2908935546875
aF761.6109619140625
aF768.4734497070312
aF774.4210205078125
aF779.616943359375
aF784.4207153320312
aF789.0610961914062
aF793.4400634765625
aF798.4398803710938
aF801.1522216796875
aF802.6881103515625
aF803.2109985351562
aF802.81884765625
aF801.3156127929688
aF798.7012939453125
aF795.302734375
aF791.6427001953125
aF786.7081909179688
aF782.3946533203125
aF777.0026245117188
aF770.5322265625
aF763.669677734375
aF756.1209106445312
aF752.3628540039062
aF749.5851440429688
aF746.4806518554688
asS'x'
p11
(lp12
F2868.905517578125
aF2868.872802734375
aF2869.13427734375
aF2870.179931640625
aF2871.2255859375
aF2872.303955078125
aF2873.284423828125
aF2874.36279296875
aF2876.029541015625
aF2879.42822265625
aF2882.630615234375
aF2885.898681640625
aF2888.872314453125
aF2891.48681640625
aF2893.905029296875
aF2896.29052734375
aF2899.329833984375
aF2901.029052734375
aF2901.976806640625
aF2902.434326171875
aF2902.859130859375
aF2903.3818359375
aF2903.8720703125
aF2904.231689453125
aF2904.689208984375
aF2904.950439453125
aF2905.081298828125
aF2905.048583984375
aF2904.75439453125
aF2904.32958984375
aF2903.9375
aF2903.3818359375
aF2902.434326171875
aF2900.636962890625
aF2899.329833984375
aF2898.316650390625
aF2897.467041015625
aF2896.42138671875
aF2894.9833984375
aF2893.25146484375
aF2891.3232421875
aF2889.395263671875
aF2886.9443359375
aF2885.277587890625
aF2883.676513671875
aF2882.04248046875
aF2880.27783203125
aF2878.44775390625
aF2876.5849609375
aF2874.624267578125
aF2872.53271484375
aF2869.55908203125
aF2867.271484375
aF2865.147216796875
aF2863.12109375
aF2861.09521484375
aF2858.84033203125
aF2856.323974609375
aF2853.8076171875
aF2851.1279296875
aF2849.39599609375
aF2847.402587890625
aF2844.82080078125
aF2841.84716796875
aF2839.00390625
aF2836.618408203125
aF2834.755615234375
aF2833.056396484375
aF2830.801513671875
aF2829.16748046875
aF2827.76220703125
aF2826.716552734375
aF2825.932373046875
aF2825.050048828125
aF2823.8408203125
aF2822.5009765625
aF2821.389892578125
aF2820.6708984375
aF2820.442138671875
aF2820.017333984375
aF2819.527099609375
aF2818.87353515625
aF2818.219970703125
aF2817.729736328125
aF2817.370361328125
aF2874.591552734375
aF2874.656982421875
aF2874.722412109375
aF2874.624267578125
aF2874.101318359375
aF2873.186279296875
aF2872.10791015625
aF2870.212646484375
aF2868.1865234375
aF2865.8662109375
aF2863.513427734375
aF2861.45458984375
aF2859.6572265625
aF2858.023193359375
aF2856.421875
aF2854.19970703125
aF2852.663818359375
aF2851.389404296875
aF2850.441650390625
aF2849.7880859375
aF2849.199951171875
aF2848.677001953125
aF2848.154052734375
aF2847.794677734375
aF2847.5986328125
aF2847.5986328125
aF2847.533203125
aF2847.337158203125
aF2846.879638671875
aF2846.29150390625
aF2845.86669921875
aF2845.703125
aF2845.605224609375
aF2845.4091796875
aF2844.95166015625
aF2844.46142578125
aF2844.33056640625
aF2844.0693359375
aF2844.00390625
aF2844.00390625
aF2844.00390625
aF2844.00390625
aF2844.134521484375
aF2844.46142578125
aF2844.82080078125
aF2845.4091796875
aF2845.997314453125
aF2846.879638671875
aF2848.186767578125
aF2849.75537109375
aF2851.52001953125
aF2853.3173828125
aF2855.212890625
aF2857.4677734375
aF2860.11474609375
aF2861.09521484375
aF2864.13427734375
aF2867.3369140625
aF2870.702880859375
aF2874.264892578125
aF2877.9248046875
aF2881.61767578125
aF2885.310302734375
aF2888.970458984375
aF2893.872314453125
aF2897.56494140625
aF2901.15966796875
aF2904.689208984375
aF2908.218505859375
aF2911.9765625
aF2916.126953125
aF2920.60400390625
aF2925.146240234375
aF2930.734375
aF2934.623291015625
aF2938.44677734375
aF2942.302978515625
aF2946.0283203125
aF2950.0478515625
aF2952.073974609375
aF2953.642578125
aF2955.113037109375
as.