(dp0
S'y_tilt'
p1
(lp2
I8
aI8
aI8
aI8
aI8
aI9
aI9
aI10
aI10
aI10
aI11
aI11
aI12
aI12
aI13
aI14
aI15
aI15
aI15
aI16
aI16
aI16
aI16
aI16
aI17
aI17
aI17
aI17
aI17
aI17
aI17
aI16
aI16
aI15
aI14
aI13
aI13
aI12
aI12
aI11
aI11
aI10
aI10
aI10
aI9
aI9
aI9
aI9
aI9
aI9
aI9
aI9
aI10
asS'pressure'
p3
(lp4
F0.34765625
aF0.392578125
aF0.42626953125
aF0.44189453125
aF0.45068359375
aF0.4716796875
aF0.4951171875
aF0.5146484375
aF0.52880859375
aF0.53662109375
aF0.54296875
aF0.548828125
aF0.54931640625
aF0.55029296875
aF0.54833984375
aF0.54638671875
aF0.54150390625
aF0.541015625
aF0.541015625
aF0.54296875
aF0.54296875
aF0.53857421875
aF0.52734375
aF0.51318359375
aF0.4951171875
aF0.4833984375
aF0.4833984375
aF0.4892578125
aF0.5
aF0.515625
aF0.5263671875
aF0.53271484375
aF0.53759765625
aF0.53955078125
aF0.5380859375
aF0.53564453125
aF0.53564453125
aF0.53759765625
aF0.546875
aF0.55419921875
aF0.564453125
aF0.56494140625
aF0.5634765625
aF0.56298828125
aF0.56103515625
aF0.5615234375
aF0.5615234375
aF0.56494140625
aF0.5732421875
aF0.56640625
aF0.5322265625
aF0.45947265625
aF0.03564453125
asS'x_tilt'
p5
(lp6
I27
aI27
aI27
aI27
aI27
aI27
aI26
aI26
aI26
aI26
aI25
aI25
aI24
aI23
aI23
aI23
aI23
aI23
aI22
aI22
aI22
aI22
aI23
aI23
aI23
aI23
aI23
aI23
aI23
aI23
aI24
aI24
aI24
aI23
aI23
aI22
aI22
aI22
aI22
aI22
aI22
aI22
aI22
aI22
aI21
aI21
aI21
aI21
aI21
aI21
aI21
aI21
aI21
asS'time'
p7
(lp8
I545
aI563
aI580
aI596
aI613
aI629
aI646
aI661
aI677
aI693
aI710
aI726
aI743
aI760
aI777
aI793
aI810
aI827
aI843
aI860
aI876
aI893
aI910
aI926
aI943
aI960
aI976
aI976
aI993
aI1010
aI1027
aI1043
aI1060
aI1076
aI1093
aI1110
aI1110
aI1126
aI1143
aI1160
aI1176
aI1193
aI1210
aI1226
aI1243
aI1260
aI1276
aI1276
aI1293
aI1310
aI1326
aI1343
aI1360
asS'y'
p9
(lp10
F772.3622436523438
aF766.2186279296875
aF752.42822265625
aF731.4811401367188
aF713.2463989257812
aF694.9789428710938
aF676.0252685546875
aF655.405029296875
aF633.2488403320312
aF609.2952880859375
aF585.9299926757812
aF563.871826171875
aF542.4019165039062
aF520.6705322265625
aF500.4096984863281
aF481.8808288574219
aF460.4109191894531
aF445.77081298828125
aF432.6993103027344
aF422.47088623046875
aF417.1769104003906
aF412.30780029296875
aF406.42559814453125
aF402.9943542480469
aF402.6022033691406
aF406.7197265625
aF410.0529479980469
aF428.5818176269531
aF451.7183532714844
aF473.97259521484375
aF496.7170104980469
aF519.9842529296875
aF545.9312133789062
aF574.5904541015625
aF604.556884765625
aF634.621337890625
aF644.3922729492188
aF672.5613403320312
aF699.129150390625
aF724.4552001953125
aF747.1015625
aF766.54541015625
aF782.3292846679688
aF793.766845703125
aF798.7012939453125
aF802.6881103515625
aF804.2240600585938
aF807.6226196289062
aF806.8383178710938
aF797.4921875
aF782.49267578125
aF768.3427734375
aF753.27783203125
asS'x'
p11
(lp12
F2798.71044921875
aF2801.586181640625
aF2809.13525390625
aF2820.965087890625
aF2831.84716796875
aF2842.500732421875
aF2852.85986328125
aF2862.957763671875
aF2873.12109375
aF2883.088134765625
aF2891.748046875
aF2898.414794921875
aF2904.068115234375
aF2909.2314453125
aF2913.185791015625
aF2915.04833984375
aF2914.427490234375
aF2911.64990234375
aF2907.662841796875
aF2903.3818359375
aF2900.3427734375
aF2896.6826171875
aF2890.833251953125
aF2884.558837890625
aF2878.349609375
aF2871.650390625
aF2868.93798828125
aF2860.245361328125
aF2853.873046875
aF2850.24560546875
aF2848.219482421875
aF2848.186767578125
aF2849.624755859375
aF2851.748779296875
aF2854.36328125
aF2856.683349609375
aF2857.43505859375
aF2859.787841796875
aF2862.206298828125
aF2864.787841796875
aF2868.48046875
aF2873.774658203125
aF2880.2451171875
aF2886.51953125
aF2890.702392578125
aF2895.735107421875
aF2898.1533203125
aF2906.6826171875
aF2918.34912109375
aF2933.8388671875
aF2947.2373046875
aF2956.943115234375
aF2964.067138671875
as.