(dp0
S'y_tilt'
p1
(lp2
I-1
aI0
aI0
aI2
aI3
aI6
aI8
aI11
aI13
aI14
aI14
aI14
aI13
aI12
aI11
aI9
aI7
aI5
aI3
aI1
aI0
aI-1
aI-2
aI-1
aI-1
aI0
asS'pressure'
p3
(lp4
F0.4775390625
aF0.52001953125
aF0.541015625
aF0.53857421875
aF0.509765625
aF0.490234375
aF0.4638671875
aF0.44580078125
aF0.44970703125
aF0.458984375
aF0.49169921875
aF0.5185546875
aF0.53369140625
aF0.54248046875
aF0.54443359375
aF0.53076171875
aF0.525390625
aF0.53125
aF0.54541015625
aF0.55224609375
aF0.5546875
aF0.572265625
aF0.599609375
aF0.59130859375
aF0.5478515625
aF0.291015625
asS'x_tilt'
p5
(lp6
I25
aI25
aI24
aI24
aI23
aI22
aI21
aI21
aI21
aI21
aI22
aI23
aI23
aI24
aI25
aI25
aI25
aI25
aI25
aI25
aI25
aI24
aI23
aI22
aI21
aI20
asS'time'
p7
(lp8
I186
aI204
aI220
aI236
aI252
aI269
aI285
aI302
aI318
aI335
aI351
aI367
aI383
aI398
aI414
aI429
aI445
aI461
aI477
aI494
aI511
aI526
aI542
aI557
aI573
aI588
asS'y'
p9
(lp10
F764.8134765625
aF727.9844970703125
aF680.3062133789062
aF618.05322265625
aF549.3297729492188
aF483.6455078125
aF430.5751953125
aF396.09912109375
aF380.9361877441406
aF381.06689453125
aF392.7005310058594
aF413.0267028808594
aF442.9277648925781
aF483.2206726074219
aF533.57861328125
aF589.2305297851562
aF642.5296020507812
aF687.5935668945312
aF722.3964233398438
aF748.9642944335938
aF767.3624267578125
aF772.4276123046875
aF759.5521850585938
aF728.343994140625
aF701.0899047851562
aF656.02587890625
asS'x'
p11
(lp12
F4453.482421875
aF4480.279296875
aF4505.376953125
aF4533.2197265625
aF4561.12744140625
aF4584.46044921875
aF4598.185546875
aF4599.296875
aF4589.68896484375
aF4574.8857421875
aF4559.29736328125
aF4544.75537109375
aF4533.0888671875
aF4524.265625
aF4517.53369140625
aF4513.2197265625
aF4512.23974609375
aF4515.27880859375
aF4523.416015625
aF4535.833984375
aF4553.0556640625
aF4574.65673828125
aF4601.22509765625
aF4630.5380859375
aF4649.361328125
aF4673.837890625
as.