(dp0
S'y_tilt'
p1
(lp2
I9
aI9
aI9
aI9
aI8
aI8
aI8
aI7
aI7
aI6
aI5
aI4
aI4
aI4
aI4
aI4
aI4
aI4
aI3
aI3
aI3
aI3
aI3
aI3
aI4
aI5
aI5
aI5
aI5
aI5
aI5
aI5
aI6
aI6
aI6
aI6
aI6
aI6
aI6
aI7
aI7
aI7
aI7
aI8
aI8
aI8
aI8
aI9
aI9
aI9
aI9
aI10
aI10
aI10
aI10
aI11
aI11
aI12
aI12
aI12
aI12
aI12
aI12
aI12
aI13
aI13
aI13
aI14
aI14
aI14
aI14
aI14
aI14
aI14
aI13
aI13
aI13
aI13
aI13
aI13
aI13
aI13
aI12
aI12
aI12
aI11
aI11
aI11
aI11
aI11
aI11
aI10
aI9
aI9
aI9
aI8
aI7
asS'pressure'
p3
(lp4
F0.341796875
aF0.3623046875
aF0.36376953125
aF0.37353515625
aF0.38671875
aF0.39794921875
aF0.4111328125
aF0.42724609375
aF0.44775390625
aF0.4580078125
aF0.4599609375
aF0.4599609375
aF0.46240234375
aF0.46240234375
aF0.462890625
aF0.46728515625
aF0.46923828125
aF0.47314453125
aF0.4697265625
aF0.46923828125
aF0.4765625
aF0.47900390625
aF0.48779296875
aF0.48876953125
aF0.49560546875
aF0.501953125
aF0.50634765625
aF0.515625
aF0.53076171875
aF0.533203125
aF0.5322265625
aF0.5322265625
aF0.53369140625
aF0.5390625
aF0.54248046875
aF0.5439453125
aF0.54345703125
aF0.54345703125
aF0.54736328125
aF0.546875
aF0.548828125
aF0.54931640625
aF0.5498046875
aF0.55322265625
aF0.552734375
aF0.55322265625
aF0.55517578125
aF0.5556640625
aF0.55615234375
aF0.5615234375
aF0.5615234375
aF0.56201171875
aF0.56298828125
aF0.5625
aF0.560546875
aF0.55859375
aF0.556640625
aF0.5546875
aF0.548828125
aF0.5400390625
aF0.537109375
aF0.52783203125
aF0.5185546875
aF0.52001953125
aF0.52294921875
aF0.52685546875
aF0.53076171875
aF0.533203125
aF0.53759765625
aF0.53759765625
aF0.5390625
aF0.54345703125
aF0.546875
aF0.5517578125
aF0.5537109375
aF0.55712890625
aF0.56103515625
aF0.56884765625
aF0.57275390625
aF0.578125
aF0.58251953125
aF0.5859375
aF0.58642578125
aF0.59228515625
aF0.59521484375
aF0.60009765625
aF0.603515625
aF0.6044921875
aF0.607421875
aF0.611328125
aF0.61376953125
aF0.6123046875
aF0.60986328125
aF0.59228515625
aF0.546875
aF0.4501953125
aF0.14794921875
asS'x_tilt'
p5
(lp6
I26
aI26
aI26
aI26
aI26
aI26
aI26
aI26
aI26
aI26
aI26
aI26
aI26
aI26
aI26
aI25
aI25
aI25
aI25
aI26
aI26
aI26
aI26
aI26
aI26
aI26
aI26
aI26
aI26
aI26
aI26
aI26
aI26
aI26
aI26
aI26
aI26
aI26
aI26
aI26
aI26
aI26
aI26
aI26
aI26
aI26
aI26
aI26
aI26
aI26
aI26
aI26
aI26
aI26
aI26
aI26
aI26
aI27
aI27
aI27
aI27
aI27
aI27
aI27
aI27
aI27
aI27
aI27
aI26
aI26
aI26
aI26
aI26
aI26
aI26
aI26
aI26
aI26
aI26
aI26
aI26
aI26
aI26
aI27
aI27
aI27
aI27
aI27
aI27
aI27
aI27
aI28
aI28
aI28
aI28
aI28
aI28
asS'time'
p7
(lp8
I579
aI597
aI615
aI631
aI648
aI664
aI680
aI696
aI713
aI729
aI745
aI761
aI777
aI793
aI809
aI826
aI842
aI858
aI874
aI891
aI907
aI924
aI924
aI942
aI958
aI974
aI991
aI1008
aI1024
aI1041
aI1058
aI1074
aI1074
aI1092
aI1108
aI1124
aI1141
aI1158
aI1174
aI1191
aI1207
aI1224
aI1241
aI1258
aI1275
aI1291
aI1308
aI1324
aI1341
aI1358
aI1374
aI1374
aI1391
aI1408
aI1424
aI1441
aI1458
aI1474
aI1491
aI1508
aI1525
aI1541
aI1558
aI1575
aI1591
aI1608
aI1624
aI1641
aI1658
aI1674
aI1674
aI1691
aI1708
aI1725
aI1741
aI1758
aI1774
aI1791
aI1808
aI1824
aI1841
aI1858
aI1875
aI1891
aI1908
aI1924
aI1941
aI1958
aI1974
aI1991
aI2008
aI2025
aI2041
aI2058
aI2074
aI2091
aI2108
asS'y'
p9
(lp10
F723.8016357421875
aF723.7689208984375
aF724.12841796875
aF725.697021484375
aF728.99755859375
aF734.0300903320312
aF740.5658569335938
aF748.245361328125
aF756.2843017578125
aF763.6370239257812
aF770.1727905273438
aF776.31640625
aF782.263916015625
aF787.133056640625
aF790.204833984375
aF791.4139404296875
aF791.3812866210938
aF790.3682250976562
aF788.6689453125
aF785.9566040039062
aF782.0678100585938
aF780.5319213867188
aF775.5974731445312
aF770.4015502929688
aF764.9768676757812
aF759.029296875
aF752.4935913085938
aF745.5330200195312
aF738.3109741210938
aF730.76220703125
aF722.2657470703125
aF718.6383666992188
aF704.880615234375
aF694.9136352539062
aF689.7503662109375
aF680.2408447265625
aF665.6987915039062
aF652.9867553710938
aF647.398681640625
aF637.725830078125
aF623.0203857421875
aF608.4783325195312
aF597.6289672851562
aF586.877685546875
aF576.0283203125
aF566.3880615234375
aF558.9373168945312
aF546.7154541015625
aF534.4609375
aF524.526611328125
aF522.0103759765625
aF516.552978515625
aF510.86688232421875
aF501.71685791015625
aF489.3642883300781
aF481.652099609375
aF473.5804443359375
aF465.1820068359375
aF457.92730712890625
aF450.08441162109375
aF445.77081298828125
aF442.89508056640625
aF441.4898986816406
aF441.35919189453125
aF442.4375915527344
aF445.1499328613281
aF449.7249450683594
aF456.06463623046875
aF463.4826965332031
aF466.0643310546875
aF471.2929382324219
aF481.9461975097656
aF490.3446350097656
aF499.2986145019531
aF508.5140380859375
aF517.6314086914062
aF527.9252319335938
aF542.3692016601562
aF555.473388671875
aF563.8391723632812
aF581.35498046875
aF592.8251953125
aF604.2627563476562
aF616.1251220703125
aF628.9025268554688
aF641.7125854492188
aF654.3265991210938
aF667.6595458984375
aF681.25390625
aF698.93310546875
aF712.6908569335938
aF725.8276977539062
aF737.5593872070312
aF745.5003051757812
aF749.9446411132812
aF755.5980224609375
aF761.480224609375
asS'x'
p11
(lp12
F2963.8056640625
aF2963.184814453125
aF2962.5966796875
aF2961.812255859375
aF2960.37451171875
aF2957.890869140625
aF2954.03466796875
aF2948.805908203125
aF2942.727783203125
aF2936.68212890625
aF2930.995849609375
aF2925.4404296875
aF2920.015625
aF2914.950439453125
aF2910.5712890625
aF2906.64990234375
aF2902.859130859375
aF2898.97021484375
aF2895.146728515625
aF2891.552001953125
aF2888.31689453125
aF2887.33642578125
aF2884.526123046875
aF2881.715576171875
aF2878.83984375
aF2875.898681640625
aF2873.12109375
aF2870.539306640625
aF2868.08837890625
aF2865.89892578125
aF2863.807373046875
aF2863.055908203125
aF2860.801025390625
aF2859.591796875
aF2858.938232421875
aF2857.8271484375
aF2856.45458984375
aF2855.67041015625
aF2855.376220703125
aF2855.049560546875
aF2854.853271484375
aF2854.82080078125
aF2855.11474609375
aF2855.735595703125
aF2856.389404296875
aF2857.271728515625
aF2858.055908203125
aF2859.1669921875
aF2860.11474609375
aF2861.258544921875
aF2861.585205078125
aF2862.40234375
aF2863.21923828125
aF2864.55908203125
aF2866.683349609375
aF2868.447998046875
aF2870.7353515625
aF2873.48046875
aF2876.291015625
aF2880.2451171875
aF2883.25146484375
aF2885.99658203125
aF2888.153564453125
aF2889.72216796875
aF2891.06201171875
aF2892.597900390625
aF2894.362548828125
aF2896.159912109375
aF2897.891845703125
aF2898.414794921875
aF2899.39501953125
aF2900.963623046875
aF2901.845947265625
aF2902.56494140625
aF2903.251220703125
aF2903.806884765625
aF2904.133544921875
aF2904.198974609375
aF2903.54541015625
aF2902.56494140625
aF2900.114013671875
aF2897.924560546875
aF2894.59130859375
aF2889.918212890625
aF2883.970458984375
aF2876.813720703125
aF2869.06884765625
aF2861.3564453125
aF2853.84033203125
aF2843.807861328125
aF2836.35693359375
aF2829.29833984375
aF2823.121826171875
aF2819.396484375
aF2817.59912109375
aF2815.4423828125
aF2813.44873046875
as.