(dp0
S'y_tilt'
p1
(lp2
I-1
aI0
aI0
aI0
aI1
aI3
aI5
aI7
aI9
aI11
aI12
aI13
aI13
aI14
aI14
aI13
aI12
aI12
aI11
aI9
aI8
aI6
aI4
aI3
aI1
aI0
aI-2
aI-3
aI-4
aI-5
aI-6
aI-5
aI-4
asS'pressure'
p3
(lp4
F0.3369140625
aF0.4482421875
aF0.45556640625
aF0.4560546875
aF0.4619140625
aF0.4716796875
aF0.46142578125
aF0.45361328125
aF0.45361328125
aF0.46435546875
aF0.466796875
aF0.45166015625
aF0.44921875
aF0.451171875
aF0.4599609375
aF0.4833984375
aF0.50341796875
aF0.50634765625
aF0.50634765625
aF0.49951171875
aF0.49462890625
aF0.4951171875
aF0.4970703125
aF0.498046875
aF0.5029296875
aF0.51318359375
aF0.5146484375
aF0.5087890625
aF0.51025390625
aF0.5107421875
aF0.48974609375
aF0.42041015625
aF0.177734375
asS'x_tilt'
p5
(lp6
I24
aI25
aI25
aI25
aI25
aI24
aI24
aI24
aI24
aI24
aI24
aI25
aI25
aI25
aI25
aI26
aI26
aI26
aI27
aI27
aI27
aI27
aI27
aI27
aI27
aI28
aI28
aI28
aI28
aI27
aI27
aI26
aI25
asS'time'
p7
(lp8
I212
aI231
aI247
aI262
aI279
aI279
aI295
aI312
aI327
aI344
aI360
aI376
aI391
aI407
aI407
aI422
aI440
aI457
aI473
aI490
aI506
aI523
aI540
aI557
aI574
aI591
aI606
aI623
aI639
aI656
aI673
aI690
aI707
asS'y'
p9
(lp10
F760.2057495117188
aF694.8809204101562
aF633.9024047851562
aF589.6880493164062
aF567.17236328125
aF500.60577392578125
aF439.59454345703125
aF386.6222839355469
aF357.5382080078125
aF317.9642333984375
aF304.76202392578125
aF302.4091491699219
aF306.29791259765625
aF309.8272399902344
aF320.0556640625
aF342.21185302734375
aF380.2172546386719
aF412.9940490722656
aF448.4178161621094
aF486.78265380859375
aF527.6637573242188
aF570.048095703125
aF612.7265625
aF655.2416381835938
aF709.978515625
aF744.683349609375
aF769.6826171875
aF783.6690673828125
aF788.4075317382812
aF784.3880004882812
aF772.525634765625
aF752.2321166992188
aF721.3180541992188
asS'x'
p11
(lp12
F4486.03076171875
aF4510.376953125
aF4533.4482421875
aF4550.572265625
aF4559.3955078125
aF4584.2646484375
aF4604.49267578125
aF4617.30322265625
aF4621.1591796875
aF4618.15283203125
aF4608.185546875
aF4592.63037109375
aF4580.767578125
aF4574.85302734375
aF4563.12109375
aF4546.0625
aF4528.97119140625
aF4521.78173828125
aF4519.0693359375
aF4519.52685546875
aF4521.35693359375
aF4523.05615234375
aF4524.39599609375
aF4525.60546875
aF4528.12158203125
aF4532.14111328125
aF4539.39599609375
aF4550.80078125
aF4566.74853515625
aF4585.8984375
aF4607.66259765625
aF4629.59033203125
aF4650.5703125
as.