(dp0
S'y_tilt'
p1
(lp2
I-1
aI-2
aI-2
aI-1
aI0
aI0
aI2
aI4
aI6
aI9
aI11
aI13
aI14
aI15
aI16
aI16
aI15
aI14
aI13
aI11
aI9
aI7
aI5
aI4
aI2
aI1
aI0
aI0
aI-1
aI-2
aI-3
aI-4
aI-4
aI-3
asS'pressure'
p3
(lp4
F0.388671875
aF0.41162109375
aF0.4296875
aF0.44384765625
aF0.44580078125
aF0.4482421875
aF0.4501953125
aF0.45068359375
aF0.4443359375
aF0.4228515625
aF0.412109375
aF0.423828125
aF0.435546875
aF0.4365234375
aF0.4404296875
aF0.44677734375
aF0.44970703125
aF0.45361328125
aF0.458984375
aF0.46630859375
aF0.47412109375
aF0.47802734375
aF0.4873046875
aF0.4921875
aF0.49267578125
aF0.49267578125
aF0.4921875
aF0.490234375
aF0.49267578125
aF0.49755859375
aF0.50341796875
aF0.5048828125
aF0.46435546875
aF0.2880859375
asS'x_tilt'
p5
(lp6
I29
aI30
aI30
aI30
aI29
aI29
aI28
aI27
aI26
aI26
aI26
aI26
aI26
aI27
aI27
aI27
aI27
aI28
aI28
aI28
aI28
aI28
aI29
aI29
aI29
aI29
aI29
aI29
aI29
aI29
aI29
aI29
aI28
aI27
asS'time'
p7
(lp8
I180
aI198
aI214
aI214
aI230
aI246
aI263
aI279
aI296
aI312
aI329
aI345
aI362
aI378
aI395
aI412
aI428
aI445
aI461
aI478
aI495
aI512
aI528
aI545
aI562
aI578
aI595
aI595
aI612
aI628
aI645
aI662
aI678
aI695
asS'y'
p9
(lp10
F765.467041015625
aF754.9444580078125
aF744.1931762695312
aF715.2724609375
aF663.2479248046875
aF602.4654541015625
aF518.8405151367188
aF460.868408203125
aF409.85687255859375
aF367.53790283203125
aF335.8721923828125
aF314.5656433105469
aF303.55291748046875
aF302.0496826171875
aF311.003662109375
aF331.1991271972656
aF361.2962646484375
aF413.9090576171875
aF458.61358642578125
aF504.6579284667969
aF550.4408569335938
aF595.5701904296875
aF639.6538696289062
aF680.2735595703125
aF714.5862426757812
aF740.0103149414062
aF746.6113891601562
aF761.3822021484375
aF769.1270751953125
aF772.3949584960938
aF772.068115234375
aF765.5650634765625
aF747.0689086914062
aF712.5601196289062
asS'x'
p11
(lp12
F4477.1748046875
aF4485.3447265625
aF4490.998046875
aF4504.1025390625
aF4525.4091796875
aF4550.310546875
aF4585.27734375
aF4607.49951171875
aF4623.1201171875
aF4631.224609375
aF4631.8779296875
aF4626.25732421875
aF4616.4208984375
aF4602.59765625
aF4585.24462890625
aF4566.51953125
aF4547.43505859375
aF4526.9453125
aF4517.3046875
aF4512.435546875
aF4510.40966796875
aF4509.85400390625
aF4511.0302734375
aF4514.2001953125
aF4520.01708984375
aF4527.5986328125
aF4530.50732421875
aF4540.703125
aF4553.28466796875
aF4568.12109375
aF4584.068359375
aF4601.29052734375
aF4618.185546875
aF4633.74072265625
as.