(dp0
S'y_tilt'
p1
(lp2
I-4
aI-4
aI-3
aI-2
aI-1
aI1
aI3
aI5
aI7
aI9
aI9
aI10
aI11
aI11
aI10
aI10
aI9
aI8
aI7
aI4
aI2
aI1
aI0
aI-1
aI-2
aI-3
aI-4
aI-5
aI-6
aI-6
aI-5
aI-4
aI-3
aI-3
aI-3
aI-2
aI-1
aI0
aI1
aI3
aI4
aI6
aI7
aI8
aI10
aI11
aI11
aI12
aI12
aI11
aI10
aI8
aI6
aI4
aI2
aI1
aI0
aI0
aI-1
aI-2
aI-2
aI-3
aI-3
aI-2
aI0
aI0
asS'pressure'
p3
(lp4
F0.38525390625
aF0.4208984375
aF0.43701171875
aF0.44140625
aF0.439453125
aF0.43603515625
aF0.41845703125
aF0.42041015625
aF0.4365234375
aF0.453125
aF0.46435546875
aF0.4580078125
aF0.44287109375
aF0.4453125
aF0.4541015625
aF0.4560546875
aF0.46044921875
aF0.46875
aF0.48486328125
aF0.53271484375
aF0.556640625
aF0.55908203125
aF0.5556640625
aF0.5458984375
aF0.5400390625
aF0.5341796875
aF0.525390625
aF0.51806640625
aF0.51904296875
aF0.51904296875
aF0.4765625
aF0.20263671875
aF0.4345703125
aF0.4521484375
aF0.47705078125
aF0.484375
aF0.4892578125
aF0.49072265625
aF0.48876953125
aF0.4921875
aF0.50341796875
aF0.5078125
aF0.50830078125
aF0.51025390625
aF0.52197265625
aF0.5146484375
aF0.5009765625
aF0.49658203125
aF0.49755859375
aF0.50341796875
aF0.513671875
aF0.5419921875
aF0.5546875
aF0.55419921875
aF0.55224609375
aF0.54638671875
aF0.54443359375
aF0.54345703125
aF0.53564453125
aF0.5302734375
aF0.52294921875
aF0.51416015625
aF0.50830078125
aF0.4892578125
aF0.466796875
aF0.34326171875
asS'x_tilt'
p5
(lp6
I29
aI30
aI29
aI29
aI29
aI28
aI28
aI28
aI28
aI28
aI29
aI29
aI29
aI30
aI30
aI30
aI30
aI30
aI30
aI30
aI31
aI31
aI30
aI30
aI30
aI30
aI30
aI29
aI29
aI28
aI28
aI27
aI27
aI28
aI28
aI28
aI27
aI27
aI26
aI26
aI26
aI26
aI26
aI26
aI26
aI26
aI27
aI27
aI27
aI27
aI28
aI29
aI29
aI29
aI29
aI29
aI29
aI28
aI28
aI28
aI28
aI29
aI28
aI28
aI27
aI26
asS'time'
p7
(lp8
I165
aI183
aI200
aI217
aI233
aI249
aI266
aI283
aI299
aI315
aI332
aI348
aI364
aI381
aI397
aI413
aI413
aI430
aI446
aI463
aI479
aI495
aI513
aI530
aI546
aI563
aI579
aI595
aI613
aI629
aI646
aI662
aI1195
aI1212
aI1230
aI1245
aI1262
aI1279
aI1296
aI1312
aI1329
aI1345
aI1362
aI1378
aI1395
aI1412
aI1429
aI1445
aI1462
aI1479
aI1496
aI1513
aI1530
aI1546
aI1563
aI1580
aI1596
aI1612
aI1630
aI1647
aI1663
aI1679
aI1696
aI1714
aI1730
aI1746
asS'y'
p9
(lp10
F767.7872314453125
aF737.3306274414062
aF696.25341796875
aF641.6145629882812
aF581.2896118164062
aF522.5985717773438
aF469.0380859375
aF423.45123291015625
aF388.74639892578125
aF366.19805908203125
aF356.7212219238281
aF354.6624755859375
aF355.1853332519531
aF368.42022705078125
aF400.8702087402344
aF413.28814697265625
aF439.03900146484375
aF483.1553039550781
aF530.8989868164062
aF592.6618041992188
aF633.7716674804688
aF669.3588256835938
aF699.6846923828125
aF725.697021484375
aF746.9381713867188
aF762.787353515625
aF769.7152709960938
aF773.865478515625
aF777.6889038085938
aF764.4539794921875
aF737.9188232421875
aF697.822021484375
aF767.5258178710938
aF755.3366088867188
aF728.57275390625
aF691.7764282226562
aF645.3726196289062
aF593.511474609375
aF540.5391845703125
aF488.8414306640625
aF440.24810791015625
aF396.4259033203125
aF358.8453369140625
aF329.3691101074219
aF310.18670654296875
aF308.19329833984375
aF310.0886535644531
aF328.6501770019531
aF362.1785888671875
aF401.1643371582031
aF447.4701232910156
aF514.7229614257812
aF563.6104125976562
aF606.7136840820312
aF643.869384765625
aF675.698486328125
aF702.919921875
aF726.9061279296875
aF747.755126953125
aF768.8656005859375
aF773.440673828125
aF775.2706298828125
aF759.3887939453125
aF722.6905517578125
aF680.4696044921875
aF633.51025390625
asS'x'
p11
(lp12
F4502.0107421875
aF4523.25244140625
aF4539.75537109375
aF4557.630859375
aF4576.9443359375
aF4593.806640625
aF4605.31005859375
aF4610.27685546875
aF4608.77392578125
aF4602.66259765625
aF4596.2578125
aF4591.5517578125
aF4583.25146484375
aF4569.2646484375
aF4555.6376953125
aF4551.87939453125
aF4545.40869140625
aF4536.3896484375
aF4528.64453125
aF4521.42236328125
aF4520.5400390625
aF4523.8408203125
aF4530.7685546875
aF4539.68994140625
aF4549.1669921875
aF4557.85986328125
aF4563.2841796875
aF4568.4150390625
aF4587.1728515625
aF4607.79345703125
aF4625.603515625
aF4643.25048828125
aF4458.3515625
aF4476.16162109375
aF4496.74951171875
aF4516.84716796875
aF4537.4677734375
aF4556.16015625
aF4571.84619140625
aF4583.41455078125
aF4590.37548828125
aF4592.8916015625
aF4592.20556640625
aF4588.97021484375
aF4583.447265625
aF4580.1796875
aF4572.009765625
aF4556.291015625
aF4540.703125
aF4527.63134765625
aF4514.85400390625
aF4503.02392578125
aF4500.8671875
aF4504.29833984375
aF4511.84716796875
aF4521.32421875
aF4529.65771484375
aF4536.4873046875
aF4543.0888671875
aF4552.04296875
aF4555.3759765625
aF4560.2451171875
aF4578.25146484375
aF4596.22509765625
aF4615.244140625
aF4635.63623046875
as.