(dp0
S'y_tilt'
p1
(lp2
I-6
aI-6
aI-7
aI-7
aI-7
aI-7
aI-7
aI-6
aI-6
aI-5
aI-4
aI-3
aI-2
aI-2
aI-1
aI-1
aI0
aI0
aI1
aI0
aI0
aI0
aI-1
aI-2
aI-3
aI-3
aI-5
aI-6
aI-7
aI-8
aI-9
aI-10
aI-11
aI-11
aI-10
aI-8
asS'pressure'
p3
(lp4
F0.32666015625
aF0.3974609375
aF0.44580078125
aF0.478515625
aF0.4970703125
aF0.51220703125
aF0.5498046875
aF0.5625
aF0.56689453125
aF0.56982421875
aF0.572265625
aF0.572265625
aF0.568359375
aF0.5703125
aF0.57421875
aF0.57421875
aF0.5830078125
aF0.583984375
aF0.58984375
aF0.59228515625
aF0.59716796875
aF0.599609375
aF0.6044921875
aF0.60595703125
aF0.6064453125
aF0.6064453125
aF0.60693359375
aF0.6044921875
aF0.60205078125
aF0.599609375
aF0.59765625
aF0.59423828125
aF0.5712890625
aF0.5400390625
aF0.462890625
aF0.03466796875
asS'x_tilt'
p5
(lp6
I22
aI23
aI23
aI23
aI22
aI22
aI22
aI22
aI22
aI22
aI22
aI22
aI22
aI22
aI23
aI23
aI23
aI23
aI24
aI24
aI24
aI25
aI26
aI26
aI26
aI26
aI26
aI25
aI25
aI25
aI25
aI25
aI25
aI25
aI24
aI23
asS'time'
p7
(lp8
I258
aI277
aI295
aI311
aI328
aI344
aI360
aI378
aI394
aI411
aI428
aI444
aI461
aI478
aI494
aI511
aI512
aI527
aI544
aI561
aI578
aI594
aI611
aI628
aI644
aI644
aI661
aI678
aI694
aI712
aI728
aI744
aI760
aI778
aI794
aI810
asS'y'
p9
(lp10
F724.9453735351562
aF724.4878540039062
aF717.8214111328125
aF697.2338256835938
aF669.7836303710938
aF637.8238525390625
aF589.720703125
aF550.8330078125
aF510.834228515625
aF472.7308044433594
aF440.9997253417969
aF417.7324523925781
aF403.4191589355469
aF398.2232360839844
aF394.2364501953125
aF393.1253662109375
aF398.1252136230469
aF417.3403015136719
aF443.02581787109375
aF474.1686706542969
aF508.0238342285156
aF543.5783081054688
aF579.4269409179688
aF614.7526245117188
aF626.190185546875
aF648.313720703125
aF690.0117797851562
aF718.2135620117188
aF742.68994140625
aF764.6827392578125
aF782.3619384765625
aF791.9368286132812
aF794.8125610351562
aF784.1919555664062
aF751.8073120117188
aF704.0963134765625
asS'x'
p11
(lp12
F4469.59326171875
aF4475.18115234375
aF4487.20703125
aF4506.88037109375
aF4525.24560546875
aF4541.421875
aF4563.251953125
aF4579.03564453125
aF4593.90478515625
aF4605.865234375
aF4613.6103515625
aF4617.23779296875
aF4617.23779296875
aF4615.505859375
aF4610.99609375
aF4607.79345703125
aF4592.0419921875
aF4575.1142578125
aF4561.16015625
aF4548.0234375
aF4537.76171875
aF4531.52001953125
aF4528.74267578125
aF4528.5791015625
aF4528.9384765625
aF4530.212890625
aF4534.16748046875
aF4537.6640625
aF4541.38916015625
aF4544.82080078125
aF4548.3173828125
aF4551.74853515625
aF4557.2060546875
aF4572.27099609375
aF4589.75439453125
aF4609.06787109375
as.