(dp0
S'y_tilt'
p1
(lp2
I-8
aI-8
aI-7
aI-7
aI-6
aI-5
aI-3
aI-3
aI-2
aI-1
aI0
aI0
aI1
aI2
aI3
aI3
aI3
aI2
aI1
aI0
aI-1
aI-2
aI-3
aI-4
aI-5
aI-6
aI-7
aI-7
aI-8
aI-9
aI-9
aI-9
aI-7
asS'pressure'
p3
(lp4
F0.41357421875
aF0.45654296875
aF0.45849609375
aF0.4619140625
aF0.46435546875
aF0.46728515625
aF0.47021484375
aF0.486328125
aF0.4970703125
aF0.5048828125
aF0.509765625
aF0.52587890625
aF0.53955078125
aF0.53125
aF0.5302734375
aF0.5302734375
aF0.52978515625
aF0.53271484375
aF0.55126953125
aF0.57421875
aF0.5810546875
aF0.58056640625
aF0.576171875
aF0.57177734375
aF0.564453125
aF0.55517578125
aF0.54931640625
aF0.54345703125
aF0.541015625
aF0.54248046875
aF0.54248046875
aF0.501953125
aF0.29150390625
asS'x_tilt'
p5
(lp6
I24
aI24
aI24
aI24
aI24
aI24
aI24
aI24
aI24
aI25
aI25
aI25
aI26
aI26
aI26
aI26
aI26
aI26
aI26
aI26
aI27
aI27
aI27
aI27
aI27
aI27
aI27
aI27
aI27
aI27
aI27
aI26
aI25
asS'time'
p7
(lp8
I262
aI281
aI296
aI312
aI328
aI343
aI358
aI374
aI390
aI406
aI423
aI439
aI456
aI472
aI489
aI505
aI522
aI538
aI555
aI572
aI589
aI606
aI622
aI638
aI655
aI672
aI689
aI705
aI722
aI738
aI754
aI771
aI787
asS'y'
p9
(lp10
F738.73583984375
aF700.4363403320312
aF663.6727294921875
aF636.6473999023438
aF595.4395141601562
aF555.2119750976562
aF518.0889282226562
aF486.063720703125
aF458.5482177734375
aF433.8757629394531
aF413.19012451171875
aF402.7655944824219
aF399.9878845214844
aF398.2886047363281
aF406.9484558105469
aF432.4378967285156
aF463.35198974609375
aF496.84771728515625
aF535.5066528320312
aF576.3224487304688
aF615.6349487304688
aF651.418212890625
aF681.9728393554688
aF707.6909790039062
aF729.6837768554688
aF753.4412841796875
aF766.1859741210938
aF772.068115234375
aF775.6954956054688
aF780.5319213867188
aF781.0874633789062
aF769.3231201171875
aF747.2322998046875
asS'x'
p11
(lp12
F4491.7822265625
aF4507.20703125
aF4521.9453125
aF4532.43505859375
aF4547.43505859375
aF4559.29736328125
aF4566.9443359375
aF4571.35595703125
aF4572.9248046875
aF4571.25830078125
aF4566.5849609375
aF4562.5654296875
aF4559.8203125
aF4555.47412109375
aF4544.55908203125
aF4535.31103515625
aF4527.89306640625
aF4520.37646484375
aF4512.435546875
aF4506.5205078125
aF4504.91943359375
aF4507.89306640625
aF4514.4619140625
aF4523.2197265625
aF4531.91259765625
aF4541.912109375
aF4548.1865234375
aF4552.07568359375
aF4555.6376953125
aF4563.12109375
aF4577.69580078125
aF4598.54541015625
aF4619.39453125
as.