(dp0
S'y_tilt'
p1
(lp2
I-1
aI-2
aI-2
aI-3
aI-3
aI-2
aI0
aI2
aI4
aI7
aI10
aI10
aI12
aI15
aI16
aI17
aI18
aI19
aI18
aI17
aI15
aI13
aI11
aI8
aI6
aI4
aI2
aI1
aI-1
aI-2
aI-3
aI-4
asS'pressure'
p3
(lp4
F0.607421875
aF0.58837890625
aF0.54296875
aF0.5517578125
aF0.5625
aF0.5634765625
aF0.5634765625
aF0.5625
aF0.56787109375
aF0.5751953125
aF0.580078125
aF0.58056640625
aF0.583984375
aF0.58544921875
aF0.58447265625
aF0.57763671875
aF0.57568359375
aF0.5849609375
aF0.58984375
aF0.5986328125
aF0.60205078125
aF0.61328125
aF0.630859375
aF0.65185546875
aF0.658203125
aF0.65869140625
aF0.65673828125
aF0.65625
aF0.65185546875
aF0.6337890625
aF0.58251953125
aF0.2548828125
asS'x_tilt'
p5
(lp6
I12
aI12
aI12
aI13
aI14
aI15
aI15
aI16
aI17
aI17
aI17
aI17
aI17
aI17
aI16
aI16
aI16
aI16
aI16
aI16
aI16
aI17
aI17
aI18
aI18
aI19
aI20
aI20
aI20
aI20
aI20
aI20
asS'time'
p7
(lp8
I2243
aI2262
aI2262
aI2283
aI2300
aI2318
aI2335
aI2352
aI2370
aI2387
aI2404
aI2421
aI2421
aI2438
aI2456
aI2473
aI2490
aI2507
aI2525
aI2542
aI2561
aI2579
aI2596
aI2614
aI2630
aI2648
aI2665
aI2683
aI2700
aI2717
aI2735
aI2752
asS'y'
p9
(lp10
F788.8323364257812
aF790.3682250976562
aF792.0675659179688
aF784.0939331054688
aF769.6172485351562
aF744.912109375
aF709.8151245117188
aF651.189453125
aF604.6549072265625
aF559.5582275390625
aF516.4223022460938
aF502.7952575683594
aF465.7702331542969
aF436.8495178222656
aF419.2030029296875
aF412.5692138671875
aF414.5299377441406
aF433.6470031738281
aF458.05804443359375
aF490.86749267578125
aF540.1797485351562
aF579.1981811523438
aF619.1969604492188
aF668.3457641601562
aF698.5736083984375
aF724.7166137695312
aF749.2583618164062
aF772.068115234375
aF795.8256225585938
aF804.4854736328125
aF806.9690551757812
aF808.2108154296875
asS'x'
p11
(lp12
F4602.92431640625
aF4597.107421875
aF4575.8330078125
aF4547.79443359375
aF4528.67724609375
aF4511.55322265625
aF4497.59912109375
aF4487.23974609375
aF4488.97216796875
aF4497.79541015625
aF4512.435546875
aF4518.28515625
aF4538.0888671875
aF4559.8857421875
aF4579.427734375
aF4594.068359375
aF4603.31640625
aF4615.0810546875
aF4619.4599609375
aF4620.1787109375
aF4612.564453125
aF4599.39501953125
aF4580.99658203125
aF4553.21923828125
aF4533.3828125
aF4515.83447265625
aF4499.8212890625
aF4486.09619140625
aF4471.35791015625
aF4465.41015625
aF4462.95947265625
aF4460.2470703125
as.