(dp0
S'y_tilt'
p1
(lp2
I3
aI3
aI3
aI3
aI2
aI1
aI1
aI1
aI1
aI1
aI1
aI2
aI2
aI2
aI2
aI3
aI3
aI4
aI4
aI4
aI5
aI6
aI6
aI7
aI8
aI9
aI10
aI11
aI12
aI12
aI13
aI13
aI14
aI15
aI16
aI16
aI16
aI16
aI16
aI16
aI16
aI15
aI15
aI15
aI14
aI13
aI12
aI11
aI10
aI9
aI9
aI8
aI7
aI6
aI5
aI4
aI4
aI3
aI2
aI1
aI0
aI0
aI0
aI0
asS'pressure'
p3
(lp4
F0.408203125
aF0.40185546875
aF0.42431640625
aF0.43359375
aF0.47216796875
aF0.48095703125
aF0.48046875
aF0.46875
aF0.462890625
aF0.4677734375
aF0.47412109375
aF0.48291015625
aF0.48291015625
aF0.486328125
aF0.4921875
aF0.49365234375
aF0.49560546875
aF0.49755859375
aF0.49853515625
aF0.50146484375
aF0.51025390625
aF0.5146484375
aF0.51806640625
aF0.517578125
aF0.517578125
aF0.5185546875
aF0.51806640625
aF0.51611328125
aF0.51611328125
aF0.51513671875
aF0.51318359375
aF0.513671875
aF0.513671875
aF0.5107421875
aF0.50146484375
aF0.49462890625
aF0.49951171875
aF0.501953125
aF0.50732421875
aF0.51318359375
aF0.51806640625
aF0.5244140625
aF0.552734375
aF0.58203125
aF0.59765625
aF0.6123046875
aF0.6328125
aF0.6416015625
aF0.650390625
aF0.658203125
aF0.66748046875
aF0.67578125
aF0.68310546875
aF0.6865234375
aF0.6884765625
aF0.69091796875
aF0.69287109375
aF0.6953125
aF0.69775390625
aF0.6943359375
aF0.65966796875
aF0.53857421875
aF0.03271484375
aF0.0
asS'x_tilt'
p5
(lp6
I20
aI20
aI20
aI20
aI20
aI20
aI20
aI20
aI20
aI20
aI20
aI20
aI20
aI20
aI20
aI21
aI21
aI21
aI21
aI21
aI21
aI21
aI21
aI21
aI21
aI21
aI21
aI21
aI20
aI20
aI20
aI20
aI20
aI20
aI20
aI20
aI19
aI19
aI19
aI18
aI18
aI18
aI18
aI18
aI18
aI19
aI20
aI20
aI20
aI20
aI20
aI20
aI21
aI21
aI21
aI21
aI22
aI22
aI22
aI22
aI22
aI22
aI22
aI22
asS'time'
p7
(lp8
I567
aI586
aI604
aI621
aI639
aI656
aI675
aI692
aI711
aI728
aI746
aI763
aI780
aI797
aI814
aI832
aI849
aI866
aI883
aI900
aI917
aI934
aI950
aI967
aI985
aI1001
aI1019
aI1036
aI1053
aI1070
aI1088
aI1104
aI1121
aI1138
aI1156
aI1173
aI1191
aI1209
aI1209
aI1228
aI1245
aI1262
aI1279
aI1296
aI1313
aI1330
aI1347
aI1364
aI1381
aI1398
aI1415
aI1432
aI1448
aI1465
aI1483
aI1500
aI1516
aI1534
aI1551
aI1568
aI1585
aI1602
aI1619
aI1636
asS'y'
p9
(lp10
F739.0626220703125
aF742.036376953125
aF746.3172607421875
aF752.5916137695312
aF760.6632690429688
aF765.9572143554688
aF769.8132934570312
aF772.8197631835938
aF772.1988525390625
aF768.80029296875
aF763.5716552734375
aF755.2385864257812
aF747.6571044921875
aF735.5006103515625
aF720.4030151367188
aF703.4754638671875
aF690.8287963867188
aF677.8880004882812
aF663.0845336914062
aF646.0588989257812
aF622.1707153320312
aF605.2758178710938
aF588.9037475585938
aF571.9108276367188
aF555.4080200195312
aF538.9052734375
aF522.4024658203125
aF503.0566711425781
aF491.5210876464844
aF480.8024597167969
aF469.92041015625
aF458.2541198730469
aF446.6858215332031
aF443.4833068847656
aF440.0520324707031
aF437.3397216796875
aF436.94757080078125
aF437.3070373535156
aF440.0520324707031
aF446.55511474609375
aF466.8159484863281
aF484.2663879394531
aF498.6450500488281
aF513.3831787109375
aF529.4284057617188
aF547.499755859375
aF572.3029174804688
aF591.289306640625
aF609.0011596679688
aF626.7130737304688
aF643.9347534179688
aF659.6205444335938
aF680.9924926757812
aF696.6455688476562
aF712.8869018554688
aF728.2786254882812
aF741.9710083007812
aF754.1275024414062
aF765.6630859375
aF769.8132934570312
aF774.8458251953125
aF778.9960327148438
aF777.7215576171875
aF776.31640625
asS'x'
p11
(lp12
F4631.5185546875
aF4629.4599609375
aF4626.5185546875
aF4621.55126953125
aF4612.23779296875
aF4603.087890625
aF4593.9375
aF4581.29052734375
aF4572.630859375
aF4564.7548828125
aF4557.30419921875
aF4548.08837890625
aF4541.94482421875
aF4535.6376953125
aF4530.96484375
aF4527.46826171875
aF4525.08251953125
aF4522.46826171875
aF4520.27880859375
aF4519.23291015625
aF4519.625
aF4519.95166015625
aF4519.95166015625
aF4520.01708984375
aF4521.22607421875
aF4523.64453125
aF4528.0888671875
aF4534.984375
aF4539.19970703125
aF4543.48095703125
aF4548.7421875
aF4555.60498046875
aF4563.83984375
aF4566.61767578125
aF4569.8203125
aF4573.02294921875
aF4575.34326171875
aF4576.06201171875
aF4578.1533203125
aF4580.21240234375
aF4581.9443359375
aF4581.6826171875
aF4580.767578125
aF4578.9052734375
aF4575.76806640625
aF4571.84619140625
aF4566.12744140625
aF4561.9443359375
aF4557.40234375
aF4551.74853515625
aF4545.0166015625
aF4537.533203125
aF4527.04296875
aF4518.93896484375
aF4511.716796875
aF4505.8017578125
aF4501.03076171875
aF4496.9130859375
aF4492.0439453125
aF4489.9521484375
aF4487.14208984375
aF4484.4296875
aF4483.7431640625
aF4483.90673828125
as.