(dp0
S'y_tilt'
p1
(lp2
I6
aI6
aI6
aI6
aI6
aI6
aI6
aI6
aI6
aI6
aI7
aI7
aI7
aI7
aI7
aI7
aI8
aI8
aI9
aI9
aI9
aI9
aI10
aI10
aI10
aI11
aI11
aI11
aI11
aI11
aI11
aI11
aI11
aI11
aI12
aI12
aI12
aI11
aI11
aI11
aI10
aI10
aI10
aI9
aI9
aI9
aI8
aI8
aI8
aI7
aI7
aI7
aI6
aI6
aI6
aI5
aI4
aI4
aI4
aI4
aI4
aI4
aI4
aI5
aI5
aI5
asS'pressure'
p3
(lp4
F0.2802734375
aF0.31201171875
aF0.34130859375
aF0.37451171875
aF0.4033203125
aF0.43408203125
aF0.4599609375
aF0.48291015625
aF0.501953125
aF0.51416015625
aF0.5283203125
aF0.5341796875
aF0.546875
aF0.55322265625
aF0.55908203125
aF0.56103515625
aF0.5634765625
aF0.564453125
aF0.56591796875
aF0.564453125
aF0.55615234375
aF0.548828125
aF0.54296875
aF0.54248046875
aF0.5400390625
aF0.53515625
aF0.53515625
aF0.53466796875
aF0.53076171875
aF0.52587890625
aF0.51953125
aF0.5146484375
aF0.49951171875
aF0.49658203125
aF0.5029296875
aF0.51220703125
aF0.51708984375
aF0.52099609375
aF0.5234375
aF0.52392578125
aF0.53271484375
aF0.5361328125
aF0.5361328125
aF0.5361328125
aF0.5390625
aF0.5439453125
aF0.54931640625
aF0.55419921875
aF0.5546875
aF0.55517578125
aF0.55517578125
aF0.55322265625
aF0.55322265625
aF0.5517578125
aF0.55224609375
aF0.552734375
aF0.552734375
aF0.552734375
aF0.55224609375
aF0.56103515625
aF0.57275390625
aF0.57958984375
aF0.580078125
aF0.564453125
aF0.5146484375
aF0.38916015625
asS'x_tilt'
p5
(lp6
I31
aI31
aI31
aI31
aI31
aI32
aI32
aI32
aI32
aI32
aI32
aI32
aI32
aI32
aI31
aI31
aI31
aI31
aI31
aI31
aI31
aI31
aI30
aI30
aI30
aI30
aI29
aI29
aI28
aI28
aI28
aI28
aI28
aI29
aI29
aI29
aI29
aI29
aI29
aI29
aI29
aI29
aI29
aI29
aI29
aI29
aI29
aI29
aI29
aI29
aI29
aI30
aI30
aI30
aI30
aI30
aI30
aI30
aI30
aI30
aI29
aI29
aI29
aI29
aI29
aI28
asS'time'
p7
(lp8
I467
aI487
aI502
aI520
aI536
aI553
aI569
aI586
aI603
aI619
aI636
aI636
aI653
aI669
aI686
aI703
aI719
aI736
aI753
aI770
aI787
aI803
aI820
aI836
aI853
aI869
aI886
aI903
aI919
aI936
aI952
aI969
aI986
aI1002
aI1019
aI1036
aI1053
aI1070
aI1086
aI1103
aI1120
aI1136
aI1153
aI1170
aI1186
aI1203
aI1220
aI1236
aI1253
aI1269
aI1286
aI1303
aI1319
aI1336
aI1353
aI1369
aI1386
aI1403
aI1419
aI1436
aI1452
aI1469
aI1486
aI1503
aI1520
aI1536
asS'y'
p9
(lp10
F757.3627319335938
aF755.1078491210938
aF751.5785522460938
aF746.7421264648438
aF741.1867065429688
aF735.5006103515625
aF729.6184692382812
aF721.677490234375
aF707.0374145507812
aF688.77001953125
aF673.3782958984375
aF667.986328125
aF651.2874755859375
aF634.35986328125
aF615.7003173828125
aF596.4198608398438
aF575.8649291992188
aF555.8001708984375
aF535.5066528320312
aF515.703369140625
aF489.7890930175781
aF472.53472900390625
aF456.94696044921875
aF443.6466979980469
aF435.4116516113281
aF430.5751953125
aF423.90875244140625
aF416.16387939453125
aF410.3470458984375
aF406.5236511230469
aF404.4648742675781
aF403.9747009277344
aF406.3929443359375
aF411.5561828613281
aF423.3858947753906
aF440.542236328125
aF456.3587341308594
aF472.0445251464844
aF487.6322937011719
aF503.7102355957031
aF525.5723266601562
aF543.9050903320312
aF561.7150268554688
aF580.5053100585938
aF600.4066772460938
aF619.589111328125
aF639.1309814453125
aF657.3984375
aF675.4697265625
aF697.4625854492188
aF713.9979858398438
aF728.6380615234375
aF741.578857421875
aF753.081787109375
aF759.4541625976562
aF763.9638061523438
aF770.3688354492188
aF776.1530151367188
aF781.1854858398438
aF782.4599609375
aF781.0548095703125
aF776.4144287109375
aF765.4016723632812
aF747.8204956054688
aF731.5465087890625
aF716.9390869140625
asS'x'
p11
(lp12
F2809.42919921875
aF2810.736572265625
aF2812.795166015625
aF2815.8017578125
aF2819.78857421875
aF2824.8212890625
aF2830.801513671875
aF2838.448486328125
aF2849.167236328125
aF2859.62451171875
aF2867.76171875
aF2870.34326171875
aF2878.218994140625
aF2886.029296875
aF2893.25146484375
aF2900.081298828125
aF2906.486572265625
aF2912.172607421875
aF2917.041748046875
aF2921.2900390625
aF2925.244384765625
aF2926.71484375
aF2926.6494140625
aF2925.080810546875
aF2923.185546875
aF2921.4208984375
aF2918.545166015625
aF2914.492919921875
aF2910.2119140625
aF2905.80029296875
aF2901.3232421875
aF2897.042236328125
aF2891.617431640625
aF2887.238525390625
aF2880.63720703125
aF2873.02294921875
aF2867.859619140625
aF2864.5263671875
aF2862.532958984375
aF2861.912109375
aF2862.598388671875
aF2863.349853515625
aF2864.06884765625
aF2864.689697265625
aF2865.212646484375
aF2865.768310546875
aF2866.912109375
aF2868.709228515625
aF2871.421630859375
aF2876.16015625
aF2880.539306640625
aF2885.048828125
aF2889.754638671875
aF2894.6240234375
aF2897.989990234375
aF2901.127197265625
aF2906.355712890625
aF2912.597412109375
aF2921.192138671875
aF2927.564453125
aF2933.904296875
aF2940.766845703125
aF2950.243896484375
aF2960.7666015625
aF2968.740234375
aF2975.11279296875
as.