(dp0
S'y_tilt'
p1
(lp2
I14
aI14
aI14
aI14
aI14
aI14
aI14
aI14
aI14
aI14
aI14
aI14
aI14
aI13
aI13
aI12
aI12
aI12
aI11
aI11
aI11
aI11
aI11
aI11
aI11
aI11
aI11
aI11
aI11
aI11
aI11
aI11
aI11
aI11
aI11
aI11
aI11
aI11
aI11
aI12
aI12
aI13
aI13
aI13
aI13
aI13
aI14
aI14
aI14
aI14
aI14
aI14
aI14
aI14
aI14
aI14
aI14
aI14
aI14
aI14
aI14
aI15
aI15
aI14
aI14
aI14
aI14
aI14
aI14
aI14
aI14
aI14
aI14
aI15
aI15
aI15
aI16
aI17
aI17
aI17
aI18
aI18
aI19
aI19
aI19
aI19
aI19
aI19
aI19
aI18
aI17
aI16
aI15
aI15
aI14
aI13
aI12
aI12
aI12
aI12
aI12
aI12
aI12
aI11
aI11
aI11
aI10
aI10
aI9
aI8
aI8
aI8
aI8
asS'pressure'
p3
(lp4
F0.37548828125
aF0.375
aF0.39013671875
aF0.4091796875
aF0.42578125
aF0.431640625
aF0.43359375
aF0.43505859375
aF0.435546875
aF0.4375
aF0.4462890625
aF0.45361328125
aF0.45947265625
aF0.46826171875
aF0.4775390625
aF0.48291015625
aF0.49169921875
aF0.50341796875
aF0.513671875
aF0.5185546875
aF0.52392578125
aF0.52978515625
aF0.5380859375
aF0.544921875
aF0.544921875
aF0.54833984375
aF0.55322265625
aF0.5576171875
aF0.5595703125
aF0.5595703125
aF0.5615234375
aF0.560546875
aF0.560546875
aF0.5712890625
aF0.58935546875
aF0.59228515625
aF0.59521484375
aF0.59716796875
aF0.59814453125
aF0.60107421875
aF0.60400390625
aF0.607421875
aF0.61083984375
aF0.61181640625
aF0.6123046875
aF0.615234375
aF0.6220703125
aF0.634765625
aF0.63671875
aF0.63623046875
aF0.630859375
aF0.62841796875
aF0.62890625
aF0.63134765625
aF0.63427734375
aF0.63671875
aF0.63330078125
aF0.62646484375
aF0.61328125
aF0.58251953125
aF0.443359375
aF0.29443359375
aF0.46484375
aF0.49365234375
aF0.51171875
aF0.53564453125
aF0.54541015625
aF0.55126953125
aF0.56689453125
aF0.580078125
aF0.58251953125
aF0.58203125
aF0.58251953125
aF0.5849609375
aF0.5869140625
aF0.5908203125
aF0.595703125
aF0.59619140625
aF0.59814453125
aF0.5986328125
aF0.6005859375
aF0.59765625
aF0.59619140625
aF0.6005859375
aF0.60693359375
aF0.61279296875
aF0.61767578125
aF0.623046875
aF0.6259765625
aF0.62646484375
aF0.63134765625
aF0.6484375
aF0.658203125
aF0.66015625
aF0.66162109375
aF0.66357421875
aF0.66845703125
aF0.68896484375
aF0.7001953125
aF0.7060546875
aF0.68408203125
aF0.62060546875
aF0.35302734375
aF0.56494140625
aF0.57958984375
aF0.6015625
aF0.63623046875
aF0.666015625
aF0.68212890625
aF0.68408203125
aF0.66943359375
aF0.6162109375
aF0.3701171875
asS'x_tilt'
p5
(lp6
I-2
aI-2
aI-2
aI-2
aI-2
aI-2
aI-2
aI-2
aI-2
aI-2
aI-2
aI-2
aI-2
aI-2
aI-2
aI-2
aI-2
aI-2
aI-2
aI-2
aI-2
aI-1
aI-1
aI-1
aI-1
aI-1
aI-1
aI-1
aI-1
aI-1
aI-1
aI-1
aI-1
aI-1
aI-1
aI-1
aI-1
aI-1
aI-1
aI-1
aI-1
aI-1
aI-1
aI-1
aI-1
aI-1
aI-1
aI-1
aI-1
aI-1
aI-1
aI-2
aI-2
aI-2
aI-2
aI-2
aI-2
aI-2
aI-2
aI-2
aI-2
aI-3
aI-3
aI-3
aI-3
aI-3
aI-3
aI-3
aI-3
aI-3
aI-3
aI-3
aI-4
aI-4
aI-4
aI-4
aI-5
aI-5
aI-6
aI-6
aI-6
aI-6
aI-6
aI-6
aI-5
aI-5
aI-5
aI-5
aI-4
aI-4
aI-3
aI-2
aI-2
aI-2
aI-2
aI-2
aI-2
aI-2
aI-2
aI-2
aI-2
aI-2
aI-2
aI-1
aI-1
aI-1
aI0
aI0
aI0
aI1
aI1
aI1
aI1
asS'time'
p7
(lp8
I536
aI536
aI554
aI571
aI588
aI604
aI621
aI638
aI655
aI672
aI688
aI704
aI721
aI737
aI754
aI771
aI787
aI804
aI820
aI837
aI854
aI871
aI887
aI903
aI921
aI938
aI954
aI970
aI986
aI1001
aI1001
aI1018
aI1033
aI1050
aI1066
aI1082
aI1099
aI1116
aI1134
aI1150
aI1166
aI1183
aI1200
aI1215
aI1231
aI1248
aI1265
aI1281
aI1299
aI1317
aI1335
aI1352
aI1368
aI1385
aI1401
aI1418
aI1435
aI1450
aI1466
aI1483
aI1499
aI1748
aI1785
aI1803
aI1819
aI1836
aI1853
aI1869
aI1885
aI1902
aI1918
aI1934
aI1949
aI1966
aI1982
aI2000
aI2017
aI2034
aI2050
aI2066
aI2082
aI2098
aI2115
aI2130
aI2146
aI2163
aI2179
aI2196
aI2213
aI2230
aI2245
aI2263
aI2279
aI2295
aI2310
aI2326
aI2342
aI2359
aI2376
aI2393
aI2409
aI2426
aI2444
aI2745
aI2782
aI2803
aI2819
aI2835
aI2854
aI2870
aI2886
aI2903
aI2919
asS'y'
p9
(lp10
F738.0822143554688
aF737.9841918945312
aF737.592041015625
aF737.4940185546875
aF737.7881469726562
aF738.474365234375
aF739.4220581054688
aF741.4154663085938
aF743.4415283203125
aF745.8598022460938
aF748.6047973632812
aF751.6112670898438
aF754.846435546875
aF758.1143188476562
aF761.3168334960938
aF764.2905883789062
aF767.0029296875
aF769.453857421875
aF772.4276123046875
aF774.3883056640625
aF776.054931640625
aF777.3294067382812
aF778.04833984375
aF778.277099609375
aF777.9503173828125
aF776.4797973632812
aF774.6824340820312
aF772.4602661132812
aF770.8263549804688
aF769.9766845703125
aF768.2447509765625
aF764.552001953125
aF762.2971801757812
aF758.14697265625
aF753.1144409179688
aF747.9185180664062
aF741.4808349609375
aF736.9384765625
aF731.9713134765625
aF725.5662841796875
aF717.5599975585938
aF708.9654541015625
aF701.12255859375
aF694.6195068359375
aF688.998779296875
aF683.5087280273438
aF675.9599609375
aF670.9600830078125
aF667.4307861328125
aF665.6007690429688
aF664.9798583984375
aF664.8164672851562
aF664.8164672851562
aF664.8164672851562
aF664.8164672851562
aF664.8164672851562
aF664.7184448242188
aF664.685791015625
aF664.653076171875
aF664.653076171875
aF664.45703125
aF659.4571533203125
aF656.712158203125
aF652.0391235351562
aF646.77783203125
aF639.6865234375
aF627.6607666015625
aF612.2363891601562
aF599.7531127929688
aF588.5443115234375
aF576.6492309570312
aF564.3947143554688
aF551.8460693359375
aF538.8072509765625
aF525.408935546875
aF508.54669189453125
aF496.5535888671875
aF485.6388854980469
aF479.26654052734375
aF474.560791015625
aF467.8289794921875
aF461.81610107421875
aF457.7966003417969
aF455.8031921386719
aF456.0973205566406
aF458.94036865234375
aF464.6591491699219
aF476.3581237792969
aF494.20074462890625
aF510.2460021972656
aF524.2651977539062
aF544.3626098632812
aF560.6039428710938
aF577.564208984375
aF593.478759765625
aF601.9752197265625
aF608.6743774414062
aF614.3931884765625
aF619.1642456054688
aF621.353759765625
aF621.7131958007812
aF621.5498046875
aF620.7982177734375
aF703.3120727539062
aF707.8217163085938
aF721.93896484375
aF738.1802978515625
aF750.5328369140625
aF762.8527221679688
aF766.2186279296875
aF768.6369018554688
aF770.8917236328125
aF770.9570922851562
asS'x'
p11
(lp12
F2944.851806640625
aF2944.59033203125
aF2943.577392578125
aF2942.89111328125
aF2942.4990234375
aF2941.845458984375
aF2940.766845703125
aF2938.93701171875
aF2937.237548828125
aF2935.374755859375
aF2933.1201171875
aF2930.27685546875
aF2926.910888671875
aF2923.316162109375
aF2919.852294921875
aF2916.715087890625
aF2913.67578125
aF2910.53857421875
aF2905.898193359375
aF2902.270751953125
aF2898.741455078125
aF2895.277587890625
aF2892.074951171875
aF2889.2646484375
aF2886.5849609375
aF2881.97705078125
aF2877.53271484375
aF2872.95751953125
aF2870.179931640625
aF2868.905517578125
aF2866.683349609375
aF2863.28466796875
aF2861.8466796875
aF2859.526611328125
aF2856.9775390625
aF2854.559326171875
aF2852.04296875
aF2850.703125
aF2849.657470703125
aF2848.677001953125
aF2847.794677734375
aF2847.1083984375
aF2846.71630859375
aF2846.454833984375
aF2846.22607421875
aF2846.030029296875
aF2845.964599609375
aF2846.16064453125
aF2846.454833984375
aF2846.7490234375
aF2847.04296875
aF2847.337158203125
aF2847.56591796875
aF2847.56591796875
aF2847.6640625
aF2847.6640625
aF2847.304443359375
aF2846.977783203125
aF2846.7490234375
aF2846.7490234375
aF2846.58544921875
aF2858.480712890625
aF2857.50048828125
aF2856.912109375
aF2857.3369140625
aF2859.26513671875
aF2865.147216796875
aF2876.19287109375
aF2885.21240234375
aF2890.86572265625
aF2895.277587890625
aF2899.46044921875
aF2903.47998046875
aF2906.9765625
aF2909.2314453125
aF2909.81982421875
aF2908.90478515625
aF2907.695556640625
aF2906.845947265625
aF2905.963623046875
aF2904.39501953125
aF2902.0419921875
aF2898.90478515625
aF2894.656494140625
aF2889.003173828125
aF2881.846435546875
aF2874.00341796875
aF2865.8662109375
aF2859.820556640625
aF2855.703125
aF2852.892578125
aF2849.853515625
aF2849.33056640625
aF2850.6376953125
aF2852.696533203125
aF2853.644287109375
aF2853.970947265625
aF2853.8076171875
aF2853.252197265625
aF2852.85986328125
aF2852.729248046875
aF2853.121337890625
aF2854.72265625
aF2839.298095703125
aF2839.16748046875
aF2836.226318359375
aF2831.226318359375
aF2822.9912109375
aF2810.605712890625
aF2806.161376953125
aF2802.697509765625
aF2799.429443359375
aF2798.77587890625
as.