(dp0
S'y_tilt'
p1
(lp2
I5
aI5
aI5
aI5
aI5
aI6
aI6
aI6
aI6
aI6
aI7
aI7
aI7
aI7
aI7
aI7
aI7
aI8
aI8
aI9
aI9
aI9
aI10
aI10
aI11
aI11
aI12
aI12
aI12
aI12
aI12
aI12
aI12
aI12
aI12
aI11
aI11
aI11
aI11
aI10
aI10
aI10
aI9
aI9
aI8
aI8
aI8
aI7
aI7
aI6
aI6
aI6
aI6
aI6
aI6
aI6
aI5
aI5
aI5
aI5
aI6
aI6
aI6
aI7
aI7
asS'pressure'
p3
(lp4
F0.333984375
aF0.3359375
aF0.34619140625
aF0.36328125
aF0.37109375
aF0.39306640625
aF0.41943359375
aF0.44580078125
aF0.4638671875
aF0.4755859375
aF0.48486328125
aF0.49462890625
aF0.50341796875
aF0.51025390625
aF0.51708984375
aF0.52197265625
aF0.5283203125
aF0.53857421875
aF0.54248046875
aF0.54443359375
aF0.54638671875
aF0.5439453125
aF0.541015625
aF0.537109375
aF0.53466796875
aF0.52685546875
aF0.5263671875
aF0.52392578125
aF0.52099609375
aF0.50927734375
aF0.4931640625
aF0.48193359375
aF0.4873046875
aF0.498046875
aF0.50732421875
aF0.51416015625
aF0.5234375
aF0.52978515625
aF0.53271484375
aF0.53662109375
aF0.5400390625
aF0.54541015625
aF0.54931640625
aF0.55810546875
aF0.5625
aF0.56689453125
aF0.56884765625
aF0.56982421875
aF0.56982421875
aF0.56884765625
aF0.56640625
aF0.56640625
aF0.56640625
aF0.5693359375
aF0.572265625
aF0.576171875
aF0.58056640625
aF0.583984375
aF0.59228515625
aF0.59619140625
aF0.58544921875
aF0.55517578125
aF0.505859375
aF0.3935546875
aF0.0
asS'x_tilt'
p5
(lp6
I29
aI29
aI29
aI30
aI30
aI30
aI30
aI30
aI30
aI30
aI29
aI29
aI29
aI29
aI28
aI28
aI27
aI27
aI27
aI27
aI27
aI26
aI26
aI26
aI26
aI26
aI26
aI26
aI26
aI26
aI26
aI26
aI26
aI26
aI26
aI26
aI27
aI27
aI27
aI27
aI27
aI28
aI28
aI28
aI28
aI28
aI28
aI28
aI28
aI28
aI28
aI28
aI28
aI28
aI27
aI27
aI27
aI27
aI27
aI27
aI27
aI27
aI27
aI26
aI26
asS'time'
p7
(lp8
I441
aI460
aI477
aI494
aI511
aI511
aI528
aI545
aI562
aI579
aI596
aI612
aI628
aI645
aI661
aI678
aI695
aI711
aI727
aI743
aI760
aI776
aI792
aI809
aI825
aI840
aI857
aI874
aI892
aI910
aI927
aI945
aI963
aI980
aI996
aI1013
aI1030
aI1047
aI1064
aI1081
aI1098
aI1114
aI1131
aI1148
aI1165
aI1182
aI1198
aI1215
aI1232
aI1249
aI1266
aI1283
aI1300
aI1317
aI1333
aI1350
aI1367
aI1384
aI1384
aI1401
aI1418
aI1435
aI1452
aI1469
aI1486
asS'y'
p9
(lp10
F771.5779418945312
aF770.8263549804688
aF769.5192260742188
aF766.9702758789062
aF765.69580078125
aF760.5325317382812
aF750.859619140625
aF735.2064819335938
aF719.4226684570312
aF704.3904418945312
aF688.4105224609375
aF666.0909423828125
aF648.738525390625
aF630.83056640625
aF611.2233276367188
aF590.374267578125
aF567.9893188476562
aF545.4083251953125
aF522.0430297851562
aF498.9718322753906
aF476.16204833984375
aF454.5940856933594
aF434.16986083984375
aF415.1508483886719
aF398.25592041015625
aF384.00799560546875
aF372.3743591308594
aF366.5902099609375
aF362.01519775390625
aF358.5512390136719
aF357.70159912109375
aF361.2962646484375
aF371.8188171386719
aF391.1319580078125
aF410.08563232421875
aF430.3791198730469
aF459.3978576660156
aF482.04425048828125
aF505.4095458984375
aF529.9839477539062
aF556.0615844726562
aF582.9888916015625
aF610.6024169921875
aF647.9215698242188
aF675.07763671875
aF699.9788208007812
aF722.5271606445312
aF742.6572875976562
aF760.4345092773438
aF773.8981323242188
aF781.5123291015625
aF786.4141235351562
aF791.119873046875
aF794.4530639648438
aF795.5968627929688
aF794.649169921875
aF792.7537841796875
aF791.4466552734375
aF781.0548095703125
aF765.1729125976562
aF746.905517578125
aF730.5661010742188
aF715.043701171875
aF699.8480834960938
aF682.0054931640625
asS'x'
p11
(lp12
F2804.788818359375
aF2804.658203125
aF2804.98486328125
aF2806.4228515625
aF2807.174560546875
aF2810.47509765625
aF2816.68408203125
aF2826.5205078125
aF2836.683837890625
aF2845.899169921875
aF2855.474365234375
aF2868.447998046875
aF2877.303955078125
aF2885.2451171875
aF2891.91162109375
aF2897.69580078125
aF2902.434326171875
aF2905.930908203125
aF2907.8916015625
aF2908.153076171875
aF2906.5517578125
aF2903.47998046875
aF2899.427734375
aF2894.59130859375
aF2888.937744140625
aF2882.696044921875
aF2876.454345703125
aF2872.500244140625
aF2867.826904296875
aF2862.500244140625
aF2857.40234375
aF2851.258544921875
aF2845.899169921875
aF2840.997314453125
aF2837.69677734375
aF2835.245849609375
aF2832.958251953125
aF2832.108642578125
aF2831.9453125
aF2832.435546875
aF2833.2197265625
aF2833.807861328125
aF2834.16748046875
aF2835.08251953125
aF2836.455078125
aF2839.03662109375
aF2842.827392578125
aF2847.6640625
aF2853.3828125
aF2860.08203125
aF2865.670166015625
aF2871.519775390625
aF2879.068603515625
aF2887.82666015625
aF2896.453857421875
aF2905.015869140625
aF2910.73486328125
aF2913.577880859375
aF2926.71484375
aF2938.185302734375
aF2947.041259765625
aF2953.67529296875
aF2959.9169921875
aF2965.24365234375
aF2969.393798828125
as.