(dp0
S'y_tilt'
p1
(lp2
I12
aI12
aI12
aI12
aI12
aI12
aI12
aI12
aI12
aI13
aI14
aI14
aI15
aI16
aI17
aI17
aI18
aI19
aI19
aI19
aI19
aI18
aI17
aI16
aI14
aI13
aI11
aI10
aI9
aI8
aI7
aI7
aI7
aI8
aI11
aI11
aI11
aI10
aI8
aI7
aI7
aI6
aI6
aI6
aI7
aI8
aI9
aI10
aI11
aI12
aI12
aI13
aI14
aI9
aI9
aI9
aI9
aI9
aI10
aI11
aI12
aI13
aI14
aI14
aI15
asS'pressure'
p3
(lp4
F0.40966796875
aF0.42138671875
aF0.44091796875
aF0.48193359375
aF0.51318359375
aF0.53125
aF0.57080078125
aF0.59033203125
aF0.59912109375
aF0.59765625
aF0.587890625
aF0.57763671875
aF0.56494140625
aF0.55517578125
aF0.55712890625
aF0.55810546875
aF0.5654296875
aF0.56787109375
aF0.57373046875
aF0.58447265625
aF0.603515625
aF0.609375
aF0.626953125
aF0.62646484375
aF0.630859375
aF0.64013671875
aF0.6611328125
aF0.669921875
aF0.6728515625
aF0.67333984375
aF0.666015625
aF0.64599609375
aF0.5673828125
aF0.03125
aF0.59326171875
aF0.51123046875
aF0.53515625
aF0.55712890625
aF0.57177734375
aF0.59130859375
aF0.59521484375
aF0.58935546875
aF0.58154296875
aF0.58837890625
aF0.5927734375
aF0.60791015625
aF0.61083984375
aF0.61181640625
aF0.61328125
aF0.60009765625
aF0.5849609375
aF0.53662109375
aF0.30419921875
aF0.447265625
aF0.4638671875
aF0.54443359375
aF0.62353515625
aF0.6435546875
aF0.64794921875
aF0.65966796875
aF0.6845703125
aF0.68701171875
aF0.67626953125
aF0.611328125
aF0.36083984375
asS'x_tilt'
p5
(lp6
I4
aI4
aI4
aI4
aI4
aI4
aI4
aI4
aI4
aI4
aI3
aI2
aI2
aI1
aI0
aI0
aI0
aI-1
aI-1
aI-1
aI0
aI0
aI0
aI1
aI2
aI2
aI3
aI3
aI3
aI3
aI3
aI3
aI3
aI3
aI1
aI1
aI1
aI1
aI2
aI3
aI4
aI4
aI5
aI5
aI5
aI4
aI3
aI3
aI3
aI3
aI3
aI2
aI2
aI4
aI6
aI6
aI6
aI5
aI4
aI4
aI3
aI3
aI2
aI2
aI2
asS'time'
p7
(lp8
I522
aI538
aI554
aI574
aI590
aI590
aI607
aI623
aI641
aI656
aI673
aI690
aI706
aI723
aI739
aI756
aI772
aI789
aI807
aI824
aI842
aI858
aI858
aI875
aI892
aI908
aI925
aI942
aI959
aI976
aI993
aI1011
aI1027
aI1044
aI1357
aI1394
aI1414
aI1431
aI1447
aI1466
aI1483
aI1500
aI1516
aI1533
aI1549
aI1566
aI1583
aI1600
aI1620
aI1635
aI1652
aI1668
aI1684
aI1888
aI1923
aI1940
aI1957
aI1974
aI1991
aI2008
aI2024
aI2041
aI2057
aI2076
aI2093
asS'y'
p9
(lp10
F661.3198852539062
aF659.9800415039062
aF658.6075439453125
aF655.2742919921875
aF652.3331909179688
aF649.9149780273438
aF636.4840087890625
aF614.8833618164062
aF593.6094970703125
aF573.4793701171875
aF555.1466064453125
aF537.7615356445312
aF521.1607055664062
aF505.57293701171875
aF491.2596435546875
aF479.1358337402344
aF472.8941955566406
aF468.0250549316406
aF464.8879089355469
aF466.78326416015625
aF480.05084228515625
aF488.44927978515625
aF518.0562133789062
aF546.0292358398438
aF570.4075927734375
aF589.5900268554688
aF604.6875610351562
aF618.1185302734375
aF628.412353515625
aF633.8043212890625
aF637.0068969726562
aF638.8695678710938
aF637.3336791992188
aF630.1116333007812
aF744.0624389648438
aF742.68994140625
aF756.4476928710938
aF772.100830078125
aF783.2442626953125
aF791.7734375
aF792.7537841796875
aF790.5969848632812
aF780.7606811523438
aF760.6632690429688
aF740.8926391601562
aF719.25927734375
aF707.2335205078125
aF699.35791015625
aF695.8939819335938
aF691.613037109375
aF686.743896484375
aF681.3192749023438
aF678.6723022460938
aF775.7935180664062
aF772.75439453125
aF769.0617065429688
aF753.2451782226562
aF731.415771484375
aF710.2399291992188
aF692.1032104492188
aF680.2408447265625
aF675.273681640625
aF670.8947143554688
aF664.2936401367188
aF661.581298828125
asS'x'
p11
(lp12
F2852.85986328125
aF2851.716064453125
aF2850.997314453125
aF2851.52001953125
aF2853.513427734375
aF2855.24560546875
aF2863.7421875
aF2873.709228515625
aF2880.7353515625
aF2885.5390625
aF2888.6435546875
aF2891.3232421875
aF2893.872314453125
aF2895.571533203125
aF2894.721923828125
aF2891.290771484375
aF2887.728515625
aF2881.650390625
aF2873.970703125
aF2864.689697265625
aF2852.239013671875
aF2847.402587890625
aF2834.004150390625
aF2825.965087890625
aF2823.612060546875
aF2824.72314453125
aF2827.108642578125
aF2830.50732421875
aF2834.494140625
aF2837.108642578125
aF2838.7099609375
aF2839.59228515625
aF2839.363525390625
aF2837.435302734375
aF2947.956298828125
aF2942.727783203125
aF2932.46630859375
aF2919.55810546875
aF2905.081298828125
aF2887.89208984375
aF2879.918212890625
aF2874.85302734375
aF2866.160400390625
aF2861.52001953125
aF2860.735595703125
aF2861.52001953125
aF2862.631103515625
aF2863.513427734375
aF2864.0361328125
aF2864.49365234375
aF2864.722412109375
aF2864.4609375
aF2863.872802734375
aF2797.79541015625
aF2790.508056640625
aF2791.58642578125
aF2806.095947265625
aF2826.455078125
aF2842.761962890625
aF2853.219482421875
aF2857.108154296875
aF2857.30419921875
aF2856.912109375
aF2856.0625
aF2856.1279296875
as.