(dp0
S'y_tilt'
p1
(lp2
I1
aI1
aI1
aI1
aI1
aI1
aI0
aI0
aI1
aI1
aI1
aI2
aI2
aI2
aI3
aI3
aI4
aI4
aI4
aI5
aI5
aI6
aI6
aI6
aI7
aI7
aI7
aI7
aI7
aI7
aI7
aI6
aI6
aI6
aI5
aI5
aI5
aI4
aI4
aI3
aI3
aI2
aI2
aI2
aI1
aI1
aI0
aI0
aI-1
aI-1
aI-1
aI-1
aI-1
aI-1
aI-1
aI0
aI0
aI0
aI0
aI1
asS'pressure'
p3
(lp4
F0.330078125
aF0.34765625
aF0.3515625
aF0.37451171875
aF0.4052734375
aF0.43798828125
aF0.46337890625
aF0.48583984375
aF0.5048828125
aF0.51708984375
aF0.52734375
aF0.53955078125
aF0.552734375
aF0.56005859375
aF0.56396484375
aF0.568359375
aF0.5751953125
aF0.59130859375
aF0.59765625
aF0.599609375
aF0.59814453125
aF0.587890625
aF0.57568359375
aF0.5654296875
aF0.55517578125
aF0.54541015625
aF0.5400390625
aF0.52783203125
aF0.5087890625
aF0.5068359375
aF0.52294921875
aF0.53466796875
aF0.54443359375
aF0.55224609375
aF0.56005859375
aF0.56591796875
aF0.5712890625
aF0.58544921875
aF0.5908203125
aF0.59326171875
aF0.59375
aF0.59326171875
aF0.59326171875
aF0.595703125
aF0.59765625
aF0.6005859375
aF0.60107421875
aF0.59912109375
aF0.59423828125
aF0.59228515625
aF0.58984375
aF0.591796875
aF0.6025390625
aF0.6083984375
aF0.6123046875
aF0.61669921875
aF0.60205078125
aF0.57470703125
aF0.51953125
aF0.26904296875
asS'x_tilt'
p5
(lp6
I30
aI31
aI32
aI32
aI32
aI32
aI32
aI32
aI32
aI32
aI31
aI30
aI30
aI30
aI30
aI30
aI30
aI29
aI29
aI29
aI29
aI29
aI29
aI29
aI29
aI28
aI28
aI27
aI27
aI27
aI27
aI27
aI27
aI27
aI27
aI28
aI28
aI29
aI29
aI29
aI29
aI29
aI29
aI29
aI29
aI29
aI29
aI30
aI30
aI30
aI29
aI29
aI29
aI29
aI29
aI29
aI29
aI28
aI28
aI28
asS'time'
p7
(lp8
I588
aI606
aI623
aI639
aI655
aI671
aI688
aI704
aI721
aI737
aI754
aI770
aI786
aI803
aI819
aI835
aI852
aI867
aI883
aI899
aI915
aI930
aI946
aI962
aI978
aI994
aI1010
aI1026
aI1042
aI1057
aI1073
aI1089
aI1105
aI1121
aI1138
aI1154
aI1170
aI1187
aI1203
aI1220
aI1236
aI1252
aI1269
aI1285
aI1300
aI1316
aI1332
aI1347
aI1363
aI1379
aI1395
aI1411
aI1427
aI1442
aI1458
aI1473
aI1489
aI1505
aI1521
aI1537
asS'y'
p9
(lp10
F765.042236328125
aF765.009521484375
aF764.4539794921875
aF762.8854370117188
aF759.7809448242188
aF754.7156982421875
aF745.36962890625
aF729.4877319335938
aF711.6124267578125
aF693.7371826171875
aF674.0645751953125
aF651.9737548828125
aF628.869873046875
aF604.5895385742188
aF579.8843994140625
aF554.9178466796875
aF529.363037109375
aF504.200439453125
aF479.1358337402344
aF455.3783874511719
aF433.2221984863281
aF412.6672668457031
aF394.4651794433594
aF379.23687744140625
aF368.1587829589844
aF363.45306396484375
aF359.8583984375
aF356.3291015625
aF355.93695068359375
aF359.8583984375
aF372.24365234375
aF391.3607177734375
aF410.2490234375
aF432.143798828125
aF455.7051696777344
aF480.9985046386719
aF507.4356384277344
aF534.5916748046875
aF562.6953735351562
aF591.060546875
aF619.589111328125
aF648.1829833984375
aF676.3193969726562
aF703.0179443359375
aF728.0172119140625
aF749.74853515625
aF767.5911254882812
aF781.15283203125
aF789.2244873046875
aF792.9171752929688
aF797.0020141601562
aF800.0411376953125
aF799.518310546875
aF794.191650390625
aF785.8258666992188
aF767.0029296875
aF749.0623168945312
aF733.1477661132812
aF718.83447265625
aF704.7825927734375
asS'x'
p11
(lp12
F2800.736572265625
aF2800.47509765625
aF2800.409912109375
aF2801.292236328125
aF2803.416259765625
aF2806.7822265625
aF2812.6318359375
aF2821.97802734375
aF2831.97802734375
aF2841.160888671875
aF2850.539794921875
aF2859.787841796875
aF2869.13427734375
aF2877.761474609375
aF2885.21240234375
aF2891.029296875
aF2895.212158203125
aF2897.859130859375
aF2898.9375
aF2898.61083984375
aF2896.584716796875
aF2893.1533203125
aF2888.512939453125
aF2882.990234375
aF2877.859619140625
aF2874.78759765625
aF2871.585205078125
aF2867.075439453125
aF2862.990478515625
aF2859.19970703125
aF2855.67041015625
aF2853.8076171875
aF2852.794677734375
aF2851.846923828125
aF2850.866455078125
aF2850.016845703125
aF2849.526611328125
aF2849.526611328125
aF2850.34375
aF2851.9775390625
aF2854.036376953125
aF2856.225830078125
aF2858.578857421875
aF2861.160400390625
aF2864.330322265625
aF2868.48046875
aF2873.807373046875
aF2880.016357421875
aF2885.08154296875
aF2888.512939453125
aF2893.74169921875
aF2900.80029296875
aF2907.98974609375
aF2916.0615234375
aF2922.7607421875
aF2931.878173828125
aF2937.53173828125
aF2941.48583984375
aF2944.23095703125
aF2945.50537109375
as.