(dp0
S'y_tilt'
p1
(lp2
I-3
aI-3
aI-3
aI-3
aI-3
aI-3
aI-3
aI-2
aI-2
aI-1
aI0
aI0
aI0
aI0
aI1
aI1
aI2
aI2
aI2
aI3
aI3
aI4
aI4
aI5
aI5
aI5
aI6
aI6
aI7
aI7
aI6
aI6
aI6
aI6
aI5
aI5
aI4
aI4
aI3
aI3
aI2
aI2
aI1
aI1
aI1
aI0
aI0
aI0
aI0
aI-1
aI-1
aI-1
aI-1
aI-1
aI-1
aI-2
aI-2
aI-1
aI-1
aI-1
aI-1
aI0
asS'pressure'
p3
(lp4
F0.36474609375
aF0.3564453125
aF0.36328125
aF0.390625
aF0.41064453125
aF0.44921875
aF0.482421875
aF0.5029296875
aF0.5205078125
aF0.54345703125
aF0.5615234375
aF0.57275390625
aF0.5830078125
aF0.58740234375
aF0.58984375
aF0.59375
aF0.59423828125
aF0.59130859375
aF0.5908203125
aF0.5859375
aF0.5810546875
aF0.57568359375
aF0.568359375
aF0.56494140625
aF0.56298828125
aF0.564453125
aF0.56494140625
aF0.5625
aF0.5400390625
aF0.51904296875
aF0.5185546875
aF0.52392578125
aF0.52685546875
aF0.533203125
aF0.548828125
aF0.560546875
aF0.5634765625
aF0.5654296875
aF0.56591796875
aF0.568359375
aF0.56884765625
aF0.5732421875
aF0.578125
aF0.58544921875
aF0.587890625
aF0.58984375
aF0.59130859375
aF0.5908203125
aF0.59033203125
aF0.5888671875
aF0.58837890625
aF0.58740234375
aF0.58642578125
aF0.58642578125
aF0.5869140625
aF0.5908203125
aF0.5966796875
aF0.59716796875
aF0.583984375
aF0.56005859375
aF0.50927734375
aF0.3623046875
asS'x_tilt'
p5
(lp6
I28
aI29
aI29
aI29
aI29
aI29
aI29
aI29
aI29
aI28
aI28
aI28
aI28
aI28
aI27
aI27
aI27
aI27
aI26
aI26
aI26
aI26
aI26
aI27
aI27
aI27
aI27
aI27
aI27
aI27
aI27
aI27
aI27
aI27
aI27
aI27
aI27
aI27
aI27
aI27
aI27
aI27
aI27
aI28
aI28
aI28
aI29
aI29
aI29
aI28
aI28
aI28
aI29
aI29
aI29
aI28
aI28
aI28
aI28
aI28
aI28
aI28
asS'time'
p7
(lp8
I546
aI565
aI580
aI596
aI612
aI628
aI644
aI659
aI675
aI691
aI706
aI722
aI737
aI754
aI770
aI786
aI803
aI819
aI836
aI853
aI869
aI886
aI902
aI919
aI935
aI952
aI969
aI985
aI1002
aI1019
aI1035
aI1052
aI1069
aI1069
aI1086
aI1102
aI1119
aI1135
aI1152
aI1169
aI1185
aI1202
aI1219
aI1236
aI1252
aI1269
aI1285
aI1302
aI1319
aI1335
aI1352
aI1368
aI1385
aI1402
aI1418
aI1435
aI1451
aI1468
aI1484
aI1501
aI1518
aI1535
asS'y'
p9
(lp10
F773.407958984375
aF773.4733276367188
aF772.950439453125
aF771.8067016601562
aF770.3688354492188
aF766.1859741210938
aF755.4346313476562
aF735.5006103515625
aF715.3704833984375
aF694.9789428710938
aF673.7704467773438
aF651.7776489257812
aF630.0789794921875
aF608.1515502929688
aF586.5181884765625
aF565.0482788085938
aF544.5913696289062
aF524.526611328125
aF505.1481018066406
aF484.95263671875
aF465.7702331542969
aF446.8165588378906
aF423.5819396972656
aF408.02685546875
aF396.8507385253906
aF391.85089111328125
aF387.63531494140625
aF382.99493408203125
aF381.1649475097656
aF382.5047607421875
aF389.4326477050781
aF406.1641845703125
aF413.2227783203125
aF433.7123718261719
aF454.1365966796875
aF476.0967102050781
aF498.6450500488281
aF522.1083984375
aF546.7154541015625
aF571.2245483398438
aF595.9296875
aF628.6737670898438
aF652.6926879882812
aF675.9926147460938
aF698.1161499023438
aF718.7364501953125
aF736.4483032226562
aF752.2974853515625
aF764.9441528320312
aF771.3818969726562
aF775.826171875
aF783.7344360351562
aF787.7539672851562
aF789.355224609375
aF788.9630737304688
aF786.5775146484375
aF782.03515625
aF774.0288696289062
aF759.7482299804688
aF742.7879638671875
aF728.8995361328125
aF715.4685668945312
asS'x'
p11
(lp12
F2805.638427734375
aF2805.377197265625
aF2805.60595703125
aF2806.684326171875
aF2808.15478515625
aF2812.043701171875
aF2820.474853515625
aF2833.448486328125
aF2845.049560546875
aF2854.918701171875
aF2864.853271484375
aF2874.91845703125
aF2884.526123046875
aF2892.69580078125
aF2899.10107421875
aF2903.578125
aF2905.963623046875
aF2906.355712890625
aF2905.407958984375
aF2903.3818359375
aF2900.538818359375
aF2897.1728515625
aF2892.40185546875
aF2888.38232421875
aF2884.7548828125
aF2882.663330078125
aF2880.375732421875
aF2877.10791015625
aF2874.00341796875
aF2871.19287109375
aF2868.023193359375
aF2864.5263671875
aF2863.480712890625
aF2860.801025390625
aF2858.3828125
aF2856.814208984375
aF2856.4873046875
aF2857.3369140625
aF2858.7421875
aF2860.60498046875
aF2862.85986328125
aF2866.291015625
aF2869.297607421875
aF2872.72900390625
aF2876.487060546875
aF2880.800537109375
aF2885.57177734375
aF2890.669677734375
aF2895.93115234375
aF2899.689208984375
aF2903.1533203125
aF2911.257568359375
aF2918.28369140625
aF2925.34228515625
aF2932.04150390625
aF2938.3486328125
aF2944.328857421875
aF2950.83203125
aF2958.707763671875
aF2965.080322265625
aF2968.642333984375
aF2970.897216796875
as.