(dp0
S'y_tilt'
p1
(lp2
I5
aI5
aI5
aI5
aI5
aI5
aI5
aI5
aI5
aI6
aI6
aI6
aI7
aI8
aI8
aI8
aI9
aI9
aI9
aI9
aI9
aI10
aI10
aI11
aI11
aI11
aI12
aI12
aI12
aI13
aI13
aI13
aI13
aI13
aI13
aI13
aI13
aI13
aI12
aI12
aI12
aI11
aI11
aI10
aI9
aI9
aI8
aI8
aI7
aI6
aI6
aI5
aI5
aI4
aI4
aI4
aI4
aI4
aI4
aI4
aI5
aI6
aI6
aI6
aI6
aI7
asS'pressure'
p3
(lp4
F0.27978515625
aF0.30810546875
aF0.31201171875
aF0.31201171875
aF0.31640625
aF0.3408203125
aF0.373046875
aF0.41064453125
aF0.4404296875
aF0.46142578125
aF0.48779296875
aF0.51171875
aF0.53466796875
aF0.54736328125
aF0.56103515625
aF0.57373046875
aF0.5771484375
aF0.57958984375
aF0.58154296875
aF0.58544921875
aF0.5888671875
aF0.58935546875
aF0.591796875
aF0.59228515625
aF0.5927734375
aF0.5947265625
aF0.5966796875
aF0.59912109375
aF0.60546875
aF0.61083984375
aF0.61474609375
aF0.61669921875
aF0.61181640625
aF0.59716796875
aF0.5849609375
aF0.57470703125
aF0.5751953125
aF0.580078125
aF0.58544921875
aF0.59130859375
aF0.603515625
aF0.61376953125
aF0.6220703125
aF0.625
aF0.6259765625
aF0.62646484375
aF0.62841796875
aF0.62939453125
aF0.63134765625
aF0.63330078125
aF0.6337890625
aF0.634765625
aF0.63525390625
aF0.63623046875
aF0.63671875
aF0.63916015625
aF0.64111328125
aF0.6455078125
aF0.6533203125
aF0.66552734375
aF0.66796875
aF0.66845703125
aF0.65673828125
aF0.61962890625
aF0.53466796875
aF0.26708984375
asS'x_tilt'
p5
(lp6
I31
aI31
aI31
aI31
aI32
aI32
aI32
aI32
aI32
aI32
aI32
aI32
aI32
aI32
aI31
aI30
aI30
aI30
aI30
aI30
aI30
aI30
aI30
aI30
aI30
aI30
aI29
aI29
aI29
aI29
aI29
aI29
aI29
aI29
aI29
aI29
aI28
aI28
aI28
aI28
aI29
aI29
aI29
aI29
aI29
aI29
aI29
aI29
aI29
aI30
aI30
aI30
aI30
aI30
aI30
aI29
aI29
aI29
aI29
aI29
aI29
aI29
aI29
aI29
aI29
aI29
asS'time'
p7
(lp8
I15942
aI15966
aI15984
aI16000
aI16016
aI16031
aI16048
aI16063
aI16080
aI16096
aI16113
aI16128
aI16145
aI16162
aI16179
aI16195
aI16212
aI16229
aI16246
aI16262
aI16279
aI16295
aI16311
aI16327
aI16344
aI16361
aI16361
aI16378
aI16395
aI16412
aI16428
aI16445
aI16462
aI16479
aI16495
aI16512
aI16528
aI16545
aI16562
aI16579
aI16595
aI16612
aI16629
aI16646
aI16663
aI16679
aI16695
aI16712
aI16729
aI16746
aI16762
aI16763
aI16779
aI16796
aI16812
aI16829
aI16846
aI16863
aI16880
aI16896
aI16913
aI16929
aI16947
aI16964
aI16981
aI16997
asS'y'
p9
(lp10
F786.3814086914062
aF786.2833862304688
aF785.793212890625
aF784.0939331054688
aF782.8521118164062
aF780.5972900390625
aF777.8849487304688
aF774.290283203125
aF769.0943603515625
aF759.7809448242188
aF745.0755004882812
aF731.2850341796875
aF716.7103271484375
aF705.0440063476562
aF693.1162719726562
aF680.2735595703125
aF665.2086181640625
aF648.96728515625
aF632.3011474609375
aF614.6219482421875
aF591.0278930664062
aF572.727783203125
aF555.048583984375
aF536.9772338867188
aF525.1148071289062
aF519.5267333984375
aF503.4488220214844
aF487.99176025390625
aF474.2013244628906
aF461.750732421875
aF453.6463928222656
aF448.058349609375
aF442.731689453125
aF438.9082946777344
aF437.5357666015625
aF438.6468505859375
aF443.8754577636719
aF458.61358642578125
aF479.72406005859375
aF498.9718322753906
aF526.0625
aF549.3951416015625
aF575.1133422851562
aF601.877197265625
aF627.9221801757812
aF653.41162109375
aF679.1951293945312
aF704.5538330078125
aF728.8995361328125
aF751.4478759765625
aF758.5391235351562
aF777.6561889648438
aF794.4857788085938
aF806.1847534179688
aF811.1519165039062
aF815.3674926757812
aF819.9751586914062
aF821.609130859375
aF820.0732421875
aF812.55712890625
aF799.71435546875
aF785.4990844726562
aF778.8652954101562
aF774.2249145507812
aF767.1663208007812
aF759.48681640625
asS'x'
p11
(lp12
F2793.187744140625
aF2792.239990234375
aF2791.52099609375
aF2791.455810546875
aF2792.01123046875
aF2793.710693359375
aF2796.357666015625
aF2799.985107421875
aF2804.49462890625
aF2811.2265625
aF2820.736328125
aF2829.72314453125
aF2839.95166015625
aF2847.337158203125
aF2853.970947265625
aF2860.278076171875
aF2866.225830078125
aF2871.3564453125
aF2876.2255859375
aF2880.70263671875
aF2886.06201171875
aF2889.395263671875
aF2892.009521484375
aF2893.905029296875
aF2894.820068359375
aF2895.179443359375
aF2895.408203125
aF2894.4931640625
aF2893.2841796875
aF2891.715576171875
aF2890.1142578125
aF2888.25146484375
aF2885.767822265625
aF2882.630615234375
aF2879.199462890625
aF2875.473876953125
aF2870.89892578125
aF2864.19970703125
aF2857.239013671875
aF2851.9775390625
aF2845.997314453125
aF2842.14111328125
aF2838.906005859375
aF2836.683837890625
aF2835.637939453125
aF2835.57275390625
aF2836.683837890625
aF2838.840576171875
aF2842.337158203125
aF2847.271728515625
aF2849.232666015625
aF2855.572265625
aF2862.6962890625
aF2869.591796875
aF2874.29736328125
aF2880.081787109375
aF2889.068359375
aF2898.447509765625
aF2907.630126953125
aF2920.4404296875
aF2931.32275390625
aF2938.152587890625
aF2940.27685546875
aF2941.322509765625
aF2942.46630859375
aF2943.152587890625
as.