(dp0
S'y_tilt'
p1
(lp2
I2
aI1
aI1
aI0
aI0
aI0
aI-1
aI-1
aI-2
aI-2
aI-1
aI-1
aI0
aI0
aI2
aI2
aI3
aI4
aI6
aI7
aI7
aI7
aI8
aI10
aI11
aI12
aI13
aI13
aI14
aI15
aI16
aI16
aI16
aI16
aI16
aI16
aI15
aI15
aI14
aI13
aI12
aI11
aI10
aI9
aI8
aI7
aI6
aI4
aI3
aI1
aI0
aI-2
aI-4
aI-5
asS'pressure'
p3
(lp4
F0.39306640625
aF0.423828125
aF0.451171875
aF0.4921875
aF0.51708984375
aF0.5419921875
aF0.55419921875
aF0.5556640625
aF0.55224609375
aF0.5546875
aF0.55859375
aF0.560546875
aF0.5546875
aF0.5537109375
aF0.5546875
aF0.55517578125
aF0.5537109375
aF0.55322265625
aF0.55078125
aF0.55419921875
aF0.55419921875
aF0.552734375
aF0.54541015625
aF0.54345703125
aF0.5419921875
aF0.54931640625
aF0.55126953125
aF0.552734375
aF0.55078125
aF0.552734375
aF0.5556640625
aF0.56201171875
aF0.564453125
aF0.56982421875
aF0.57373046875
aF0.58544921875
aF0.6064453125
aF0.61865234375
aF0.63134765625
aF0.65283203125
aF0.671875
aF0.68408203125
aF0.70458984375
aF0.7197265625
aF0.728515625
aF0.7333984375
aF0.734375
aF0.73388671875
aF0.732421875
aF0.72998046875
aF0.72314453125
aF0.70166015625
aF0.6298828125
aF0.3505859375
asS'x_tilt'
p5
(lp6
I12
aI12
aI12
aI12
aI12
aI12
aI13
aI13
aI13
aI13
aI13
aI13
aI13
aI13
aI12
aI12
aI11
aI10
aI10
aI9
aI9
aI8
aI8
aI7
aI6
aI6
aI5
aI5
aI5
aI4
aI4
aI3
aI3
aI3
aI3
aI3
aI4
aI4
aI4
aI5
aI5
aI5
aI6
aI6
aI7
aI7
aI8
aI9
aI10
aI11
aI11
aI12
aI12
aI13
asS'time'
p7
(lp8
I438
aI456
aI472
aI488
aI504
aI521
aI537
aI553
aI569
aI586
aI603
aI620
aI638
aI655
aI673
aI691
aI709
aI726
aI743
aI759
aI775
aI790
aI790
aI807
aI823
aI840
aI856
aI873
aI890
aI906
aI923
aI940
aI956
aI972
aI989
aI1005
aI1021
aI1037
aI1053
aI1069
aI1087
aI1103
aI1119
aI1136
aI1153
aI1171
aI1187
aI1204
aI1222
aI1239
aI1256
aI1273
aI1290
aI1307
asS'y'
p9
(lp10
F736.48095703125
aF738.7684936523438
aF742.9840698242188
aF748.44140625
aF754.388916015625
aF760.1077270507812
aF764.8134765625
aF767.7545166015625
aF766.7415161132812
aF760.1077270507812
aF745.3369140625
aF722.592529296875
aF702.8218994140625
aF681.1231689453125
aF652.49658203125
aF630.3077392578125
aF606.2561645507812
aF582.4987182617188
aF552.1074829101562
aF529.853271484375
aF515.3765869140625
aF508.2852783203125
aF494.037353515625
aF468.54791259765625
aF453.41766357421875
aF439.7579345703125
aF427.7321472167969
aF418.0592346191406
aF411.0006408691406
aF407.2425842285156
aF407.0465087890625
aF408.74578857421875
aF412.50384521484375
aF423.0917663574219
aF439.659912109375
aF455.8031921386719
aF472.6981201171875
aF491.19427490234375
aF511.2263488769531
aF531.3237915039062
aF559.5255737304688
aF581.126220703125
aF603.3150634765625
aF626.4843139648438
aF650.960693359375
aF676.613525390625
aF701.9068603515625
aF736.5790405273438
aF763.4736328125
aF788.440185546875
aF809.45263671875
aF823.5371704101562
aF830.3343505859375
aF832.229736328125
asS'x'
p11
(lp12
F2908.447265625
aF2905.767578125
aF2901.845947265625
aF2897.33642578125
aF2891.84619140625
aF2885.21240234375
aF2877.238525390625
aF2866.944580078125
aF2855.016845703125
aF2843.350341796875
aF2830.21337890625
aF2818.57958984375
aF2812.893310546875
aF2808.350830078125
aF2803.77587890625
aF2801.586181640625
aF2800.867431640625
aF2801.5537109375
aF2804.13525390625
aF2807.501220703125
aF2810.47509765625
aF2812.23974609375
aF2816.32470703125
aF2826.389892578125
aF2834.461669921875
aF2843.12158203125
aF2852.304443359375
aF2862.36962890625
aF2873.970703125
aF2886.55224609375
aF2896.2578125
aF2901.127197265625
aF2906.09423828125
aF2914.558349609375
aF2922.17236328125
aF2926.551513671875
aF2928.544921875
aF2928.904296875
aF2927.66259765625
aF2924.9501953125
aF2918.871826171875
aF2912.466796875
aF2904.525634765625
aF2894.820068359375
aF2883.218994140625
aF2869.232177734375
aF2854.461181640625
aF2833.3505859375
aF2816.68408203125
aF2801.749755859375
aF2789.102783203125
aF2779.9853515625
aF2775.377685546875
aF2772.7958984375
as.