(dp0
S'y_tilt'
p1
(lp2
I11
aI10
aI9
aI8
aI8
aI8
aI8
aI8
aI9
aI9
aI10
aI10
aI11
aI12
aI13
aI13
aI15
aI16
aI17
aI18
aI18
aI19
aI20
aI20
aI20
aI20
aI20
aI20
aI20
aI19
aI18
aI17
aI16
aI16
aI15
aI14
aI13
aI13
aI11
aI10
aI9
aI8
aI7
aI7
asS'pressure'
p3
(lp4
F0.4365234375
aF0.43505859375
aF0.43701171875
aF0.48193359375
aF0.49951171875
aF0.50341796875
aF0.50830078125
aF0.525390625
aF0.52685546875
aF0.52685546875
aF0.5234375
aF0.525390625
aF0.5322265625
aF0.53466796875
aF0.541015625
aF0.5498046875
aF0.5625
aF0.57275390625
aF0.5693359375
aF0.560546875
aF0.5556640625
aF0.55126953125
aF0.541015625
aF0.537109375
aF0.53662109375
aF0.5478515625
aF0.55224609375
aF0.56640625
aF0.57861328125
aF0.5986328125
aF0.61376953125
aF0.6298828125
aF0.65478515625
aF0.66845703125
aF0.6796875
aF0.68798828125
aF0.6953125
aF0.70703125
aF0.720703125
aF0.72265625
aF0.71826171875
aF0.6796875
aF0.5810546875
aF0.03369140625
asS'x_tilt'
p5
(lp6
I2
aI3
aI4
aI4
aI4
aI5
aI5
aI5
aI5
aI5
aI5
aI5
aI4
aI4
aI3
aI2
aI2
aI2
aI1
aI0
aI0
aI0
aI0
aI-1
aI-1
aI-1
aI-1
aI-1
aI-1
aI-1
aI-1
aI0
aI0
aI1
aI1
aI2
aI3
aI3
aI4
aI5
aI6
aI7
aI7
aI7
asS'time'
p7
(lp8
I393
aI415
aI433
aI451
aI470
aI487
aI503
aI520
aI537
aI554
aI571
aI587
aI604
aI620
aI637
aI654
aI670
aI687
aI704
aI721
aI737
aI753
aI770
aI787
aI803
aI820
aI820
aI838
aI855
aI872
aI888
aI905
aI922
aI939
aI956
aI974
aI991
aI1007
aI1024
aI1041
aI1058
aI1075
aI1092
aI1109
asS'y'
p9
(lp10
F750.0753173828125
aF767.689208984375
aF777.0679931640625
aF780.9894409179688
aF776.512451171875
aF767.231689453125
aF754.8137817382812
aF735.2064819335938
aF717.9848022460938
aF697.5606079101562
aF673.1495361328125
aF645.4053344726562
aF616.7787475585938
aF589.3285522460938
aF563.3816528320312
aF538.5131225585938
aF506.1611633300781
aF484.8872985839844
aF466.9466552734375
aF452.3719177246094
aF441.4572448730469
aF436.1959533691406
aF435.28094482421875
aF435.9998779296875
aF440.542236328125
aF454.234619140625
aF460.93377685546875
aF481.194580078125
aF501.1939697265625
aF524.2978515625
aF549.6892700195312
aF574.8518676757812
aF607.9227905273438
aF632.7913208007812
aF657.79052734375
aF682.6917724609375
aF716.1221313476562
aF733.0170288085938
aF766.0552368164062
aF788.9957275390625
aF808.11279296875
aF820.7921752929688
aF825.6286010742188
aF826.6416625976562
asS'x'
p11
(lp12
F2965.799072265625
aF2947.76025390625
aF2934.198486328125
aF2915.63671875
aF2902.07470703125
aF2888.74169921875
aF2875.539306640625
aF2860.278076171875
aF2850.866455078125
aF2842.533203125
aF2836.193603515625
aF2831.97802734375
aF2829.036865234375
aF2827.794921875
aF2828.74267578125
aF2832.468017578125
aF2840.637939453125
aF2847.14111328125
aF2855.11474609375
aF2865.96435546875
aF2879.068603515625
aF2889.23193359375
aF2894.329833984375
aF2899.88525390625
aF2908.90478515625
aF2918.120361328125
aF2920.11376953125
aF2922.433837890625
aF2921.74755859375
aF2918.577880859375
aF2913.218505859375
aF2906.5517578125
aF2896.650146484375
aF2888.120849609375
aF2878.51318359375
aF2868.0556640625
aF2852.206298828125
aF2843.677001953125
aF2825.899658203125
aF2813.15478515625
aF2803.971923828125
aF2799.886962890625
aF2799.298828125
aF2799.69091796875
as.