(dp0
S'y_tilt'
p1
(lp2
I13
aI12
aI11
aI10
aI9
aI9
aI9
aI9
aI9
aI10
aI11
aI12
aI14
aI15
aI16
aI18
aI18
aI19
aI20
aI21
aI21
aI21
aI21
aI20
aI19
aI18
aI17
aI16
aI15
aI14
aI13
aI11
aI10
aI8
aI7
aI7
aI7
asS'pressure'
p3
(lp4
F0.48046875
aF0.4853515625
aF0.494140625
aF0.5087890625
aF0.5302734375
aF0.53173828125
aF0.52001953125
aF0.5244140625
aF0.54052734375
aF0.55859375
aF0.5634765625
aF0.56884765625
aF0.5693359375
aF0.58056640625
aF0.59375
aF0.58984375
aF0.5849609375
aF0.58447265625
aF0.57861328125
aF0.58251953125
aF0.58935546875
aF0.6005859375
aF0.62451171875
aF0.64501953125
aF0.66357421875
aF0.6708984375
aF0.67724609375
aF0.6962890625
aF0.7138671875
aF0.72509765625
aF0.7314453125
aF0.73291015625
aF0.72900390625
aF0.70068359375
aF0.63671875
aF0.30126953125
aF0.0419921875
asS'x_tilt'
p5
(lp6
I-2
aI-2
aI0
aI0
aI0
aI1
aI1
aI1
aI0
aI0
aI0
aI-1
aI-1
aI-1
aI-1
aI-2
aI-3
aI-3
aI-4
aI-5
aI-5
aI-5
aI-5
aI-4
aI-3
aI-3
aI-2
aI-1
aI0
aI0
aI1
aI2
aI2
aI3
aI3
aI3
aI3
asS'time'
p7
(lp8
I304
aI324
aI344
aI362
aI380
aI398
aI416
aI433
aI451
aI470
aI488
aI508
aI526
aI543
aI561
aI580
aI598
aI615
aI633
aI651
aI670
aI690
aI710
aI728
aI747
aI765
aI783
aI800
aI819
aI835
aI853
aI869
aI885
aI901
aI917
aI934
aI950
asS'y'
p9
(lp10
F721.5140991210938
aF737.9515380859375
aF753.5719604492188
aF760.9246826171875
aF761.9703979492188
aF753.539306640625
aF739.6508178710938
aF718.5403442382812
aF682.2015991210938
aF653.5422973632812
aF625.2098388671875
aF589.5573120117188
aF553.6107177734375
aF529.0362548828125
aF509.7558288574219
aF490.6714172363281
aF479.1358337402344
aF471.7831115722656
aF468.6786193847656
aF469.65899658203125
aF472.8288269042969
aF489.168212890625
aF512.0433349609375
aF532.1080932617188
aF564.296630859375
aF590.9298095703125
aF618.1512451171875
aF654.0978393554688
aF680.9597778320312
aF709.324951171875
aF738.73583984375
aF765.4996948242188
aF786.5447998046875
aF801.4136352539062
aF807.459228515625
aF809.5833740234375
aF809.9754638671875
asS'x'
p11
(lp12
F2970.472412109375
aF2951.453125
aF2927.924072265625
aF2907.826416015625
aF2890.08154296875
aF2871.25830078125
aF2859.885986328125
aF2850.441650390625
aF2841.912353515625
aF2840.180419921875
aF2840.997314453125
aF2842.958251953125
aF2845.637939453125
aF2848.97119140625
aF2855.016845703125
aF2867.532958984375
aF2881.48681640625
aF2896.388671875
aF2909.32958984375
aF2923.21826171875
aF2928.708251953125
aF2938.904296875
aF2940.864990234375
aF2936.68212890625
aF2923.839111328125
aF2910.2119140625
aF2896.159912109375
aF2876.029541015625
aF2858.611572265625
aF2838.481201171875
aF2817.1416015625
aF2800.5732421875
aF2790.409912109375
aF2785.638916015625
aF2784.919921875
aF2785.44287109375
aF2785.900390625
as.