(dp0
S'y_tilt'
p1
(lp2
I23
aI23
aI23
aI23
aI23
aI23
aI23
aI23
aI23
aI23
aI23
aI23
aI22
aI21
aI21
aI20
aI19
aI18
aI18
aI17
aI16
aI16
aI15
aI14
aI13
aI13
aI12
aI11
aI10
aI10
aI9
aI8
aI8
aI7
aI6
aI6
aI5
aI5
aI4
aI3
aI3
aI2
aI1
aI1
aI0
aI0
aI-1
aI-1
aI-1
aI-1
aI-1
aI-1
aI-1
aI-1
aI-1
aI-2
aI-2
aI-1
aI0
aI0
aI0
aI0
aI2
aI2
aI2
aI2
aI2
aI2
aI2
aI2
aI2
aI2
aI2
aI3
aI3
aI4
aI4
aI4
aI4
aI5
aI6
aI6
aI6
aI6
aI7
aI7
aI8
aI9
aI9
aI9
aI10
aI10
aI11
aI12
aI12
aI13
aI13
aI13
aI13
aI14
aI15
aI15
aI16
aI16
aI16
aI16
aI17
aI17
aI18
aI19
aI19
aI19
aI19
aI19
aI20
aI21
aI22
aI22
aI22
aI22
aI22
aI22
aI22
aI23
aI23
aI23
aI23
aI23
aI23
asS'pressure'
p3
(lp4
F0.22607421875
aF0.251953125
aF0.26123046875
aF0.27001953125
aF0.283203125
aF0.30078125
aF0.31298828125
aF0.33203125
aF0.337890625
aF0.3447265625
aF0.3544921875
aF0.3642578125
aF0.376953125
aF0.388671875
aF0.3935546875
aF0.408203125
aF0.43310546875
aF0.44677734375
aF0.4560546875
aF0.4599609375
aF0.4609375
aF0.462890625
aF0.4697265625
aF0.4873046875
aF0.4921875
aF0.49755859375
aF0.50146484375
aF0.50341796875
aF0.50830078125
aF0.51025390625
aF0.515625
aF0.52685546875
aF0.53564453125
aF0.541015625
aF0.54443359375
aF0.54736328125
aF0.54931640625
aF0.548828125
aF0.548828125
aF0.55078125
aF0.55126953125
aF0.55126953125
aF0.548828125
aF0.544921875
aF0.5400390625
aF0.53759765625
aF0.53759765625
aF0.5380859375
aF0.53125
aF0.52490234375
aF0.521484375
aF0.51953125
aF0.5205078125
aF0.52490234375
aF0.5302734375
aF0.5341796875
aF0.54296875
aF0.54541015625
aF0.53271484375
aF0.50927734375
aF0.4716796875
aF0.35107421875
aF0.1181640625
aF0.19580078125
aF0.2412109375
aF0.26904296875
aF0.29833984375
aF0.328125
aF0.361328125
aF0.39404296875
aF0.40576171875
aF0.4404296875
aF0.4638671875
aF0.478515625
aF0.48876953125
aF0.5009765625
aF0.5107421875
aF0.52099609375
aF0.52978515625
aF0.5361328125
aF0.544921875
aF0.55078125
aF0.55517578125
aF0.55615234375
aF0.55615234375
aF0.560546875
aF0.5615234375
aF0.5634765625
aF0.56494140625
aF0.56689453125
aF0.5693359375
aF0.5703125
aF0.57275390625
aF0.5732421875
aF0.576171875
aF0.57666015625
aF0.58154296875
aF0.580078125
aF0.580078125
aF0.58056640625
aF0.58203125
aF0.583984375
aF0.58837890625
aF0.58984375
aF0.5869140625
aF0.58642578125
aF0.58984375
aF0.59326171875
aF0.5986328125
aF0.6005859375
aF0.6025390625
aF0.60595703125
aF0.61181640625
aF0.61572265625
aF0.61962890625
aF0.62158203125
aF0.62255859375
aF0.62158203125
aF0.619140625
aF0.619140625
aF0.61865234375
aF0.6142578125
aF0.61328125
aF0.6083984375
aF0.60595703125
aF0.59912109375
aF0.5751953125
aF0.521484375
aF0.34033203125
asS'x_tilt'
p5
(lp6
I30
aI30
aI30
aI30
aI29
aI29
aI29
aI29
aI29
aI29
aI29
aI29
aI29
aI29
aI29
aI29
aI29
aI29
aI29
aI29
aI29
aI29
aI29
aI29
aI28
aI28
aI27
aI27
aI27
aI26
aI26
aI26
aI26
aI25
aI25
aI25
aI25
aI25
aI25
aI25
aI25
aI25
aI25
aI25
aI24
aI24
aI24
aI24
aI24
aI23
aI22
aI22
aI22
aI22
aI22
aI22
aI21
aI21
aI21
aI20
aI20
aI20
aI25
aI25
aI25
aI25
aI25
aI25
aI25
aI25
aI25
aI25
aI25
aI25
aI25
aI25
aI25
aI25
aI25
aI25
aI24
aI24
aI24
aI24
aI24
aI24
aI24
aI24
aI24
aI24
aI24
aI24
aI24
aI24
aI24
aI24
aI24
aI24
aI24
aI24
aI23
aI23
aI23
aI23
aI23
aI23
aI23
aI23
aI23
aI22
aI22
aI22
aI22
aI22
aI22
aI23
aI23
aI23
aI24
aI24
aI24
aI25
aI25
aI25
aI25
aI25
aI25
aI25
aI25
asS'time'
p7
(lp8
I1006
aI1024
aI1041
aI1056
aI1072
aI1087
aI1103
aI1118
aI1133
aI1149
aI1165
aI1181
aI1197
aI1214
aI1230
aI1246
aI1262
aI1278
aI1293
aI1308
aI1323
aI1338
aI1353
aI1368
aI1384
aI1399
aI1415
aI1431
aI1447
aI1463
aI1481
aI1498
aI1516
aI1533
aI1550
aI1567
aI1584
aI1600
aI1617
aI1633
aI1650
aI1667
aI1684
aI1701
aI1717
aI1734
aI1751
aI1768
aI1784
aI1801
aI1818
aI1835
aI1852
aI1868
aI1885
aI1902
aI1918
aI1935
aI1952
aI1969
aI1985
aI2002
aI2772
aI2792
aI2811
aI2828
aI2844
aI2861
aI2877
aI2894
aI2911
aI2911
aI2927
aI2943
aI2960
aI2977
aI2993
aI3010
aI3026
aI3042
aI3058
aI3075
aI3091
aI3108
aI3108
aI3124
aI3140
aI3157
aI3173
aI3173
aI3189
aI3206
aI3222
aI3238
aI3254
aI3270
aI3287
aI3304
aI3320
aI3337
aI3354
aI3370
aI3387
aI3404
aI3404
aI3420
aI3437
aI3454
aI3471
aI3488
aI3504
aI3521
aI3537
aI3555
aI3571
aI3588
aI3605
aI3621
aI3638
aI3655
aI3672
aI3689
aI3706
aI3722
aI3737
aI3754
aI3771
aI3788
aI3804
asS'y'
p9
(lp10
F445.67279052734375
aF445.5747375488281
aF445.4767150878906
aF445.3133239746094
aF445.11724853515625
aF445.0518798828125
aF445.3786926269531
aF446.8165588378906
aF449.59423828125
aF453.6790771484375
aF458.7442932128906
aF464.5937805175781
aF472.63275146484375
aF486.9133605957031
aF503.8736572265625
aF513.6119384765625
aF523.7096557617188
aF530.04931640625
aF539.5914916992188
aF551.3231811523438
aF555.4407348632812
aF561.7803955078125
aF572.07421875
aF585.2437133789062
aF592.7271728515625
aF599.91650390625
aF609.2952880859375
aF618.5433959960938
aF627.72607421875
aF636.6473999023438
aF645.0784912109375
aF653.41162109375
aF662.65966796875
aF674.4567260742188
aF683.0512084960938
aF692.6260986328125
aF702.9525756835938
aF710.632080078125
aF719.6514282226562
aF728.5073852539062
aF739.9776000976562
aF748.8662109375
aF757.9835815429688
aF766.578125
aF773.63671875
aF778.7999877929688
aF782.8194580078125
aF786.6101684570312
aF791.7080688476562
aF794.84521484375
aF796.7079467773438
aF797.1327514648438
aF796.3157958984375
aF794.5184326171875
aF792.0675659179688
aF788.7669677734375
aF782.1985473632812
aF775.5321044921875
aF768.2447509765625
aF761.2841796875
aF754.9118041992188
aF748.8008422851562
aF753.4412841796875
aF753.6699829101562
aF752.5262451171875
aF750.4674682617188
aF747.1995849609375
aF743.11474609375
aF738.5724487304688
aF734.095458984375
aF732.6902465820312
aF728.8341674804688
aF725.239501953125
aF721.2853393554688
aF716.2201538085938
aF709.9458618164062
aF703.3773803710938
aF697.2338256835938
aF691.5150146484375
aF685.2080078125
aF677.69189453125
aF669.1954345703125
aF660.7643432617188
aF653.182861328125
aF650.8299560546875
aF646.2549438476562
aF637.03955078125
aF632.1050415039062
aF629.5560913085938
aF624.4909057617188
aF614.719970703125
aF608.2822265625
aF602.2693481445312
aF596.1911010742188
aF589.6226806640625
aF582.890869140625
aF576.453125
aF570.4075927734375
aF564.5907592773438
aF558.7412719726562
aF552.826416015625
aF546.84619140625
aF540.865966796875
aF538.9052734375
aF532.8596801757812
aF526.5526733398438
aF520.2456665039062
aF514.3308715820312
aF508.8735046386719
aF503.6448974609375
aF498.3509216308594
aF492.8935852050781
aF485.57354736328125
aF480.47564697265625
aF475.8679504394531
aF471.6197204589844
aF467.6002197265625
aF463.7114562988281
aF460.0187683105469
aF455.4764099121094
aF452.469970703125
aF449.9210205078125
aF447.7969055175781
aF446.0322570800781
aF444.6270751953125
aF443.7120666503906
aF443.2872314453125
aF443.6466979980469
aF445.3133239746094
asS'x'
p11
(lp12
F2873.317138671875
aF2872.859619140625
aF2872.467529296875
aF2872.10791015625
aF2871.585205078125
aF2870.47412109375
aF2869.264892578125
aF2866.585205078125
aF2863.28466796875
aF2860.0166015625
aF2857.075439453125
aF2854.7880859375
aF2853.088623046875
aF2851.912353515625
aF2851.58544921875
aF2851.879638671875
aF2852.239013671875
aF2852.206298828125
aF2852.173583984375
aF2852.14111328125
aF2852.14111328125
aF2852.173583984375
aF2852.369873046875
aF2852.761962890625
aF2853.055908203125
aF2853.709716796875
aF2854.68994140625
aF2855.703125
aF2856.650634765625
aF2857.50048828125
aF2858.28466796875
aF2859.003662109375
aF2859.6572265625
aF2860.343505859375
aF2860.931640625
aF2861.421875
aF2861.552490234375
aF2861.52001953125
aF2861.585205078125
aF2862.140869140625
aF2863.7421875
aF2865.343505859375
aF2867.075439453125
aF2868.970703125
aF2871.127685546875
aF2873.741943359375
aF2876.781005859375
aF2880.2451171875
aF2885.57177734375
aF2889.950927734375
aF2894.55859375
aF2899.329833984375
aF2904.198974609375
aF2909.068115234375
aF2914.2314453125
aF2920.04833984375
aF2929.06787109375
aF2936.19189453125
aF2942.727783203125
aF2947.89111328125
aF2951.518310546875
aF2954.0673828125
aF2814.49462890625
aF2814.91943359375
aF2815.3115234375
aF2816.488037109375
aF2818.44873046875
aF2820.932373046875
aF2823.644775390625
aF2826.259033203125
aF2827.076171875
aF2829.461669921875
aF2831.84716796875
aF2834.461669921875
aF2837.435302734375
aF2840.670654296875
aF2843.775146484375
aF2846.58544921875
aF2849.167236328125
aF2851.94482421875
aF2855.212890625
aF2858.938232421875
aF2862.6962890625
aF2866.094970703125
aF2867.140625
aF2869.199462890625
aF2873.284423828125
aF2875.441162109375
aF2876.519775390625
aF2878.578369140625
aF2882.205810546875
aF2884.362548828125
aF2886.290771484375
aF2888.25146484375
aF2890.244873046875
aF2892.074951171875
aF2893.578125
aF2894.721923828125
aF2895.669677734375
aF2896.552001953125
aF2897.59765625
aF2898.67626953125
aF2899.623779296875
aF2899.88525390625
aF2900.669677734375
aF2901.486572265625
aF2902.23828125
aF2902.859130859375
aF2903.1533203125
aF2903.185791015625
aF2902.98974609375
aF2902.69580078125
aF2902.009521484375
aF2901.127197265625
aF2900.01611328125
aF2898.708740234375
aF2897.27099609375
aF2895.50634765625
aF2893.382080078125
aF2890.01611328125
aF2887.33642578125
aF2884.460693359375
aF2881.19287109375
aF2877.53271484375
aF2873.643798828125
aF2869.624267578125
aF2865.670166015625
aF2861.683349609375
aF2857.892578125
as.