(dp0
S'y_tilt'
p1
(lp2
I18
aI18
aI18
aI18
aI18
aI18
aI18
aI18
aI17
aI17
aI17
aI17
aI17
aI18
aI18
aI18
aI18
aI18
aI18
aI19
aI19
aI19
aI19
aI19
aI20
aI20
aI20
aI20
aI20
aI20
aI20
aI20
aI20
aI21
aI21
aI21
aI21
aI21
aI21
aI21
aI20
aI20
aI19
aI19
aI19
aI18
aI18
aI17
aI17
aI17
aI17
aI16
aI16
aI16
aI15
aI15
aI15
aI15
aI15
aI15
aI15
aI15
aI16
aI16
asS'pressure'
p3
(lp4
F0.32470703125
aF0.3251953125
aF0.34814453125
aF0.37744140625
aF0.41943359375
aF0.44287109375
aF0.478515625
aF0.49755859375
aF0.50341796875
aF0.50537109375
aF0.505859375
aF0.50830078125
aF0.51025390625
aF0.51025390625
aF0.51318359375
aF0.51611328125
aF0.51806640625
aF0.52001953125
aF0.5224609375
aF0.52490234375
aF0.52490234375
aF0.52685546875
aF0.52490234375
aF0.5224609375
aF0.51806640625
aF0.51123046875
aF0.5107421875
aF0.5107421875
aF0.5126953125
aF0.50830078125
aF0.49755859375
aF0.48486328125
aF0.4736328125
aF0.4638671875
aF0.46337890625
aF0.46630859375
aF0.4765625
aF0.4892578125
aF0.49951171875
aF0.50439453125
aF0.50732421875
aF0.51220703125
aF0.5166015625
aF0.52294921875
aF0.53271484375
aF0.5380859375
aF0.53955078125
aF0.53955078125
aF0.5400390625
aF0.54150390625
aF0.5439453125
aF0.5478515625
aF0.548828125
aF0.55078125
aF0.55322265625
aF0.57275390625
aF0.59228515625
aF0.61328125
aF0.6279296875
aF0.63671875
aF0.63916015625
aF0.64111328125
aF0.61572265625
aF0.53369140625
asS'x_tilt'
p5
(lp6
I20
aI21
aI21
aI22
aI22
aI22
aI22
aI22
aI22
aI22
aI22
aI22
aI22
aI22
aI22
aI22
aI22
aI22
aI21
aI20
aI20
aI20
aI19
aI19
aI19
aI19
aI19
aI19
aI19
aI19
aI18
aI18
aI18
aI18
aI18
aI18
aI18
aI18
aI18
aI18
aI18
aI18
aI18
aI18
aI18
aI18
aI18
aI18
aI18
aI18
aI18
aI18
aI18
aI18
aI18
aI18
aI17
aI17
aI17
aI17
aI17
aI17
aI17
aI17
asS'time'
p7
(lp8
I1596
aI1615
aI1632
aI1650
aI1667
aI1686
aI1704
aI1721
aI1739
aI1755
aI1771
aI1789
aI1806
aI1823
aI1823
aI1840
aI1858
aI1875
aI1892
aI1909
aI1926
aI1943
aI1960
aI1977
aI1994
aI2011
aI2028
aI2045
aI2061
aI2077
aI2095
aI2111
aI2127
aI2145
aI2161
aI2178
aI2195
aI2211
aI2228
aI2245
aI2262
aI2279
aI2297
aI2314
aI2331
aI2348
aI2366
aI2383
aI2402
aI2420
aI2437
aI2454
aI2470
aI2487
aI2504
aI2521
aI2537
aI2554
aI2570
aI2587
aI2604
aI2621
aI2637
aI2654
asS'y'
p9
(lp10
F677.1690673828125
aF677.071044921875
aF676.6461791992188
aF675.3390502929688
aF670.8947143554688
aF662.5616455078125
aF642.6602783203125
aF629.0986328125
aF615.9944458007812
aF601.7791748046875
aF585.4071044921875
aF567.1069946289062
aF548.9703369140625
aF542.9901123046875
aF524.4285888671875
aF505.67095947265625
aF486.3251647949219
aF466.6852111816406
aF441.0977783203125
aF423.3205261230469
aF405.6413269042969
aF388.32159423828125
aF371.4920349121094
aF355.61016845703125
aF337.9309387207031
aF326.1339111328125
aF315.7747497558594
aF309.7945556640625
aF305.5136413574219
aF299.66412353515625
aF294.9584045410156
aF292.5401611328125
aF292.21337890625
aF295.6773376464844
aF304.10845947265625
aF321.1994323730469
aF339.89166259765625
aF356.100341796875
aF374.4657897949219
aF395.1187744140625
aF426.4576721191406
aF451.6203308105469
aF477.1424255371094
aF502.69720458984375
aF528.4480590820312
aF564.6561279296875
aF593.2173461914062
aF621.125
aF655.0782470703125
aF678.7703247070312
aF701.2532958984375
aF723.1807250976562
aF743.0494384765625
aF763.8330688476562
aF774.1596069335938
aF780.6299438476562
aF781.7410278320312
aF778.3097534179688
aF770.0420532226562
aF756.8724975585938
aF740.3370971679688
aF718.572998046875
aF703.4427490234375
aF689.848388671875
asS'x'
p11
(lp12
F2768.02490234375
aF2768.057373046875
aF2768.678466796875
aF2770.312255859375
aF2775.14892578125
aF2783.05712890625
aF2800.442626953125
aF2811.520751953125
aF2821.5859375
aF2832.468017578125
aF2844.00390625
aF2855.016845703125
aF2864.820556640625
aF2867.76171875
aF2875.865966796875
aF2883.611083984375
aF2890.44091796875
aF2896.127197265625
aF2901.453857421875
aF2903.610595703125
aF2904.296875
aF2904.591064453125
aF2904.198974609375
aF2902.6630859375
aF2898.708740234375
aF2894.721923828125
aF2890.767822265625
aF2888.120849609375
aF2885.735107421875
aF2881.682861328125
aF2876.879150390625
aF2872.042724609375
aF2867.532958984375
aF2862.206298828125
aF2857.43505859375
aF2851.16064453125
aF2845.7685546875
aF2842.1083984375
aF2839.03662109375
aF2836.193603515625
aF2832.500732421875
aF2830.1806640625
aF2828.579345703125
aF2827.92578125
aF2828.416015625
aF2829.821044921875
aF2830.670654296875
aF2831.97802734375
aF2835.4091796875
aF2839.4287109375
aF2844.494140625
aF2850.18017578125
aF2856.421875
aF2866.585205078125
aF2876.421630859375
aF2888.055419921875
aF2899.8525390625
aF2912.564697265625
aF2926.486083984375
aF2940.11328125
aF2952.858154296875
aF2966.844970703125
aF2973.936279296875
aF2977.79248046875
as.