(dp0
S'y_tilt'
p1
(lp2
I12
aI12
aI12
aI12
aI12
aI12
aI12
aI12
aI12
aI11
aI11
aI10
aI9
aI9
aI9
aI9
aI9
aI9
aI9
aI9
aI9
aI9
aI9
aI9
aI9
aI9
aI9
aI9
aI9
aI9
aI9
aI9
aI9
aI9
aI9
aI10
aI10
aI10
aI10
aI10
aI10
aI10
aI10
aI10
aI10
aI10
aI10
aI10
aI11
aI11
aI11
aI11
aI12
aI12
aI12
aI12
aI13
aI13
aI13
aI13
aI13
aI13
aI14
aI14
aI14
aI14
aI14
aI14
aI14
aI14
aI15
aI15
aI15
aI15
aI15
aI16
aI16
aI16
aI16
aI16
aI16
aI16
aI16
aI16
aI16
aI16
aI16
aI16
aI16
aI16
aI16
aI15
aI15
aI15
aI15
aI15
aI15
aI15
aI15
aI15
aI15
aI14
aI14
aI14
aI14
aI14
aI14
aI13
aI12
asS'pressure'
p3
(lp4
F0.3505859375
aF0.32568359375
aF0.337890625
aF0.34521484375
aF0.37744140625
aF0.42041015625
aF0.45263671875
aF0.47216796875
aF0.48583984375
aF0.490234375
aF0.509765625
aF0.525390625
aF0.53564453125
aF0.54150390625
aF0.54638671875
aF0.55126953125
aF0.556640625
aF0.55908203125
aF0.55908203125
aF0.5615234375
aF0.56103515625
aF0.55712890625
aF0.556640625
aF0.55224609375
aF0.55078125
aF0.54541015625
aF0.54541015625
aF0.54736328125
aF0.54833984375
aF0.54833984375
aF0.54931640625
aF0.552734375
aF0.5546875
aF0.5576171875
aF0.5576171875
aF0.56005859375
aF0.56494140625
aF0.568359375
aF0.57177734375
aF0.57421875
aF0.57568359375
aF0.5791015625
aF0.583984375
aF0.5859375
aF0.58935546875
aF0.59375
aF0.59375
aF0.59375
aF0.595703125
aF0.59912109375
aF0.60546875
aF0.61376953125
aF0.61376953125
aF0.61376953125
aF0.61328125
aF0.61279296875
aF0.61279296875
aF0.61279296875
aF0.61279296875
aF0.61083984375
aF0.6103515625
aF0.60986328125
aF0.607421875
aF0.60693359375
aF0.60400390625
aF0.5986328125
aF0.59326171875
aF0.5859375
aF0.57177734375
aF0.56103515625
aF0.556640625
aF0.55615234375
aF0.55224609375
aF0.55126953125
aF0.5517578125
aF0.552734375
aF0.552734375
aF0.5546875
aF0.5546875
aF0.560546875
aF0.56298828125
aF0.568359375
aF0.57080078125
aF0.57373046875
aF0.576171875
aF0.57958984375
aF0.5810546875
aF0.58154296875
aF0.5849609375
aF0.5849609375
aF0.58544921875
aF0.587890625
aF0.58837890625
aF0.59033203125
aF0.59033203125
aF0.59326171875
aF0.59375
aF0.595703125
aF0.59814453125
aF0.603515625
aF0.6083984375
aF0.60888671875
aF0.609375
aF0.609375
aF0.60107421875
aF0.5791015625
aF0.546875
aF0.49853515625
aF0.36181640625
asS'x_tilt'
p5
(lp6
I21
aI21
aI21
aI21
aI21
aI21
aI21
aI21
aI21
aI21
aI21
aI21
aI21
aI21
aI20
aI20
aI20
aI19
aI19
aI19
aI19
aI20
aI20
aI20
aI20
aI20
aI21
aI21
aI21
aI21
aI21
aI21
aI21
aI21
aI21
aI21
aI21
aI21
aI21
aI21
aI21
aI21
aI21
aI21
aI21
aI21
aI21
aI21
aI21
aI21
aI21
aI21
aI21
aI21
aI21
aI21
aI21
aI20
aI20
aI20
aI20
aI20
aI20
aI20
aI20
aI20
aI20
aI20
aI21
aI21
aI21
aI21
aI21
aI21
aI20
aI19
aI19
aI19
aI19
aI19
aI19
aI19
aI19
aI19
aI19
aI19
aI19
aI19
aI20
aI20
aI20
aI20
aI20
aI20
aI20
aI20
aI20
aI20
aI20
aI21
aI21
aI21
aI21
aI21
aI21
aI21
aI22
aI22
aI22
asS'time'
p7
(lp8
I634
aI652
aI669
aI684
aI699
aI715
aI731
aI748
aI764
aI780
aI781
aI797
aI813
aI830
aI846
aI863
aI879
aI896
aI912
aI929
aI944
aI960
aI975
aI991
aI1007
aI1023
aI1039
aI1055
aI1071
aI1088
aI1105
aI1124
aI1141
aI1157
aI1174
aI1190
aI1206
aI1223
aI1239
aI1255
aI1271
aI1288
aI1304
aI1320
aI1337
aI1353
aI1369
aI1385
aI1401
aI1418
aI1435
aI1451
aI1468
aI1485
aI1501
aI1519
aI1535
aI1551
aI1568
aI1568
aI1584
aI1584
aI1601
aI1618
aI1635
aI1651
aI1669
aI1685
aI1701
aI1718
aI1735
aI1751
aI1768
aI1785
aI1802
aI1818
aI1834
aI1851
aI1868
aI1884
aI1902
aI1918
aI1935
aI1951
aI1969
aI1985
aI2001
aI2018
aI2035
aI2051
aI2051
aI2068
aI2084
aI2102
aI2118
aI2135
aI2151
aI2168
aI2184
aI2202
aI2218
aI2234
aI2252
aI2268
aI2285
aI2302
aI2318
aI2335
aI2351
asS'y'
p9
(lp10
F725.0107421875
aF725.8604125976562
aF727.9518432617188
aF730.5661010742188
aF735.63134765625
aF740.7619018554688
aF745.108154296875
aF749.2910766601562
aF754.19287109375
aF755.9901733398438
aF761.7416381835938
aF767.3950805664062
aF772.2642211914062
aF776.28369140625
aF779.845703125
aF783.1135864257812
aF785.793212890625
aF787.6885986328125
aF788.7996826171875
aF789.322509765625
aF789.4205322265625
aF789.09375
aF788.1134033203125
aF786.5121459960938
aF784.1593017578125
aF780.8914184570312
aF776.6758422851562
aF771.8067016601562
aF766.578125
aF761.055419921875
aF754.9444580078125
aF745.4022827148438
aF737.5266723632812
aF729.5531005859375
aF721.710205078125
aF713.8019409179688
aF705.5341796875
aF696.8416748046875
aF687.9530639648438
aF678.9990844726562
aF669.4568481445312
aF656.1566162109375
aF641.255126953125
aF629.98095703125
aF622.00732421875
aF615.602294921875
aF609.8181762695312
aF598.5440063476562
aF583.6751708984375
aF573.6754760742188
aF567.205078125
aF559.460205078125
aF550.5715942382812
aF541.3888549804688
aF531.8793334960938
aF522.4678344726562
aF513.25244140625
aF507.2068786621094
aF504.1677551269531
aF495.11572265625
aF492.07659912109375
aF486.1617736816406
aF474.72418212890625
aF466.6525573730469
aF459.2017822265625
aF452.63336181640625
aF447.20867919921875
aF443.12384033203125
aF440.47686767578125
aF438.9736328125
aF438.3527526855469
aF438.38543701171875
aF440.084716796875
aF442.69903564453125
aF446.5877990722656
aF451.81640625
aF458.05804443359375
aF464.78985595703125
aF471.68505859375
aF478.93975830078125
aF490.5080261230469
aF500.05023193359375
aF509.8211669921875
aF521.8142700195312
aF537.5654296875
aF551.4212036132812
aF562.564697265625
aF573.9695434570312
aF585.4071044921875
aF589.1978759765625
aF596.6159057617188
aF611.3540649414062
aF622.3994750976562
aF633.4122314453125
aF643.4772338867188
aF653.8037719726562
aF665.2739868164062
aF676.8749389648438
aF687.8876953125
aF701.4493408203125
aF709.324951171875
aF715.8280029296875
aF721.5468139648438
aF730.108642578125
aF738.474365234375
aF745.8924560546875
aF751.970703125
aF756.7418212890625
aF760.0750122070312
asS'x'
p11
(lp12
F2954.03466796875
aF2953.871337890625
aF2953.871337890625
aF2953.871337890625
aF2953.7080078125
aF2953.0869140625
aF2951.943115234375
aF2950.178466796875
aF2947.596923828125
aF2946.5185546875
aF2942.695068359375
aF2938.250732421875
aF2933.642822265625
aF2929.165771484375
aF2924.688720703125
aF2920.146484375
aF2915.734619140625
aF2911.715087890625
aF2907.760986328125
aF2903.47998046875
aF2898.872314453125
aF2894.10107421875
aF2889.395263671875
aF2885.1796875
aF2881.682861328125
aF2878.83984375
aF2876.5849609375
aF2874.624267578125
aF2872.6962890625
aF2870.7353515625
aF2868.93798828125
aF2867.108154296875
aF2866.029541015625
aF2864.91845703125
aF2863.447998046875
aF2861.78125
aF2860.343505859375
aF2859.526611328125
aF2859.330322265625
aF2859.330322265625
aF2859.2978515625
aF2859.428466796875
aF2860.572265625
aF2861.585205078125
aF2861.94482421875
aF2862.042724609375
aF2861.912109375
aF2861.683349609375
aF2861.617919921875
aF2861.617919921875
aF2861.4873046875
aF2861.193115234375
aF2860.9970703125
aF2861.127685546875
aF2861.81396484375
aF2862.79443359375
aF2863.905517578125
aF2864.6572265625
aF2865.04931640625
aF2866.38916015625
aF2866.944580078125
aF2868.15380859375
aF2871.062255859375
aF2873.317138671875
aF2875.3759765625
aF2877.303955078125
aF2879.035888671875
aF2880.57177734375
aF2881.91162109375
aF2883.2841796875
aF2884.885498046875
aF2886.781005859375
aF2889.852783203125
aF2892.33642578125
aF2894.787353515625
aF2897.042236328125
aF2899.166259765625
aF2901.127197265625
aF2902.859130859375
aF2904.198974609375
aF2905.146728515625
aF2905.31005859375
aF2905.2119140625
aF2904.39501953125
aF2902.336181640625
aF2899.95068359375
aF2897.59765625
aF2894.95068359375
aF2892.3037109375
aF2891.388671875
aF2889.362548828125
aF2884.59130859375
aF2880.800537109375
aF2876.74853515625
aF2872.6962890625
aF2868.1865234375
aF2863.023193359375
aF2857.40234375
aF2851.389404296875
aF2843.317626953125
aF2838.284912109375
aF2834.0693359375
aF2830.311279296875
aF2824.755859375
aF2819.494384765625
aF2815.082763671875
aF2811.651611328125
aF2809.13525390625
aF2807.337890625
as.