(dp0
S'a'
p1
(dp2
S'answered'
p3
(lp4
sS'success'
p5
(lp6
sS'index'
p7
(lp8
ssS'e'
p9
(dp10
g3
(lp11
S'l'
p12
asg5
(lp13
I00
asg7
(lp14
I0
assS'm'
p15
(dp16
g3
(lp17
sg5
(lp18
sg7
(lp19
ssg12
(dp20
g3
(lp21
sg5
(lp22
sg7
(lp23
ssS'o'
p24
(dp25
g3
(lp26
sg5
(lp27
sg7
(lp28
ssS'n'
p29
(dp30
g3
(lp31
sg5
(lp32
sg7
(lp33
ssS'u'
p34
(dp35
g3
(lp36
sg5
(lp37
sg7
(lp38
ssS'y'
p39
(dp40
g3
(lp41
sg5
(lp42
sg7
(lp43
ss.