(dp0
S'y_tilt'
p1
(lp2
I8
aI8
aI8
aI9
aI9
aI9
aI8
aI8
aI7
aI7
aI6
aI5
aI5
aI4
aI3
aI2
aI2
aI1
aI0
aI0
aI0
aI-1
aI-1
aI-1
aI-1
aI-1
aI-1
aI-1
aI-1
aI-1
aI0
aI0
aI1
aI2
aI3
aI3
aI4
aI5
aI6
aI6
aI7
aI7
aI7
aI8
aI8
aI7
aI6
aI5
aI4
aI3
aI2
aI0
aI0
aI-1
aI-2
aI-2
aI-3
aI-4
aI-5
aI-5
aI-4
aI-3
aI-3
asS'pressure'
p3
(lp4
F0.37744140625
aF0.4111328125
aF0.42626953125
aF0.447265625
aF0.46142578125
aF0.4736328125
aF0.47900390625
aF0.4794921875
aF0.484375
aF0.49072265625
aF0.50048828125
aF0.5009765625
aF0.50244140625
aF0.5068359375
aF0.5048828125
aF0.49462890625
aF0.49365234375
aF0.49560546875
aF0.49755859375
aF0.49755859375
aF0.498046875
aF0.49853515625
aF0.4990234375
aF0.501953125
aF0.50244140625
aF0.50244140625
aF0.5029296875
aF0.5048828125
aF0.50634765625
aF0.50634765625
aF0.50634765625
aF0.5068359375
aF0.5107421875
aF0.515625
aF0.5224609375
aF0.52294921875
aF0.5234375
aF0.52587890625
aF0.53076171875
aF0.5361328125
aF0.5380859375
aF0.54150390625
aF0.56005859375
aF0.56103515625
aF0.5712890625
aF0.58056640625
aF0.59326171875
aF0.61474609375
aF0.62548828125
aF0.63134765625
aF0.63623046875
aF0.63720703125
aF0.64013671875
aF0.6357421875
aF0.6357421875
aF0.630859375
aF0.62890625
aF0.63525390625
aF0.63916015625
aF0.6337890625
aF0.5986328125
aF0.501953125
aF0.0
asS'x_tilt'
p5
(lp6
I24
aI24
aI24
aI24
aI24
aI24
aI25
aI25
aI26
aI26
aI26
aI27
aI27
aI27
aI27
aI27
aI27
aI27
aI27
aI27
aI27
aI26
aI26
aI26
aI25
aI25
aI25
aI25
aI25
aI25
aI24
aI24
aI24
aI24
aI24
aI24
aI24
aI25
aI25
aI25
aI25
aI25
aI25
aI25
aI25
aI25
aI25
aI25
aI25
aI25
aI25
aI24
aI24
aI24
aI24
aI24
aI24
aI23
aI22
aI22
aI21
aI21
aI21
asS'time'
p7
(lp8
I1532
aI1551
aI1570
aI1587
aI1603
aI1621
aI1638
aI1655
aI1675
aI1695
aI1712
aI1730
aI1747
aI1764
aI1782
aI1799
aI1816
aI1833
aI1850
aI1867
aI1867
aI1884
aI1901
aI1918
aI1936
aI1953
aI1970
aI1986
aI2003
aI2020
aI2037
aI2054
aI2072
aI2089
aI2109
aI2128
aI2145
aI2162
aI2179
aI2197
aI2214
aI2231
aI2248
aI2265
aI2282
aI2299
aI2316
aI2333
aI2350
aI2367
aI2384
aI2402
aI2418
aI2435
aI2435
aI2452
aI2469
aI2486
aI2503
aI2520
aI2536
aI2552
aI2570
asS'y'
p9
(lp10
F504.36383056640625
aF503.57952880859375
aF502.2723693847656
aF502.59918212890625
aF507.8277587890625
aF519.2980346679688
aF530.4088134765625
aF543.2842407226562
aF560.8980712890625
aF574.1656494140625
aF594.1976928710938
aF610.275634765625
aF625.8634033203125
aF640.2094116210938
aF656.0912475585938
aF662.1694946289062
aF666.7772216796875
aF673.9992065429688
aF682.56103515625
aF684.7178344726562
aF687.5935668945312
aF686.5478515625
aF683.2799682617188
aF677.7899780273438
aF672.2672119140625
aF658.5094604492188
aF647.4640502929688
aF636.7127685546875
aF626.0595092773438
aF614.3278198242188
aF601.5831298828125
aF582.2373046875
aF567.3357543945312
aF555.66943359375
aF547.957275390625
aF542.2384643554688
aF530.6702270507812
aF522.5005493164062
aF515.8994140625
aF511.259033203125
aF508.0892028808594
aF505.9324035644531
aF504.8213195800781
aF505.8343811035156
aF509.33099365234375
aF518.1542358398438
aF536.1275634765625
aF563.8391723632812
aF583.315673828125
aF602.0079345703125
aF619.8505249023438
aF638.4774169921875
aF655.0455322265625
aF666.1563110351562
aF668.182373046875
aF672.2672119140625
aF676.7769165039062
aF672.5613403320312
aF661.0911254882812
aF645.241943359375
aF627.1378784179688
aF609.7854614257812
aF589.9168090820312
asS'x'
p11
(lp12
F4603.087890625
aF4598.31640625
aF4589.0029296875
aF4572.859375
aF4555.931640625
aF4534.52685546875
aF4517.46826171875
aF4500.27880859375
aF4479.919921875
aF4466.521484375
aF4452.76318359375
aF4445.21435546875
aF4440.3125
aF4438.87451171875
aF4440.77001953125
aF4443.09033203125
aF4446.2275390625
aF4452.46923828125
aF4464.39697265625
aF4469.52783203125
aF4485.40966796875
aF4498.1220703125
aF4510.50732421875
aF4522.5986328125
aF4530.703125
aF4544.36328125
aF4553.9052734375
aF4562.10791015625
aF4568.57861328125
aF4574.00341796875
aF4579.1337890625
aF4585.93115234375
aF4590.7021484375
aF4594.55859375
aF4596.87841796875
aF4598.34912109375
aF4601.22509765625
aF4603.2509765625
aF4604.8525390625
aF4605.7998046875
aF4606.15966796875
aF4606.25732421875
aF4606.25732421875
aF4606.126953125
aF4605.505859375
aF4603.8720703125
aF4600.53857421875
aF4594.9833984375
aF4591.0615234375
aF4588.18603515625
aF4586.3232421875
aF4585.5390625
aF4586.42138671875
aF4589.427734375
aF4590.5390625
aF4594.75439453125
aF4606.58447265625
aF4624.9501953125
aF4643.51171875
aF4663.21728515625
aF4684.197265625
aF4704.1318359375
aF4724.42529296875
as.