(dp0
S'y_tilt'
p1
(lp2
I29
aI30
aI30
aI30
aI29
aI29
aI29
aI29
aI29
aI28
aI27
aI27
aI26
aI26
aI26
aI25
aI25
aI25
aI26
aI27
aI27
aI28
aI29
aI30
aI31
aI31
aI32
aI33
aI34
aI35
aI35
aI35
aI34
aI34
aI33
aI33
aI33
aI33
aI33
aI33
aI33
aI33
aI32
aI32
aI31
aI31
aI31
aI31
aI31
aI31
aI31
aI31
aI31
aI31
aI31
aI31
aI31
aI30
aI30
aI29
aI28
aI28
aI28
aI28
aI28
aI28
aI29
aI30
aI30
aI30
aI31
aI31
asS'pressure'
p3
(lp4
F0.3564453125
aF0.42529296875
aF0.51123046875
aF0.560546875
aF0.5947265625
aF0.6201171875
aF0.6396484375
aF0.65185546875
aF0.67822265625
aF0.68896484375
aF0.70654296875
aF0.716796875
aF0.71923828125
aF0.7197265625
aF0.71923828125
aF0.71923828125
aF0.716796875
aF0.71240234375
aF0.71044921875
aF0.7080078125
aF0.70361328125
aF0.703125
aF0.70458984375
aF0.70703125
aF0.70751953125
aF0.71240234375
aF0.712890625
aF0.71240234375
aF0.7099609375
aF0.70947265625
aF0.7060546875
aF0.70361328125
aF0.70458984375
aF0.705078125
aF0.7060546875
aF0.7080078125
aF0.708984375
aF0.70947265625
aF0.71044921875
aF0.71240234375
aF0.71435546875
aF0.71630859375
aF0.71630859375
aF0.71875
aF0.7236328125
aF0.728515625
aF0.73779296875
aF0.76025390625
aF0.75244140625
aF0.6982421875
aF0.51806640625
aF0.3037109375
aF0.4853515625
aF0.5595703125
aF0.6162109375
aF0.66552734375
aF0.69189453125
aF0.69677734375
aF0.70556640625
aF0.7138671875
aF0.7216796875
aF0.7294921875
aF0.74365234375
aF0.76123046875
aF0.76416015625
aF0.76416015625
aF0.7568359375
aF0.748046875
aF0.7431640625
aF0.72314453125
aF0.64013671875
aF0.04345703125
asS'x_tilt'
p5
(lp6
I16
aI16
aI15
aI15
aI15
aI14
aI14
aI14
aI15
aI16
aI17
aI17
aI18
aI19
aI20
aI22
aI24
aI25
aI26
aI26
aI27
aI28
aI29
aI29
aI29
aI28
aI27
aI26
aI25
aI25
aI25
aI24
aI23
aI22
aI21
aI20
aI18
aI17
aI16
aI15
aI15
aI14
aI14
aI14
aI14
aI13
aI13
aI13
aI13
aI13
aI13
aI14
aI14
aI14
aI14
aI13
aI13
aI13
aI12
aI12
aI12
aI11
aI11
aI11
aI10
aI9
aI7
aI6
aI5
aI4
aI4
aI4
asS'time'
p7
(lp8
I807
aI826
aI845
aI862
aI879
aI896
aI913
aI930
aI947
aI965
aI982
aI999
aI1016
aI1036
aI1036
aI1056
aI1072
aI1089
aI1106
aI1123
aI1140
aI1157
aI1174
aI1192
aI1209
aI1226
aI1243
aI1260
aI1277
aI1294
aI1311
aI1328
aI1345
aI1362
aI1379
aI1397
aI1414
aI1431
aI1447
aI1464
aI1481
aI1499
aI1516
aI1533
aI1553
aI1573
aI1590
aI1607
aI1624
aI1641
aI1659
aI1897
aI1937
aI1957
aI1974
aI1991
aI2008
aI2025
aI2025
aI2042
aI2059
aI2075
aI2091
aI2107
aI2124
aI2141
aI2158
aI2176
aI2192
aI2208
aI2225
aI2242
asS'y'
p9
(lp10
F549.0029907226562
aF549.4277954101562
aF550.8003540039062
aF553.1531982421875
aF557.3034057617188
aF563.1202392578125
aF570.048095703125
aF577.8583374023438
aF588.9364013671875
aF596.7139892578125
aF603.1843872070312
aF608.0208129882812
aF611.157958984375
aF611.7788696289062
aF612.6285400390625
aF611.157958984375
aF607.8900756835938
aF603.0863037109375
aF595.7335815429688
aF582.466064453125
aF561.87841796875
aF550.1140747070312
aF538.3497314453125
aF528.3173217773438
aF523.644287109375
aF519.5921020507812
aF512.794921875
aF509.265625
aF507.23956298828125
aF506.68402099609375
aF507.66436767578125
aF509.6250915527344
aF512.598876953125
aF516.4876098632812
aF520.8012084960938
aF524.6246337890625
aF528.938232421875
aF532.467529296875
aF536.6504516601562
aF540.865966796875
aF544.2972412109375
aF546.650146484375
aF549.1990966796875
aF551.944091796875
aF557.0419921875
aF561.5516357421875
aF566.6168212890625
aF568.4795532226562
aF568.6102294921875
aF568.08740234375
aF567.7932739257812
aF577.9237060546875
aF578.8386840820312
aF579.6883544921875
aF581.0608520507812
aF583.8058471679688
aF588.0867919921875
aF589.75341796875
aF594.9166259765625
aF599.7531127929688
aF604.2627563476562
aF608.31494140625
aF611.157958984375
aF610.7005004882812
aF601.452392578125
aF590.0802001953125
aF584.5901489257812
aF581.9431762695312
aF578.9694213867188
aF577.2374267578125
aF576.2897338867188
aF575.4727783203125
asS'x'
p11
(lp12
F4592.59765625
aF4592.76123046875
aF4593.18603515625
aF4593.2509765625
aF4592.43408203125
aF4590.63671875
aF4587.95703125
aF4584.46044921875
aF4578.6435546875
aF4573.38232421875
aF4567.009765625
aF4559.36279296875
aF4550.703125
aF4547.72900390625
aF4538.873046875
aF4527.3701171875
aF4519.134765625
aF4511.7822265625
aF4505.24609375
aF4500.0830078125
aF4500.8017578125
aF4505.115234375
aF4511.5205078125
aF4518.54638671875
aF4523.0888671875
aF4527.92529296875
aF4537.85986328125
aF4545.47412109375
aF4552.79443359375
aF4559.1015625
aF4565.310546875
aF4568.67626953125
aF4571.4541015625
aF4573.9052734375
aF4576.029296875
aF4577.9248046875
aF4580.6044921875
aF4583.05517578125
aF4585.767578125
aF4588.12060546875
aF4589.68896484375
aF4590.4736328125
aF4590.86572265625
aF4591.09423828125
aF4591.02880859375
aF4590.408203125
aF4589.19921875
aF4588.447265625
aF4587.82666015625
aF4587.107421875
aF4586.29052734375
aF4583.74169921875
aF4583.087890625
aF4583.087890625
aF4583.25146484375
aF4583.447265625
aF4583.6435546875
aF4583.67626953125
aF4583.80712890625
aF4584.296875
aF4585.6044921875
aF4587.859375
aF4591.42138671875
aF4599.06787109375
aF4613.9697265625
aF4627.66259765625
aF4634.6884765625
aF4638.283203125
aF4642.2373046875
aF4644.26318359375
aF4644.88427734375
aF4644.94970703125
as.