(dp0
S'y_tilt'
p1
(lp2
I23
aI23
aI23
aI23
aI23
aI23
aI24
aI24
aI24
aI24
aI24
aI25
aI25
aI25
aI25
aI25
aI25
aI25
aI25
aI25
aI25
aI25
aI25
aI25
aI25
aI25
aI25
aI25
aI26
aI26
aI26
asS'pressure'
p3
(lp4
F0.19580078125
aF0.291015625
aF0.37890625
aF0.48486328125
aF0.53857421875
aF0.57080078125
aF0.58544921875
aF0.5927734375
aF0.5927734375
aF0.591796875
aF0.58740234375
aF0.5869140625
aF0.58642578125
aF0.58935546875
aF0.59326171875
aF0.59375
aF0.59130859375
aF0.5908203125
aF0.59033203125
aF0.5927734375
aF0.603515625
aF0.6064453125
aF0.603515625
aF0.6103515625
aF0.63037109375
aF0.646484375
aF0.65380859375
aF0.65771484375
aF0.6591796875
aF0.630859375
aF0.357421875
asS'x_tilt'
p5
(lp6
I27
aI27
aI27
aI27
aI27
aI27
aI27
aI27
aI27
aI27
aI27
aI27
aI27
aI27
aI27
aI27
aI27
aI27
aI27
aI27
aI27
aI27
aI27
aI27
aI27
aI27
aI27
aI27
aI26
aI25
aI24
asS'time'
p7
(lp8
I334
aI353
aI370
aI387
aI404
aI420
aI438
aI454
aI471
aI471
aI488
aI504
aI520
aI537
aI554
aI570
aI586
aI603
aI620
aI637
aI653
aI670
aI670
aI687
aI703
aI719
aI736
aI753
aI769
aI786
aI803
asS'y'
p9
(lp10
F568.3488159179688
aF568.5775756835938
aF568.708251953125
aF568.7736206054688
aF568.5775756835938
aF567.9893188476562
aF567.4664916992188
aF567.401123046875
aF567.5645141601562
aF568.8717041015625
aF571.3552856445312
aF574.8845825195312
aF578.6426391601562
aF581.4530029296875
aF582.5967407226562
aF581.9431762695312
aF579.2634887695312
aF575.4401245117188
aF572.0088500976562
aF570.048095703125
aF569.39453125
aF569.39453125
aF569.39453125
aF570.1788330078125
aF571.7147216796875
aF574.1983032226562
aF577.2701416015625
aF580.2765502929688
aF582.662109375
aF583.4464111328125
aF581.2568969726562
asS'x'
p11
(lp12
F4559.689453125
aF4560.76806640625
aF4561.5849609375
aF4561.9443359375
aF4561.7158203125
aF4560.5068359375
aF4558.349609375
aF4555.70263671875
aF4554.85302734375
aF4552.76171875
aF4551.45458984375
aF4551.09521484375
aF4551.58544921875
aF4552.9580078125
aF4554.8203125
aF4556.94482421875
aF4559.00341796875
aF4560.6044921875
aF4561.55224609375
aF4561.9443359375
aF4562.04248046875
aF4562.04248046875
aF4562.04248046875
aF4561.9443359375
aF4561.81396484375
aF4561.7158203125
aF4562.10791015625
aF4563.251953125
aF4565.04931640625
aF4567.72900390625
aF4571.8134765625
as.