(dp0
S'y_tilt'
p1
(lp2
I5
aI5
aI5
aI5
aI5
aI5
aI5
aI4
aI3
aI2
aI2
aI1
aI0
aI0
aI-1
aI-2
aI-3
aI-4
aI-4
aI-5
aI-5
aI-5
aI-5
aI-5
aI-5
aI-5
aI-4
aI-4
aI-4
aI-4
aI-3
aI-3
aI-4
aI-4
aI-4
aI-4
aI-5
aI-6
aI-7
aI-8
aI-8
aI-9
aI-10
aI-10
aI-10
aI-10
aI-9
aI-8
aI4
aI4
aI4
aI4
aI4
aI4
aI3
aI2
aI1
aI0
aI0
aI-1
aI-1
aI-2
aI-3
aI-3
aI-4
aI-5
aI-5
aI-5
asS'pressure'
p3
(lp4
F0.337890625
aF0.33837890625
aF0.37744140625
aF0.42578125
aF0.43701171875
aF0.478515625
aF0.509765625
aF0.5234375
aF0.5302734375
aF0.5380859375
aF0.5556640625
aF0.5712890625
aF0.5859375
aF0.5986328125
aF0.60693359375
aF0.61572265625
aF0.6240234375
aF0.64111328125
aF0.64599609375
aF0.6455078125
aF0.6435546875
aF0.64306640625
aF0.64306640625
aF0.63818359375
aF0.62646484375
aF0.6201171875
aF0.61669921875
aF0.6162109375
aF0.5693359375
aF0.40869140625
aF0.25927734375
aF0.2978515625
aF0.357421875
aF0.4052734375
aF0.4462890625
aF0.4814453125
aF0.525390625
aF0.56201171875
aF0.57666015625
aF0.580078125
aF0.580078125
aF0.57958984375
aF0.5771484375
aF0.57568359375
aF0.56884765625
aF0.52783203125
aF0.43017578125
aF0.0205078125
aF0.3134765625
aF0.369140625
aF0.4326171875
aF0.48388671875
aF0.5029296875
aF0.517578125
aF0.56005859375
aF0.57958984375
aF0.59375
aF0.59716796875
aF0.5986328125
aF0.59912109375
aF0.599609375
aF0.60205078125
aF0.61328125
aF0.62548828125
aF0.62548828125
aF0.59326171875
aF0.45703125
aF0.0234375
asS'x_tilt'
p5
(lp6
I25
aI25
aI25
aI25
aI25
aI25
aI25
aI25
aI25
aI25
aI25
aI25
aI25
aI25
aI25
aI25
aI25
aI25
aI25
aI25
aI25
aI25
aI25
aI25
aI26
aI26
aI27
aI27
aI27
aI28
aI25
aI25
aI25
aI25
aI25
aI26
aI26
aI26
aI26
aI26
aI25
aI24
aI24
aI23
aI23
aI22
aI22
aI22
aI26
aI26
aI26
aI26
aI26
aI26
aI27
aI27
aI27
aI27
aI27
aI27
aI27
aI27
aI27
aI27
aI27
aI27
aI26
aI26
asS'time'
p7
(lp8
I1783
aI1802
aI1820
aI1837
aI1854
aI1854
aI1871
aI1888
aI1905
aI1921
aI1938
aI1955
aI1972
aI1990
aI2007
aI2024
aI2041
aI2058
aI2075
aI2093
aI2109
aI2126
aI2126
aI2143
aI2161
aI2177
aI2197
aI2218
aI2234
aI2250
aI2871
aI2890
aI2909
aI2928
aI2944
aI2962
aI2982
aI3002
aI3019
aI3036
aI3053
aI3070
aI3087
aI3104
aI3121
aI3138
aI3155
aI3171
aI3654
aI3672
aI3691
aI3710
aI3726
aI3743
aI3761
aI3778
aI3795
aI3812
aI3832
aI3852
aI3870
aI3870
aI3887
aI3903
aI3920
aI3937
aI3954
aI3971
asS'y'
p9
(lp10
F464.9532470703125
aF465.1493225097656
aF465.6394958496094
aF466.4237976074219
aF466.78326416015625
aF468.44989013671875
aF471.26025390625
aF475.50848388671875
aF480.9985046386719
aF487.2728271484375
aF494.20074462890625
aF505.24615478515625
aF518.3829956054688
aF535.4412841796875
aF550.146728515625
aF562.3359375
aF566.9109497070312
aF573.2179565429688
aF580.6033325195312
aF586.4855346679688
aF589.9168090820312
aF590.2108764648438
aF590.6357421875
aF590.7991333007812
aF590.0148315429688
aF587.6292724609375
aF581.322265625
aF575.2440185546875
aF573.6754760742188
aF574.1329345703125
aF548.9703369140625
aF548.9049682617188
aF548.9049682617188
aF548.9376220703125
aF549.5585327148438
aF551.029052734375
aF555.7021484375
aF564.8521728515625
aF573.1852416992188
aF582.2699584960938
aF590.3416137695312
aF597.923095703125
aF600.7008056640625
aF600.0145263671875
aF596.8446655273438
aF591.289306640625
aF583.8712158203125
aF575.832275390625
aF464.00555419921875
aF462.79644775390625
aF462.56768798828125
aF463.35198974609375
aF466.4237976074219
aF473.253662109375
aF494.5602111816406
aF513.1544189453125
aF527.2716064453125
aF540.3431396484375
aF550.4408569335938
aF554.9832153320312
aF556.9439086914062
aF563.9371948242188
aF570.7997436523438
aF578.25048828125
aF586.5181884765625
aF594.4264526367188
aF601.0602416992188
aF599.0995483398438
asS'x'
p11
(lp12
F4615.89794921875
aF4615.7998046875
aF4615.9306640625
aF4617.205078125
aF4617.95654296875
aF4621.48583984375
aF4626.74755859375
aF4632.8583984375
aF4638.7734375
aF4643.67529296875
aF4647.33544921875
aF4649.5576171875
aF4648.05419921875
aF4642.49853515625
aF4636.19189453125
aF4629.884765625
aF4627.17236328125
aF4622.95654296875
aF4616.9111328125
aF4608.7412109375
aF4598.0224609375
aF4595.60400390625
aF4588.708984375
aF4581.06201171875
aF4575.80029296875
aF4571.91162109375
aF4566.55224609375
aF4561.74853515625
aF4559.55908203125
aF4558.1865234375
aF4633.642578125
aF4633.18505859375
aF4632.923828125
aF4632.662109375
aF4632.53173828125
aF4632.7275390625
aF4633.87158203125
aF4635.83203125
aF4637.9892578125
aF4641.3876953125
aF4646.35498046875
aF4655.1455078125
aF4663.380859375
aF4675.080078125
aF4682.6943359375
aF4690.30859375
aF4696.90966796875
aF4700.30810546875
aF4607.6298828125
aF4606.87841796875
aF4605.24462890625
aF4600.40771484375
aF4594.81982421875
aF4586.48681640625
aF4568.25146484375
aF4555.83349609375
aF4548.3173828125
aF4544.0361328125
aF4542.533203125
aF4542.533203125
aF4542.6640625
aF4543.873046875
aF4546.16064453125
aF4549.68994140625
aF4554.330078125
aF4559.7548828125
aF4567.33642578125
aF4575.1796875
as.