(dp0
S'y_tilt'
p1
(lp2
I13
aI13
aI13
aI13
aI14
aI14
aI14
aI14
aI13
aI13
aI13
aI12
aI11
aI10
aI9
aI8
aI8
aI7
aI7
aI7
aI7
aI7
aI7
aI9
aI9
aI9
aI9
aI9
aI9
aI9
aI9
aI9
aI8
aI7
aI6
aI6
aI6
aI6
aI6
aI6
aI6
aI5
aI7
aI7
aI7
aI7
aI7
aI7
aI7
aI8
aI9
aI10
aI10
aI10
aI12
aI13
aI14
aI15
aI15
aI16
aI17
aI17
aI17
asS'pressure'
p3
(lp4
F0.3759765625
aF0.484375
aF0.56494140625
aF0.58837890625
aF0.62255859375
aF0.642578125
aF0.65283203125
aF0.666015625
aF0.673828125
aF0.673828125
aF0.67431640625
aF0.673828125
aF0.67138671875
aF0.6689453125
aF0.67041015625
aF0.6708984375
aF0.6728515625
aF0.6748046875
aF0.67724609375
aF0.6767578125
aF0.66845703125
aF0.58935546875
aF0.08203125
aF0.2861328125
aF0.39599609375
aF0.48681640625
aF0.59765625
aF0.63916015625
aF0.65869140625
aF0.68701171875
aF0.69677734375
aF0.705078125
aF0.71435546875
aF0.7255859375
aF0.7314453125
aF0.736328125
aF0.73828125
aF0.74169921875
aF0.74560546875
aF0.7509765625
aF0.69677734375
aF0.501953125
aF0.2236328125
aF0.44921875
aF0.52783203125
aF0.5576171875
aF0.5810546875
aF0.59814453125
aF0.61083984375
aF0.6328125
aF0.65283203125
aF0.66259765625
aF0.67138671875
aF0.6806640625
aF0.6904296875
aF0.69384765625
aF0.6953125
aF0.69580078125
aF0.6962890625
aF0.697265625
aF0.68408203125
aF0.63818359375
aF0.4931640625
asS'x_tilt'
p5
(lp6
I27
aI27
aI27
aI27
aI27
aI27
aI28
aI29
aI29
aI29
aI29
aI29
aI29
aI29
aI30
aI29
aI29
aI28
aI28
aI28
aI28
aI28
aI28
aI27
aI27
aI27
aI27
aI27
aI27
aI27
aI27
aI27
aI27
aI26
aI26
aI26
aI26
aI25
aI25
aI25
aI25
aI25
aI28
aI28
aI29
aI28
aI28
aI28
aI27
aI27
aI27
aI27
aI27
aI27
aI27
aI27
aI27
aI28
aI28
aI29
aI29
aI29
aI29
asS'time'
p7
(lp8
I365
aI406
aI425
aI444
aI462
aI480
aI497
aI513
aI530
aI546
aI563
aI580
aI596
aI613
aI630
aI647
aI663
aI680
aI696
aI713
aI730
aI730
aI746
aI1266
aI1285
aI1303
aI1320
aI1336
aI1351
aI1368
aI1385
aI1402
aI1419
aI1436
aI1454
aI1471
aI1488
aI1505
aI1522
aI1539
aI1556
aI1573
aI1990
aI2031
aI2050
aI2066
aI2082
aI2098
aI2115
aI2131
aI2148
aI2165
aI2181
aI2198
aI2215
aI2231
aI2248
aI2265
aI2281
aI2298
aI2315
aI2331
aI2348
asS'y'
p9
(lp10
F451.4895935058594
aF448.87530517578125
aF447.6335144042969
aF447.7315368652344
aF450.7380065917969
aF455.83587646484375
aF463.5480651855469
aF471.9465026855469
aF481.03118896484375
aF492.7301940917969
aF508.612060546875
aF526.9121704101562
aF534.722412109375
aF538.87255859375
aF545.6697387695312
aF551.7807006835938
aF553.4473266601562
aF555.1466064453125
aF556.355712890625
aF556.7478637695312
aF556.780517578125
aF556.15966796875
aF554.0028686523438
aF518.6771240234375
aF518.1869506835938
aF518.0235595703125
aF518.7424926757812
aF521.3567504882812
aF524.1671752929688
aF531.4218139648438
aF537.0098876953125
aF542.4999389648438
aF547.728515625
aF552.2382202148438
aF555.8328247070312
aF556.3883666992188
aF555.6041259765625
aF554.2315673828125
aF553.0224609375
aF552.4342651367188
aF552.1728515625
aF552.3035278320312
aF552.2382202148438
aF552.9244384765625
aF551.0944213867188
aF547.074951171875
aF541.0620727539062
aF534.0361328125
aF527.1409301757812
aF520.6051635742188
aF513.8079833984375
aF505.80169677734375
aF497.109130859375
aF488.5146179199219
aF477.50189208984375
aF469.75701904296875
aF462.1755676269531
aF455.28033447265625
aF449.7903137207031
aF446.32635498046875
aF445.0845642089844
aF445.67279052734375
aF447.600830078125
asS'x'
p11
(lp12
F4609.1005859375
aF4607.0419921875
aF4604.3623046875
aF4600.60400390625
aF4592.4013671875
aF4584.23193359375
aF4574.72216796875
aF4565.70263671875
aF4556.78125
aF4547.5986328125
aF4540.96435546875
aF4540.31103515625
aF4542.63134765625
aF4545.73583984375
aF4553.70947265625
aF4565.76806640625
aF4571.97705078125
aF4579.39501953125
aF4585.44091796875
aF4588.447265625
aF4588.8720703125
aF4589.16650390625
aF4589.0029296875
aF4637.662109375
aF4637.95654296875
aF4638.18505859375
aF4638.7734375
aF4639.623046875
aF4640.4072265625
aF4642.5966796875
aF4644.88427734375
aF4648.15234375
aF4652.53125
aF4658.11962890625
aF4667.3349609375
aF4675.14501953125
aF4683.08642578125
aF4689.8837890625
aF4694.22998046875
aF4695.99462890625
aF4696.158203125
aF4695.1123046875
aF4586.126953125
aF4589.9833984375
aF4597.36865234375
aF4605.2119140625
aF4613.3818359375
aF4620.7998046875
aF4627.04150390625
aF4632.40087890625
aF4637.1064453125
aF4640.962890625
aF4643.25048828125
aF4643.642578125
aF4640.962890625
aF4636.12646484375
aF4628.9697265625
aF4620.21142578125
aF4611.126953125
aF4602.8916015625
aF4596.126953125
aF4590.8330078125
aF4587.0419921875
as.