(dp0
S'y_tilt'
p1
(lp2
I11
aI11
aI11
aI11
aI11
aI11
aI12
aI11
aI11
aI10
aI9
aI8
aI8
aI7
aI7
aI8
aI8
aI9
aI10
aI11
aI11
aI11
aI12
aI13
aI12
aI11
aI10
aI9
aI7
aI7
aI6
aI6
aI6
aI7
asS'pressure'
p3
(lp4
F0.36083984375
aF0.45703125
aF0.50634765625
aF0.51953125
aF0.53466796875
aF0.54443359375
aF0.5478515625
aF0.5595703125
aF0.56640625
aF0.56787109375
aF0.560546875
aF0.55078125
aF0.55224609375
aF0.5537109375
aF0.548828125
aF0.55126953125
aF0.55859375
aF0.564453125
aF0.56689453125
aF0.572265625
aF0.5751953125
aF0.5732421875
aF0.5927734375
aF0.60498046875
aF0.615234375
aF0.6279296875
aF0.63818359375
aF0.64453125
aF0.64599609375
aF0.64697265625
aF0.6494140625
aF0.6416015625
aF0.58154296875
aF0.40234375
asS'x_tilt'
p5
(lp6
I25
aI25
aI25
aI26
aI26
aI27
aI27
aI27
aI28
aI29
aI29
aI29
aI29
aI29
aI29
aI29
aI28
aI28
aI27
aI27
aI27
aI27
aI27
aI27
aI27
aI27
aI27
aI27
aI26
aI26
aI26
aI26
aI25
aI24
asS'time'
p7
(lp8
I329
aI346
aI366
aI385
aI401
aI418
aI434
aI451
aI468
aI485
aI501
aI518
aI535
aI551
aI568
aI584
aI601
aI618
aI635
aI651
aI668
aI684
aI701
aI718
aI734
aI751
aI768
aI785
aI801
aI818
aI835
aI852
aI868
aI885
asS'y'
p9
(lp10
F460.0187683105469
aF457.7966003417969
aF453.74444580078125
aF451.52227783203125
aF450.9994201660156
aF453.18890380859375
aF460.868408203125
aF484.23370361328125
aF504.36383056640625
aF521.4874877929688
aF532.6636352539062
aF536.7484741210938
aF538.4804077148438
aF535.996826171875
aF520.9319458007812
aF502.860595703125
aF482.6324462890625
aF468.15576171875
aF457.27374267578125
aF453.2215881347656
aF450.8360290527344
aF449.3981628417969
aF450.0190734863281
aF456.0973205566406
aF472.2406005859375
aF498.3509216308594
aF514.0367431640625
aF520.6705322265625
aF524.1671752929688
aF528.0232543945312
aF528.3500366210938
aF519.7882080078125
aF505.082763671875
aF488.3839111328125
asS'x'
p11
(lp12
F4586.22509765625
aF4583.18603515625
aF4577.23828125
aF4571.91162109375
aF4565.83349609375
aF4558.9052734375
aF4549.19970703125
aF4533.77490234375
aF4527.5986328125
aF4525.8994140625
aF4528.0234375
aF4531.2587890625
aF4536.02978515625
aF4546.58544921875
aF4560.44140625
aF4569.29736328125
aF4574.068359375
aF4576.71533203125
aF4578.83984375
aF4579.689453125
aF4580.27734375
aF4580.669921875
aF4580.80029296875
aF4580.408203125
aF4578.87255859375
aF4576.9443359375
aF4576.84619140625
aF4577.7939453125
aF4579.7548828125
aF4584.10107421875
aF4593.61083984375
aF4609.36181640625
aF4623.9697265625
aF4635.70166015625
as.