(dp0
S'y_tilt'
p1
(lp2
I1
aI1
aI1
aI1
aI1
aI1
aI1
aI1
aI1
aI2
aI3
aI3
aI4
aI5
aI6
aI7
aI7
aI8
aI8
aI8
aI8
aI12
aI12
aI12
aI12
aI12
aI12
aI11
aI10
aI9
aI8
aI7
aI6
aI6
aI5
aI5
aI5
aI5
aI6
aI7
aI9
aI10
aI11
aI12
aI13
asS'pressure'
p3
(lp4
F0.3935546875
aF0.46044921875
aF0.4951171875
aF0.5224609375
aF0.548828125
aF0.560546875
aF0.5634765625
aF0.5634765625
aF0.55419921875
aF0.55029296875
aF0.5478515625
aF0.5498046875
aF0.552734375
aF0.5576171875
aF0.55810546875
aF0.56005859375
aF0.56201171875
aF0.5654296875
aF0.5556640625
aF0.48681640625
aF0.20751953125
aF0.40185546875
aF0.455078125
aF0.50341796875
aF0.52880859375
aF0.53759765625
aF0.55078125
aF0.55859375
aF0.55859375
aF0.55908203125
aF0.56396484375
aF0.5673828125
aF0.56787109375
aF0.5654296875
aF0.56591796875
aF0.56982421875
aF0.58056640625
aF0.59619140625
aF0.6064453125
aF0.6162109375
aF0.64013671875
aF0.64013671875
aF0.62109375
aF0.5625
aF0.32470703125
asS'x_tilt'
p5
(lp6
I21
aI21
aI20
aI20
aI20
aI20
aI21
aI21
aI21
aI22
aI22
aI22
aI22
aI22
aI23
aI23
aI23
aI23
aI23
aI23
aI23
aI24
aI24
aI24
aI24
aI25
aI25
aI25
aI25
aI25
aI25
aI24
aI24
aI24
aI23
aI22
aI22
aI22
aI22
aI22
aI22
aI23
aI24
aI24
aI24
asS'time'
p7
(lp8
I510
aI528
aI543
aI559
aI575
aI591
aI606
aI622
aI638
aI655
aI671
aI687
aI704
aI720
aI737
aI754
aI770
aI787
aI804
aI820
aI837
aI1191
aI1229
aI1247
aI1263
aI1279
aI1295
aI1311
aI1327
aI1342
aI1358
aI1374
aI1391
aI1406
aI1422
aI1439
aI1457
aI1473
aI1489
aI1506
aI1523
aI1539
aI1556
aI1573
aI1589
asS'y'
p9
(lp10
F468.2864685058594
aF470.2798767089844
aF472.2406005859375
aF473.97259521484375
aF475.27972412109375
aF475.900634765625
aF476.0313415527344
aF475.18170166015625
aF472.63275146484375
aF465.5414733886719
aF451.2281799316406
aF440.6075744628906
aF436.71881103515625
aF431.98040771484375
aF426.9151916503906
aF423.35321044921875
aF420.6735534667969
aF417.4383544921875
aF415.83709716796875
aF413.84368896484375
aF414.007080078125
aF391.1319580078125
aF391.9815979003906
aF394.4651794433594
aF399.46502685546875
aF410.7718811035156
aF428.64715576171875
aF444.9211730957031
aF458.4501647949219
aF465.01861572265625
aF470.3452453613281
aF476.3581237792969
aF476.5215148925781
aF472.8288269042969
aF465.9336242675781
aF455.60711669921875
aF444.8231506347656
aF433.0914611816406
aF419.59515380859375
aF408.2882995605469
aF401.22967529296875
aF397.5043029785156
aF396.8834228515625
aF396.4259033203125
aF396.8834228515625
asS'x'
p11
(lp12
F4644.0673828125
aF4642.53125
aF4639.4921875
aF4634.4921875
aF4627.6953125
aF4619.8193359375
aF4611.71484375
aF4604.2314453125
aF4597.95703125
aF4592.5322265625
aF4590.4736328125
aF4592.1728515625
aF4593.8720703125
aF4596.2578125
aF4599.1005859375
aF4601.38818359375
aF4603.15283203125
aF4605.11376953125
aF4605.96337890625
aF4606.87841796875
aF4606.64990234375
aF4556.3564453125
aF4548.3828125
aF4542.3369140625
aF4534.984375
aF4525.703125
aF4518.0888671875
aF4515.14794921875
aF4516.095703125
aF4518.775390625
aF4524.16748046875
aF4538.3828125
aF4555.40869140625
aF4569.19921875
aF4579.52587890625
aF4587.728515625
aF4591.94384765625
aF4591.94384765625
aF4587.6630859375
aF4580.99658203125
aF4572.46728515625
aF4563.83984375
aF4558.02294921875
aF4549.7880859375
aF4542.43505859375
as.