(dp0
S'y_tilt'
p1
(lp2
I1
aI1
aI1
aI1
aI2
aI2
aI3
aI4
aI4
aI4
aI5
aI5
aI6
aI7
aI8
aI8
aI8
aI8
aI9
aI12
aI13
aI14
aI15
aI15
aI15
aI14
aI13
aI11
aI11
aI10
aI9
aI8
aI8
aI8
aI8
aI9
aI9
aI9
aI11
aI13
aI14
aI15
aI16
asS'pressure'
p3
(lp4
F0.5166015625
aF0.56591796875
aF0.603515625
aF0.615234375
aF0.625
aF0.634765625
aF0.64111328125
aF0.64306640625
aF0.64306640625
aF0.64306640625
aF0.6455078125
aF0.650390625
aF0.6533203125
aF0.66259765625
aF0.67041015625
aF0.6748046875
aF0.63330078125
aF0.53125
aF0.03662109375
aF0.4345703125
aF0.44580078125
aF0.48779296875
aF0.52197265625
aF0.53955078125
aF0.54345703125
aF0.5498046875
aF0.5517578125
aF0.55419921875
aF0.5546875
aF0.556640625
aF0.556640625
aF0.55908203125
aF0.5654296875
aF0.5751953125
aF0.5966796875
aF0.63671875
aF0.66162109375
aF0.66552734375
aF0.669921875
aF0.67041015625
aF0.6513671875
aF0.591796875
aF0.341796875
asS'x_tilt'
p5
(lp6
I20
aI20
aI20
aI20
aI21
aI21
aI22
aI22
aI22
aI22
aI22
aI23
aI23
aI23
aI23
aI23
aI23
aI23
aI23
aI23
aI23
aI24
aI24
aI24
aI25
aI26
aI27
aI27
aI27
aI26
aI26
aI25
aI24
aI24
aI24
aI24
aI23
aI23
aI23
aI23
aI24
aI24
aI25
asS'time'
p7
(lp8
I479
aI498
aI518
aI537
aI553
aI570
aI587
aI603
aI620
aI637
aI654
aI670
aI686
aI703
aI720
aI737
aI753
aI770
aI786
aI1086
aI1105
aI1124
aI1142
aI1159
aI1176
aI1193
aI1210
aI1227
aI1244
aI1261
aI1278
aI1295
aI1312
aI1329
aI1346
aI1363
aI1380
aI1401
aI1421
aI1438
aI1455
aI1473
aI1490
asS'y'
p9
(lp10
F477.89404296875
aF478.5802917480469
aF478.15545654296875
aF476.7502746582031
aF474.4300842285156
aF471.2275695800781
aF467.2407531738281
aF460.80303955078125
aF455.5417785644531
aF450.0190734863281
aF443.7774353027344
aF436.71881103515625
aF429.52947998046875
aF423.4839172363281
aF419.6278381347656
aF418.1246032714844
aF417.9612121582031
aF418.418701171875
aF418.9089050292969
aF383.9753112792969
aF380.7401123046875
aF380.2172546386719
aF381.0342102050781
aF384.2040710449219
aF393.2560729980469
aF421.751953125
aF441.26116943359375
aF454.005859375
aF462.4369812011719
aF468.61328125
aF465.9662780761719
aF458.2867736816406
aF446.9799499511719
aF437.0782775878906
aF432.5359191894531
aF428.156982421875
aF417.69976806640625
aF404.3014831542969
aF392.56982421875
aF388.0601501464844
aF381.94921875
aF382.7662048339844
aF388.5176696777344
asS'x'
p11
(lp12
F4628.9697265625
aF4624.98291015625
aF4620.015625
aF4615.89794921875
aF4611.4208984375
aF4606.51904296875
aF4601.4208984375
aF4595.53857421875
aF4592.95703125
aF4592.33642578125
aF4593.77392578125
aF4596.845703125
aF4600.9306640625
aF4604.884765625
aF4607.59716796875
aF4608.7412109375
aF4608.83935546875
aF4608.34912109375
aF4607.43408203125
aF4566.12744140625
aF4556.68310546875
aF4550.08203125
aF4543.28466796875
aF4534.88623046875
aF4525.86669921875
aF4516.06298828125
aF4515.01708984375
aF4518.54638671875
aF4525.63818359375
aF4539.10205078125
aF4559.00341796875
aF4571.84619140625
aF4582.20556640625
aF4590.4736328125
aF4594.068359375
aF4596.5517578125
aF4598.9375
aF4596.51904296875
aF4591.42138671875
aF4588.12060546875
aF4579.23193359375
aF4565.47412109375
aF4550.96435546875
as.