(dp0
S'y_tilt'
p1
(lp2
I10
aI10
aI10
aI10
aI10
aI11
aI11
aI11
aI10
aI9
aI8
aI7
aI5
aI4
aI4
aI3
aI3
aI4
aI5
aI6
aI8
aI9
aI10
aI11
aI12
aI12
aI12
aI13
aI13
aI12
aI11
aI10
aI9
aI8
aI7
aI6
aI6
aI6
aI6
aI8
asS'pressure'
p3
(lp4
F0.43408203125
aF0.45068359375
aF0.4794921875
aF0.48095703125
aF0.4794921875
aF0.484375
aF0.49609375
aF0.52392578125
aF0.54541015625
aF0.560546875
aF0.56982421875
aF0.56787109375
aF0.56787109375
aF0.56005859375
aF0.5556640625
aF0.55126953125
aF0.5556640625
aF0.5625
aF0.5673828125
aF0.56787109375
aF0.56787109375
aF0.56591796875
aF0.5673828125
aF0.5771484375
aF0.5927734375
aF0.58984375
aF0.59375
aF0.603515625
aF0.6103515625
aF0.630859375
aF0.64111328125
aF0.65869140625
aF0.66455078125
aF0.6650390625
aF0.66455078125
aF0.6591796875
aF0.65087890625
aF0.59228515625
aF0.4814453125
aF0.275390625
asS'x_tilt'
p5
(lp6
I23
aI23
aI23
aI23
aI24
aI24
aI25
aI25
aI26
aI26
aI26
aI27
aI27
aI26
aI26
aI26
aI26
aI26
aI25
aI25
aI25
aI25
aI24
aI24
aI24
aI24
aI24
aI24
aI24
aI24
aI25
aI25
aI26
aI27
aI27
aI26
aI25
aI25
aI24
aI23
asS'time'
p7
(lp8
I266
aI285
aI285
aI302
aI319
aI336
aI352
aI368
aI385
aI401
aI417
aI434
aI450
aI467
aI484
aI501
aI517
aI534
aI551
aI567
aI584
aI601
aI617
aI634
aI650
aI667
aI684
aI700
aI717
aI717
aI734
aI750
aI767
aI784
aI800
aI817
aI834
aI851
aI868
aI884
asS'y'
p9
(lp10
F461.68536376953125
aF460.24749755859375
aF453.74444580078125
aF447.5354919433594
aF448.3851318359375
aF459.2344665527344
aF473.8092041015625
aF494.3641357421875
aF520.7031860351562
aF549.6892700195312
aF577.4661865234375
aF600.8314819335938
aF615.6676635742188
aF622.0399780273438
aF620.471435546875
aF611.0272827148438
aF596.9100341796875
aF576.0609741210938
aF538.7091674804688
aF506.9781188964844
aF478.05743408203125
aF458.38482666015625
aF450.9994201660156
aF448.4504699707031
aF446.3590393066406
aF446.718505859375
aF450.6072692871094
aF463.90753173828125
aF470.9334716796875
aF493.1223449707031
aF515.245849609375
aF536.7484741210938
aF556.6824951171875
aF572.8584594726562
aF582.0411987304688
aF585.6685791015625
aF586.5509033203125
aF567.0743408203125
aF544.2645874023438
aF515.1478271484375
asS'x'
p11
(lp12
F4596.51904296875
aF4595.27734375
aF4588.25146484375
aF4574.068359375
aF4554.8857421875
aF4530.703125
aF4511.5859375
aF4492.66455078125
aF4475.900390625
aF4461.521484375
aF4452.53466796875
aF4449.953125
aF4452.82861328125
aF4460.3125
aF4474.65869140625
aF4489.16796875
aF4503.80810546875
aF4518.7099609375
aF4538.0888671875
aF4552.50048828125
aF4566.7158203125
aF4577.53271484375
aF4581.9443359375
aF4583.61083984375
aF4584.9833984375
aF4585.048828125
aF4583.6435546875
aF4579.52587890625
aF4577.46728515625
aF4571.7158203125
aF4566.87890625
aF4563.15380859375
aF4562.140625
aF4563.93798828125
aF4567.009765625
aF4570.70263671875
aF4581.97705078125
aF4607.79345703125
aF4626.19189453125
aF4647.171875
as.