(dp0
S'y_tilt'
p1
(lp2
I-3
aI-3
aI-4
aI-4
aI-4
aI-4
aI-4
aI-4
aI-3
aI-2
aI0
aI0
aI1
aI3
aI4
aI5
aI6
aI7
aI7
aI6
aI6
aI5
aI4
aI3
aI2
aI1
aI0
aI0
aI0
aI-1
aI-1
aI-1
aI-1
aI-2
aI-2
aI-2
aI-2
aI-2
aI-3
aI-4
aI-4
aI-5
aI-6
aI-7
aI-6
aI-5
asS'pressure'
p3
(lp4
F0.4833984375
aF0.51806640625
aF0.54736328125
aF0.572265625
aF0.5947265625
aF0.607421875
aF0.6181640625
aF0.62158203125
aF0.6181640625
aF0.61279296875
aF0.60888671875
aF0.60888671875
aF0.60888671875
aF0.6083984375
aF0.6044921875
aF0.6005859375
aF0.5986328125
aF0.60302734375
aF0.60400390625
aF0.61083984375
aF0.61376953125
aF0.61962890625
aF0.63134765625
aF0.65185546875
aF0.66748046875
aF0.67529296875
aF0.685546875
aF0.69287109375
aF0.693359375
aF0.689453125
aF0.67724609375
aF0.6318359375
aF0.404296875
aF0.3046875
aF0.314453125
aF0.416015625
aF0.48291015625
aF0.525390625
aF0.572265625
aF0.607421875
aF0.62548828125
aF0.6357421875
aF0.63720703125
aF0.6162109375
aF0.53173828125
aF0.02587890625
asS'x_tilt'
p5
(lp6
I19
aI18
aI18
aI18
aI18
aI19
aI19
aI20
aI20
aI21
aI22
aI22
aI22
aI22
aI22
aI22
aI22
aI21
aI21
aI20
aI20
aI20
aI20
aI19
aI19
aI19
aI19
aI19
aI19
aI19
aI20
aI21
aI21
aI20
aI20
aI21
aI21
aI21
aI21
aI21
aI21
aI21
aI20
aI19
aI18
aI18
asS'time'
p7
(lp8
I381
aI400
aI418
aI437
aI454
aI472
aI489
aI506
aI523
aI541
aI557
aI574
aI591
aI607
aI624
aI641
aI657
aI674
aI691
aI707
aI724
aI741
aI758
aI774
aI791
aI808
aI825
aI842
aI858
aI874
aI890
aI906
aI923
aI1760
aI1779
aI1798
aI1815
aI1832
aI1847
aI1863
aI1879
aI1895
aI1910
aI1926
aI1943
aI1959
asS'y'
p9
(lp10
F596.583251953125
aF600.2759399414062
aF605.9620361328125
aF618.8048095703125
aF631.5494995117188
aF639.3923950195312
aF641.255126953125
aF637.7584838867188
aF622.3341064453125
aF605.3084716796875
aF585.8972778320312
aF565.1463012695312
aF543.545654296875
aF522.6312255859375
aF506.12847900390625
aF488.6126708984375
aF481.16192626953125
aF480.4429931640625
aF484.9199523925781
aF493.64520263671875
aF505.736328125
aF518.7424926757812
aF532.4021606445312
aF548.0880126953125
aF568.8389892578125
aF582.3679809570312
aF591.289306640625
aF600.1779174804688
aF606.1254272460938
aF609.5567016601562
aF611.7462158203125
aF613.5762329101562
aF614.0990600585938
aF575.342041015625
aF573.1199340820312
aF572.9891967773438
aF574.917236328125
aF584.5901489257812
aF603.1190185546875
aF617.6937255859375
aF627.1705932617188
aF631.2554321289062
aF632.1377563476562
aF621.8765869140625
aF603.7399291992188
aF579.0674438476562
asS'x'
p11
(lp12
F4637.171875
aF4636.22412109375
aF4633.904296875
aF4624.3291015625
aF4607.36865234375
aF4587.8916015625
aF4570.76806640625
aF4553.51318359375
aF4533.4482421875
aF4522.6640625
aF4515.76904296875
aF4513.93896484375
aF4517.7294921875
aF4525.93212890625
aF4536.3896484375
aF4554.0361328125
aF4569.59130859375
aF4586.09423828125
aF4604.3623046875
aF4622.2705078125
aF4638.90380859375
aF4652.20458984375
aF4661.55078125
aF4667.9560546875
aF4670.53759765625
aF4667.79248046875
aF4662.66162109375
aF4650.9951171875
aF4635.57080078125
aF4619.00244140625
aF4604.13330078125
aF4591.78076171875
aF4585.57177734375
aF4675.0146484375
aF4674.06689453125
aF4674.0341796875
aF4674.29541015625
aF4675.11279296875
aF4676.158203125
aF4677.82470703125
aF4680.76611328125
aF4684.5244140625
aF4696.84423828125
aF4716.0595703125
aF4733.44482421875
aF4747.30078125
as.