(dp0
S'y_tilt'
p1
(lp2
I7
aI8
aI8
aI8
aI9
aI10
aI9
aI8
aI7
aI6
aI4
aI3
aI2
aI1
aI1
aI2
aI3
aI4
aI6
aI7
aI8
aI9
aI9
aI8
aI7
aI6
aI4
aI2
aI1
aI0
aI0
aI-1
aI0
aI1
asS'pressure'
p3
(lp4
F0.43994140625
aF0.431640625
aF0.46142578125
aF0.5068359375
aF0.53759765625
aF0.54736328125
aF0.5537109375
aF0.56298828125
aF0.57080078125
aF0.57421875
aF0.56640625
aF0.5595703125
aF0.56103515625
aF0.56298828125
aF0.5654296875
aF0.56884765625
aF0.5615234375
aF0.55908203125
aF0.5625
aF0.5712890625
aF0.58544921875
aF0.578125
aF0.58154296875
aF0.5947265625
aF0.61083984375
aF0.62548828125
aF0.63232421875
aF0.640625
aF0.64208984375
aF0.634765625
aF0.62890625
aF0.60498046875
aF0.5224609375
aF0.048828125
asS'x_tilt'
p5
(lp6
I27
aI27
aI27
aI27
aI27
aI28
aI28
aI29
aI29
aI30
aI29
aI29
aI29
aI28
aI27
aI27
aI27
aI27
aI27
aI27
aI28
aI28
aI28
aI28
aI28
aI28
aI28
aI28
aI27
aI26
aI26
aI25
aI24
aI24
asS'time'
p7
(lp8
I391
aI408
aI427
aI442
aI459
aI475
aI492
aI509
aI525
aI542
aI559
aI575
aI592
aI609
aI625
aI642
aI659
aI675
aI692
aI709
aI725
aI742
aI759
aI776
aI792
aI809
aI826
aI842
aI859
aI876
aI892
aI909
aI926
aI942
asS'y'
p9
(lp10
F457.5678405761719
aF455.2476501464844
aF452.7640686035156
aF450.6726379394531
aF456.1953430175781
aF469.75701904296875
aF489.0374755859375
aF513.2197875976562
aF539.8856201171875
aF565.3750610351562
aF589.3939208984375
aF594.8839721679688
aF590.5376586914062
aF574.492431640625
aF550.5715942382812
aF523.0233764648438
aF498.873779296875
aF481.4560241699219
aF472.5674133300781
aF468.77667236328125
aF464.00555419921875
aF463.3193054199219
aF468.5805969238281
aF485.6388854980469
aF510.0172424316406
aF534.3302612304688
aF558.8392944335938
aF579.5249633789062
aF592.5310668945312
aF597.6943359375
aF590.9625244140625
aF574.4270629882812
aF551.6826782226562
aF523.186767578125
asS'x'
p11
(lp12
F4600.73486328125
aF4597.14013671875
aF4591.29052734375
aF4578.25146484375
aF4561.291015625
aF4546.9775390625
aF4534.46142578125
aF4525.34375
aF4520.60546875
aF4521.095703125
aF4529.52685546875
aF4536.65087890625
aF4555.76806640625
aF4570.4736328125
aF4582.95703125
aF4593.61083984375
aF4601.15966796875
aF4604.81982421875
aF4605.53857421875
aF4605.31005859375
aF4604.7216796875
aF4604.1005859375
aF4602.95703125
aF4601.09423828125
aF4600.40771484375
aF4601.5517578125
aF4604.1005859375
aF4607.8916015625
aF4612.72802734375
aF4624.29638671875
aF4642.302734375
aF4659.98193359375
aF4680.0146484375
aF4701.02734375
as.