(dp0
S'y_tilt'
p1
(lp2
I6
aI6
aI5
aI4
aI3
aI2
aI0
aI-1
aI-2
aI-3
aI-4
aI-5
aI-6
aI-5
aI-4
aI-3
aI-2
aI-1
aI0
aI2
aI3
aI4
aI5
aI6
aI7
aI7
aI8
aI8
aI8
aI8
aI8
aI7
aI6
aI6
aI5
aI5
aI1
aI0
aI-2
aI-3
aI-5
aI-6
aI-7
aI-8
aI-9
aI-10
aI-9
aI-8
aI-7
asS'pressure'
p3
(lp4
F0.435546875
aF0.5048828125
aF0.54150390625
aF0.5849609375
aF0.61474609375
aF0.6337890625
aF0.64892578125
aF0.65771484375
aF0.6650390625
aF0.67333984375
aF0.6669921875
aF0.66064453125
aF0.65185546875
aF0.64208984375
aF0.63623046875
aF0.63623046875
aF0.62890625
aF0.62646484375
aF0.62646484375
aF0.62646484375
aF0.62646484375
aF0.62451171875
aF0.6240234375
aF0.6220703125
aF0.62158203125
aF0.62109375
aF0.61865234375
aF0.61865234375
aF0.6142578125
aF0.6171875
aF0.61767578125
aF0.61962890625
aF0.619140625
aF0.603515625
aF0.49951171875
aF0.04150390625
aF0.47802734375
aF0.5458984375
aF0.6015625
aF0.64697265625
aF0.67236328125
aF0.6806640625
aF0.6806640625
aF0.6787109375
aF0.68017578125
aF0.677734375
aF0.65185546875
aF0.5927734375
aF0.314453125
asS'x_tilt'
p5
(lp6
I20
aI20
aI20
aI20
aI19
aI19
aI19
aI19
aI18
aI18
aI18
aI18
aI18
aI19
aI19
aI20
aI21
aI21
aI22
aI22
aI22
aI22
aI22
aI21
aI21
aI21
aI21
aI20
aI20
aI20
aI20
aI20
aI20
aI20
aI20
aI20
aI18
aI19
aI19
aI19
aI18
aI17
aI16
aI16
aI16
aI15
aI14
aI13
aI13
asS'time'
p7
(lp8
I408
aI426
aI444
aI463
aI482
aI498
aI515
aI531
aI548
aI565
aI581
aI598
aI615
aI631
aI648
aI664
aI681
aI698
aI717
aI734
aI751
aI768
aI785
aI802
aI819
aI836
aI854
aI870
aI888
aI905
aI922
aI938
aI955
aI971
aI988
aI1004
aI1337
aI1377
aI1397
aI1417
aI1434
aI1451
aI1467
aI1485
aI1502
aI1519
aI1536
aI1552
aI1569
asS'y'
p9
(lp10
F511.48779296875
aF511.1283264160156
aF515.7360229492188
aF537.3040161132812
aF558.0223388671875
aF576.8452758789062
aF596.0604248046875
aF613.412841796875
aF628.9025268554688
aF644.2615356445312
aF649.6862182617188
aF650.1110229492188
aF645.7647705078125
aF636.3206176757812
aF621.4191284179688
aF605.0143432617188
aF588.41357421875
aF571.3552856445312
aF548.382080078125
aF529.7225341796875
aF513.1544189453125
aF500.7364807128906
aF488.710693359375
aF483.58013916015625
aF481.7174377441406
aF481.42333984375
aF482.4037170410156
aF484.6258544921875
aF487.89373779296875
aF492.3707275390625
aF497.991455078125
aF505.1807861328125
aF513.481201171875
aF521.2914428710938
aF526.9775390625
aF530.3107299804688
aF579.4595947265625
aF600.9295043945312
aF615.2101440429688
aF626.3209228515625
aF641.3204345703125
aF647.431396484375
aF651.5488891601562
aF656.94091796875
aF657.9212646484375
aF648.5751342773438
aF631.484130859375
aF618.1185302734375
aF604.0013427734375
asS'x'
p11
(lp12
F4551.68310546875
aF4554.55908203125
aF4558.48046875
aF4566.87890625
aF4570.63720703125
aF4570.08154296875
aF4566.06201171875
aF4558.83984375
aF4549.1015625
aF4533.67724609375
aF4520.0498046875
aF4504.29833984375
aF4488.15478515625
aF4472.27294921875
aF4457.3056640625
aF4446.32568359375
aF4439.78955078125
aF4437.10986328125
aF4439.69189453125
aF4446.45654296875
aF4456.65234375
aF4469.0048828125
aF4486.12890625
aF4498.08935546875
aF4509.98486328125
aF4521.55322265625
aF4529.134765625
aF4534.19970703125
aF4539.13427734375
aF4543.21923828125
aF4546.09521484375
aF4548.51318359375
aF4550.6376953125
aF4552.59814453125
aF4554.19970703125
aF4554.8857421875
aF4565.7353515625
aF4571.388671875
aF4573.708984375
aF4575.669921875
aF4578.708984375
aF4580.767578125
aF4583.18603515625
aF4589.03564453125
aF4602.23779296875
aF4620.0810546875
aF4641.8779296875
aF4657.72705078125
aF4669.91650390625
as.