(dp0
S'y_tilt'
p1
(lp2
I4
aI4
aI4
aI4
aI3
aI2
aI1
aI0
aI-1
aI-2
aI-3
aI-4
aI-5
aI-5
aI-6
aI-6
aI-6
aI-5
aI-4
aI-2
aI-1
aI0
aI1
aI2
aI4
aI5
aI6
aI6
aI7
aI8
aI8
aI8
aI8
aI7
aI7
aI6
aI5
aI4
aI3
aI3
aI2
aI1
aI1
aI0
aI0
aI-3
aI-4
aI-5
aI-6
aI-7
aI-8
aI-9
aI-10
aI-11
aI-11
aI-10
aI-8
aI-6
asS'pressure'
p3
(lp4
F0.41064453125
aF0.41748046875
aF0.46533203125
aF0.50537109375
aF0.552734375
aF0.576171875
aF0.5947265625
aF0.61376953125
aF0.62841796875
aF0.64208984375
aF0.654296875
aF0.65673828125
aF0.65673828125
aF0.65234375
aF0.6455078125
aF0.6376953125
aF0.63232421875
aF0.62939453125
aF0.625
aF0.61767578125
aF0.6123046875
aF0.61279296875
aF0.61181640625
aF0.60791015625
aF0.60546875
aF0.603515625
aF0.60302734375
aF0.6015625
aF0.59619140625
aF0.59423828125
aF0.59423828125
aF0.6025390625
aF0.6064453125
aF0.609375
aF0.611328125
aF0.61474609375
aF0.615234375
aF0.61962890625
aF0.62646484375
aF0.62890625
aF0.63330078125
aF0.62744140625
aF0.58642578125
aF0.4853515625
aF0.12744140625
aF0.4677734375
aF0.52978515625
aF0.59228515625
aF0.6328125
aF0.654296875
aF0.6650390625
aF0.6669921875
aF0.66650390625
aF0.66064453125
aF0.6416015625
aF0.591796875
aF0.40185546875
aF0.0
asS'x_tilt'
p5
(lp6
I18
aI18
aI18
aI17
aI17
aI17
aI17
aI17
aI17
aI16
aI16
aI16
aI16
aI16
aI16
aI17
aI17
aI18
aI19
aI19
aI19
aI20
aI20
aI20
aI20
aI20
aI20
aI19
aI19
aI19
aI19
aI19
aI19
aI19
aI19
aI18
aI18
aI18
aI17
aI17
aI17
aI17
aI17
aI17
aI17
aI18
aI18
aI17
aI17
aI17
aI16
aI14
aI14
aI13
aI12
aI11
aI11
aI11
asS'time'
p7
(lp8
I350
aI368
aI387
aI403
aI421
aI438
aI455
aI471
aI489
aI506
aI523
aI539
aI555
aI572
aI589
aI605
aI622
aI639
aI656
aI673
aI689
aI706
aI723
aI740
aI757
aI774
aI790
aI806
aI823
aI840
aI857
aI874
aI890
aI907
aI924
aI941
aI958
aI974
aI992
aI1008
aI1025
aI1042
aI1059
aI1077
aI1094
aI1332
aI1372
aI1391
aI1407
aI1423
aI1440
aI1457
aI1474
aI1491
aI1507
aI1524
aI1541
aI1558
asS'y'
p9
(lp10
F482.7304992675781
aF482.6324462890625
aF483.1226501464844
aF485.5408630371094
aF498.3509216308594
aF518.6117553710938
aF538.676513671875
aF555.7021484375
aF570.0154418945312
aF583.348388671875
aF599.7857666015625
aF609.16455078125
aF615.7003173828125
aF618.7394409179688
aF617.56298828125
aF612.040283203125
aF603.1190185546875
aF590.4723510742188
aF573.9041748046875
aF547.8592529296875
aF526.8794555664062
aF509.10223388671875
aF494.52752685546875
aF483.7762145996094
aF474.29937744140625
aF466.7505798339844
aF461.2278747558594
aF458.48284912109375
aF456.456787109375
aF455.4437255859375
aF456.22802734375
aF459.103759765625
aF464.3323669433594
aF474.4954528808594
aF484.13568115234375
aF494.5928649902344
aF503.1873779296875
aF510.2460021972656
aF515.7360229492188
aF520.3764038085938
aF524.9187622070312
aF532.3041381835938
aF538.8072509765625
aF544.9508056640625
aF549.8853149414062
aF582.6294555664062
aF600.0798950195312
aF612.497802734375
aF617.0728149414062
aF623.8373413085938
aF633.8696899414062
aF640.8956298828125
aF639.22900390625
aF629.8502197265625
aF613.4454956054688
aF590.8971557617188
aF556.8458862304688
aF534.5589599609375
asS'x'
p11
(lp12
F4530.833984375
aF4531.2587890625
aF4532.173828125
aF4534.10205078125
aF4540.67041015625
aF4547.630859375
aF4551.291015625
aF4552.10791015625
aF4550.3759765625
aF4545.73583984375
aF4534.7880859375
aF4522.9912109375
aF4508.57958984375
aF4493.546875
aF4478.6455078125
aF4462.861328125
aF4448.97265625
aF4437.763671875
aF4429.1689453125
aF4424.69189453125
aF4427.89453125
aF4434.85498046875
aF4443.09033203125
aF4450.9658203125
aF4461.259765625
aF4472.63232421875
aF4483.05712890625
aF4489.3642578125
aF4496.58642578125
aF4504.3310546875
aF4510.8017578125
aF4515.736328125
aF4519.625
aF4523.7099609375
aF4526.68359375
aF4529.853515625
aF4532.82763671875
aF4535.96484375
aF4539.39599609375
aF4543.0888671875
aF4546.94482421875
aF4551.58544921875
aF4554.13427734375
aF4555.27783203125
aF4555.1474609375
aF4546.552734375
aF4549.06884765625
aF4553.02294921875
aF4556.19287109375
aF4561.912109375
aF4572.95751953125
aF4589.3623046875
aF4606.68212890625
aF4622.17236328125
aF4640.01513671875
aF4659.68798828125
aF4684.8837890625
aF4699.16455078125
as.