(dp0
S'y_tilt'
p1
(lp2
I8
aI9
aI10
aI10
aI10
aI9
aI8
aI7
aI6
aI4
aI3
aI2
aI2
aI2
aI2
aI4
aI5
aI7
aI8
aI9
aI9
aI10
aI11
aI10
aI9
aI8
aI7
aI5
aI4
aI3
aI2
aI1
aI1
aI1
aI2
asS'pressure'
p3
(lp4
F0.44091796875
aF0.4716796875
aF0.486328125
aF0.5009765625
aF0.5078125
aF0.51123046875
aF0.5146484375
aF0.51513671875
aF0.5146484375
aF0.5078125
aF0.50146484375
aF0.494140625
aF0.4951171875
aF0.4970703125
aF0.5029296875
aF0.5029296875
aF0.50537109375
aF0.5126953125
aF0.533203125
aF0.544921875
aF0.54931640625
aF0.5419921875
aF0.544921875
aF0.56103515625
aF0.57421875
aF0.5810546875
aF0.58544921875
aF0.5908203125
aF0.59326171875
aF0.591796875
aF0.58837890625
aF0.5791015625
aF0.54931640625
aF0.46044921875
aF0.0439453125
asS'x_tilt'
p5
(lp6
I28
aI28
aI28
aI28
aI29
aI29
aI30
aI30
aI30
aI30
aI29
aI29
aI29
aI28
aI28
aI27
aI27
aI27
aI27
aI27
aI27
aI27
aI27
aI27
aI27
aI27
aI27
aI27
aI27
aI27
aI26
aI25
aI25
aI24
aI23
asS'time'
p7
(lp8
I370
aI388
aI408
aI427
aI444
aI461
aI477
aI494
aI511
aI528
aI544
aI561
aI578
aI594
aI611
aI629
aI646
aI663
aI680
aI697
aI714
aI731
aI748
aI765
aI782
aI799
aI816
aI833
aI850
aI867
aI867
aI884
aI901
aI918
aI935
asS'y'
p9
(lp10
F432.9934387207031
aF431.3268127441406
aF429.921630859375
aF438.9736328125
aF453.4830017089844
aF473.41705322265625
aF495.50787353515625
aF516.9124755859375
aF534.1995239257812
aF551.3558959960938
aF556.6498413085938
aF553.3819580078125
aF540.3431396484375
aF520.572509765625
aF497.5993347167969
aF474.39739990234375
aF450.1497802734375
aF441.2938232421875
aF438.38543701171875
aF435.3136291503906
aF432.8953857421875
aF432.2091369628906
aF433.1568298339844
aF438.777587890625
aF456.94696044921875
aF481.3253173828125
aF502.8932800292969
aF521.2914428710938
aF533.5132446289062
aF535.6700439453125
aF539.36279296875
aF541.5195922851562
aF531.4545288085938
aF513.023681640625
aF488.5146179199219
asS'x'
p11
(lp12
F4571.8134765625
aF4567.46728515625
aF4553.44775390625
aF4533.3828125
aF4522.82763671875
aF4514.494140625
aF4509.88671875
aF4509.98486328125
aF4514.65771484375
aF4526.68359375
aF4538.0234375
aF4550.76806640625
aF4563.15380859375
aF4573.12060546875
aF4580.57177734375
aF4584.81982421875
aF4585.99658203125
aF4585.73486328125
aF4585.37548828125
aF4584.8525390625
aF4584.3623046875
aF4584.10107421875
aF4584.0029296875
aF4584.3623046875
aF4585.1796875
aF4586.51953125
aF4588.67626953125
aF4592.76123046875
aF4598.12060546875
aF4599.65625
aF4604.32958984375
aF4616.09375
aF4633.15234375
aF4649.6552734375
aF4666.419921875
as.