(dp0
S'y_tilt'
p1
(lp2
I3
aI3
aI2
aI1
aI0
aI0
aI-1
aI-1
aI-2
aI-3
aI-3
aI-4
aI-3
aI-2
aI0
aI1
aI3
aI4
aI6
aI8
aI9
aI10
aI10
aI11
aI10
aI9
aI9
aI8
aI7
aI6
aI6
aI5
aI4
aI3
aI2
aI4
aI3
aI2
aI1
aI0
aI-2
aI-3
aI-4
aI-4
aI-5
aI-5
aI-5
aI-4
aI-3
asS'pressure'
p3
(lp4
F0.21533203125
aF0.2802734375
aF0.3994140625
aF0.45068359375
aF0.47509765625
aF0.50439453125
aF0.52880859375
aF0.54736328125
aF0.55224609375
aF0.560546875
aF0.5537109375
aF0.5419921875
aF0.53271484375
aF0.525390625
aF0.5234375
aF0.52392578125
aF0.5234375
aF0.52392578125
aF0.5341796875
aF0.53369140625
aF0.53173828125
aF0.52587890625
aF0.5263671875
aF0.529296875
aF0.53076171875
aF0.53076171875
aF0.52880859375
aF0.533203125
aF0.54150390625
aF0.548828125
aF0.55126953125
aF0.5380859375
aF0.49560546875
aF0.40673828125
aF0.1279296875
aF0.51708984375
aF0.44677734375
aF0.4853515625
aF0.52685546875
aF0.54931640625
aF0.56103515625
aF0.56591796875
aF0.56298828125
aF0.5771484375
aF0.603515625
aF0.6025390625
aF0.56982421875
aF0.4814453125
aF0.0634765625
asS'x_tilt'
p5
(lp6
I16
aI16
aI16
aI16
aI16
aI16
aI16
aI16
aI16
aI16
aI16
aI16
aI17
aI18
aI18
aI19
aI19
aI19
aI19
aI19
aI19
aI18
aI18
aI18
aI17
aI17
aI17
aI17
aI17
aI17
aI17
aI17
aI17
aI17
aI17
aI16
aI17
aI17
aI16
aI16
aI15
aI15
aI15
aI15
aI14
aI13
aI12
aI12
aI12
asS'time'
p7
(lp8
I345
aI363
aI382
aI400
aI416
aI433
aI449
aI466
aI482
aI482
aI499
aI516
aI532
aI549
aI566
aI583
aI600
aI616
aI633
aI649
aI666
aI682
aI699
aI716
aI733
aI750
aI766
aI783
aI800
aI816
aI833
aI849
aI866
aI883
aI899
aI1228
aI1265
aI1283
aI1300
aI1317
aI1333
aI1350
aI1366
aI1383
aI1400
aI1416
aI1434
aI1450
aI1467
asS'y'
p9
(lp10
F464.23431396484375
aF468.3518371582031
aF485.7042541503906
aF504.7232971191406
aF520.5071411132812
aF535.8988037109375
aF550.3101196289062
aF561.7150268554688
aF564.6561279296875
aF570.3748779296875
aF569.8847045898438
aF561.5516357421875
aF544.19921875
aF519.8535766601562
aF494.8869934082031
aF473.3843688964844
aF454.4960632324219
aF435.2482604980469
aF410.477783203125
aF397.37359619140625
aF390.1515808105469
aF388.41961669921875
aF391.916259765625
aF399.13824462890625
aF408.255615234375
aF417.1769104003906
aF422.56890869140625
aF430.4771728515625
aF444.3656311035156
aF460.37823486328125
aF472.95953369140625
aF484.9199523925781
aF497.3705749511719
aF510.0172424316406
aF520.2456665039062
aF465.90093994140625
aF485.9330139160156
aF506.389892578125
aF523.0560913085938
aF539.983642578125
aF553.708740234375
aF559.5908813476562
aF562.2705688476562
aF564.3947143554688
aF551.6826782226562
aF535.5066528320312
aF521.5528564453125
aF508.9715270996094
aF494.3314514160156
asS'x'
p11
(lp12
F4563.21923828125
aF4562.46728515625
aF4561.16015625
aF4558.38232421875
aF4552.53271484375
aF4543.12158203125
aF4530.99755859375
aF4517.40283203125
aF4512.7294921875
aF4498.677734375
aF4484.26611328125
aF4468.31884765625
aF4452.40380859375
aF4439.59375
aF4432.14306640625
aF4429.953125
aF4432.30615234375
aF4439.822265625
aF4456.75048828125
aF4472.20751953125
aF4487.599609375
aF4502.20703125
aF4517.10888671875
aF4531.32421875
aF4544.9189453125
aF4556.7158203125
aF4562.630859375
aF4567.859375
aF4571.650390625
aF4570.57177734375
aF4566.84619140625
aF4560.80078125
aF4552.8271484375
aF4544.13427734375
aF4537.2392578125
aF4570.99658203125
aF4574.7548828125
aF4576.9443359375
aF4577.990234375
aF4578.67626953125
aF4579.52587890625
aF4580.5390625
aF4582.369140625
aF4589.19921875
aF4614.884765625
aF4636.12646484375
aF4654.81884765625
aF4669.328125
aF4679.3935546875
as.