(dp0
S'y_tilt'
p1
(lp2
I10
aI11
aI11
aI11
aI10
aI9
aI8
aI7
aI6
aI4
aI4
aI4
aI4
aI4
aI6
aI7
aI8
aI9
aI10
aI10
aI11
aI11
aI11
aI11
aI11
aI11
aI11
aI11
aI11
aI11
aI10
aI9
aI8
aI6
aI5
aI4
aI4
aI4
aI6
asS'pressure'
p3
(lp4
F0.435546875
aF0.46875
aF0.47900390625
aF0.4833984375
aF0.4912109375
aF0.49951171875
aF0.5
aF0.5
aF0.49267578125
aF0.4765625
aF0.4755859375
aF0.46826171875
aF0.46630859375
aF0.4716796875
aF0.4755859375
aF0.47802734375
aF0.48828125
aF0.4921875
aF0.498046875
aF0.49951171875
aF0.5009765625
aF0.4990234375
aF0.5029296875
aF0.505859375
aF0.5068359375
aF0.5126953125
aF0.51904296875
aF0.513671875
aF0.5341796875
aF0.54296875
aF0.5517578125
aF0.5537109375
aF0.5625
aF0.57470703125
aF0.568359375
aF0.55224609375
aF0.486328125
aF0.41748046875
aF0.0263671875
asS'x_tilt'
p5
(lp6
I27
aI28
aI28
aI29
aI29
aI30
aI30
aI30
aI30
aI29
aI29
aI29
aI29
aI28
aI28
aI28
aI28
aI28
aI28
aI27
aI27
aI27
aI27
aI27
aI27
aI27
aI27
aI27
aI27
aI27
aI27
aI27
aI27
aI27
aI27
aI26
aI25
aI24
aI23
asS'time'
p7
(lp8
I317
aI335
aI354
aI373
aI391
aI407
aI424
aI441
aI457
aI474
aI491
aI507
aI525
aI540
aI557
aI574
aI591
aI607
aI624
aI640
aI641
aI657
aI674
aI691
aI708
aI724
aI741
aI758
aI774
aI791
aI807
aI824
aI841
aI858
aI874
aI891
aI908
aI924
aI941
asS'y'
p9
(lp10
F397.6350402832031
aF399.1055603027344
aF405.11846923828125
aF423.745361328125
aF443.35260009765625
aF465.67218017578125
aF488.0898132324219
aF507.56634521484375
aF519.9515991210938
aF525.0821533203125
aF519.5921020507812
aF506.5533142089844
aF487.5996398925781
aF466.55450439453125
aF444.33294677734375
aF427.92822265625
aF421.91534423828125
aF419.3337097167969
aF416.16387939453125
aF415.3142395019531
aF413.4842224121094
aF412.242431640625
aF411.4254455566406
aF411.0006408691406
aF411.0006408691406
aF411.0006408691406
aF411.0986633300781
aF412.07904052734375
aF416.00048828125
aF423.94140625
aF456.456787109375
aF481.9788818359375
aF502.860595703125
aF513.6445922851562
aF518.1542358398438
aF514.2655029296875
aF493.97198486328125
aF479.9854736328125
aF446.3917236328125
asS'x'
p11
(lp12
F4567.4345703125
aF4552.36962890625
aF4540.80126953125
aF4527.07568359375
aF4518.7099609375
aF4513.57958984375
aF4512.9912109375
aF4517.2392578125
aF4524.95166015625
aF4539.68994140625
aF4552.5654296875
aF4564.951171875
aF4574.55859375
aF4581.5849609375
aF4585.80029296875
aF4587.76123046875
aF4588.1533203125
aF4588.05517578125
aF4587.56494140625
aF4587.3037109375
aF4586.71533203125
aF4586.35595703125
aF4586.15966796875
aF4586.09423828125
aF4586.09423828125
aF4586.09423828125
aF4585.9638671875
aF4585.8984375
aF4585.767578125
aF4585.408203125
aF4584.19921875
aF4584.39501953125
aF4586.42138671875
aF4589.8525390625
aF4599.03564453125
aF4615.60400390625
aF4640.14599609375
aF4654.10009765625
aF4682.53076171875
as.