(dp0
S'y_tilt'
p1
(lp2
I3
aI3
aI2
aI1
aI0
aI-1
aI-3
aI-4
aI-4
aI-5
aI-5
aI-4
aI-3
aI-1
aI0
aI1
aI3
aI4
aI5
aI6
aI7
aI8
aI9
aI9
aI9
aI9
aI9
aI9
aI9
aI9
aI8
aI8
aI7
aI7
aI6
aI6
aI6
aI6
aI5
aI5
aI5
aI4
aI4
aI4
aI3
aI3
aI3
aI3
aI3
aI1
aI1
aI0
aI0
aI0
aI-1
aI-2
aI-3
aI-4
aI-4
aI-5
aI-5
aI-5
aI-5
aI-4
aI-4
asS'pressure'
p3
(lp4
F0.3720703125
aF0.38427734375
aF0.42919921875
aF0.46728515625
aF0.50439453125
aF0.51708984375
aF0.5205078125
aF0.53369140625
aF0.54052734375
aF0.53076171875
aF0.517578125
aF0.50634765625
aF0.50244140625
aF0.51904296875
aF0.5224609375
aF0.51513671875
aF0.50634765625
aF0.50244140625
aF0.5029296875
aF0.50146484375
aF0.498046875
aF0.49560546875
aF0.4951171875
aF0.4951171875
aF0.4951171875
aF0.4951171875
aF0.49560546875
aF0.49951171875
aF0.5
aF0.50048828125
aF0.50048828125
aF0.50634765625
aF0.5126953125
aF0.517578125
aF0.5185546875
aF0.51123046875
aF0.4970703125
aF0.49169921875
aF0.49169921875
aF0.494140625
aF0.49609375
aF0.49658203125
aF0.49560546875
aF0.490234375
aF0.48974609375
aF0.47412109375
aF0.41748046875
aF0.27783203125
aF0.01708984375
aF0.27001953125
aF0.3759765625
aF0.435546875
aF0.48974609375
aF0.51123046875
aF0.53515625
aF0.548828125
aF0.55908203125
aF0.5595703125
aF0.56005859375
aF0.5546875
aF0.5546875
aF0.5458984375
aF0.5224609375
aF0.46875
aF0.33056640625
asS'x_tilt'
p5
(lp6
I16
aI16
aI16
aI16
aI16
aI16
aI16
aI16
aI17
aI17
aI18
aI18
aI19
aI20
aI20
aI21
aI21
aI21
aI21
aI21
aI20
aI20
aI20
aI20
aI20
aI19
aI19
aI19
aI19
aI19
aI19
aI19
aI19
aI19
aI19
aI19
aI19
aI19
aI19
aI19
aI19
aI18
aI18
aI18
aI18
aI18
aI18
aI18
aI18
aI17
aI17
aI17
aI17
aI17
aI16
aI15
aI15
aI14
aI14
aI13
aI13
aI12
aI12
aI12
aI12
asS'time'
p7
(lp8
I390
aI409
aI409
aI428
aI446
aI465
aI481
aI499
aI515
aI531
aI548
aI565
aI581
aI598
aI615
aI632
aI649
aI665
aI681
aI698
aI715
aI732
aI748
aI765
aI782
aI798
aI798
aI816
aI832
aI848
aI865
aI882
aI898
aI915
aI932
aI948
aI965
aI982
aI999
aI1015
aI1032
aI1049
aI1065
aI1082
aI1099
aI1115
aI1132
aI1149
aI1165
aI1388
aI1427
aI1445
aI1464
aI1482
aI1499
aI1516
aI1532
aI1549
aI1566
aI1582
aI1599
aI1616
aI1632
aI1649
aI1666
asS'y'
p9
(lp10
F471.4563293457031
aF477.27313232421875
aF497.07647705078125
aF515.5072631835938
aF539.0032958984375
aF553.8394775390625
aF569.0677490234375
aF576.8126220703125
aF579.8843994140625
aF576.7799072265625
aF566.2900390625
aF548.839599609375
aF527.9905395507812
aF508.9061584472656
aF492.0112609863281
aF476.16204833984375
aF453.6463928222656
aF436.8495178222656
aF423.3858947753906
aF413.4515380859375
aF407.9615173339844
aF405.9354248046875
aF406.22955322265625
aF408.0595397949219
aF409.5627746582031
aF411.3274230957031
aF412.242431640625
aF416.3272705078125
aF421.68658447265625
aF427.3399963378906
aF432.3725280761719
aF436.5227355957031
aF440.5095520019531
aF445.5093994140625
aF451.9144287109375
aF460.7377014160156
aF464.855224609375
aF466.3584289550781
aF466.9793395996094
aF468.3518371582031
aF470.7047119140625
aF473.51507568359375
aF476.0967102050781
aF478.28619384765625
aF481.7174377441406
aF485.41015625
aF489.4949951171875
aF492.92626953125
aF495.3771667480469
aF518.775146484375
aF522.3698120117188
aF526.8141479492188
aF535.5393676757812
aF543.6110229492188
aF552.2382202148438
aF560.6366577148438
aF570.2442016601562
aF575.2113647460938
aF577.4661865234375
aF573.9695434570312
aF566.7149047851562
aF560.7019653320312
aF557.3360595703125
aF554.787109375
aF550.7676391601562
asS'x'
p11
(lp12
F4581.5849609375
aF4581.5849609375
aF4580.50634765625
aF4577.04248046875
aF4568.708984375
aF4559.6572265625
aF4544.0361328125
aF4530.67041015625
aF4516.0302734375
aF4500.5078125
aF4485.18115234375
aF4470.08349609375
aF4457.3056640625
aF4448.6787109375
aF4443.80908203125
aF4442.66552734375
aF4447.3388671875
aF4455.181640625
aF4466.29248046875
aF4478.84130859375
aF4490.638671875
aF4501.9130859375
aF4513.38330078125
aF4523.74267578125
aF4529.82080078125
aF4534.68994140625
aF4536.814453125
aF4544.55908203125
aF4551.45458984375
aF4556.94482421875
aF4561.0947265625
aF4564.1015625
aF4566.38916015625
aF4568.31689453125
aF4569.8203125
aF4571.029296875
aF4571.48681640625
aF4571.78076171875
aF4572.23828125
aF4572.990234375
aF4574.068359375
aF4575.27783203125
aF4576.29052734375
aF4576.97705078125
aF4577.5654296875
aF4577.69580078125
aF4577.69580078125
aF4577.59765625
aF4577.63037109375
aF4566.74853515625
aF4566.81396484375
aF4567.5
aF4569.5263671875
aF4571.68310546875
aF4574.19921875
aF4576.97705078125
aF4581.5849609375
aF4586.64990234375
aF4596.09423828125
aF4611.68212890625
aF4626.3876953125
aF4637.171875
aF4643.31591796875
aF4647.49853515625
aF4652.98876953125
as.