(dp0
S'y_tilt'
p1
(lp2
I8
aI9
aI9
aI10
aI10
aI9
aI8
aI7
aI6
aI6
aI5
aI5
aI5
aI5
aI6
aI7
aI8
aI9
aI10
aI11
aI11
aI11
aI11
aI11
aI11
aI11
aI11
aI10
aI10
aI9
aI7
aI6
aI5
aI4
aI3
aI3
aI5
asS'pressure'
p3
(lp4
F0.455078125
aF0.501953125
aF0.513671875
aF0.5166015625
aF0.52392578125
aF0.52783203125
aF0.52783203125
aF0.525390625
aF0.52197265625
aF0.51318359375
aF0.49853515625
aF0.505859375
aF0.51513671875
aF0.521484375
aF0.5283203125
aF0.52978515625
aF0.53515625
aF0.5419921875
aF0.54443359375
aF0.5498046875
aF0.5498046875
aF0.5498046875
aF0.54638671875
aF0.5478515625
aF0.54931640625
aF0.55078125
aF0.5673828125
aF0.58740234375
aF0.59375
aF0.59423828125
aF0.59912109375
aF0.5966796875
aF0.59228515625
aF0.58203125
aF0.564453125
aF0.50048828125
aF0.021484375
asS'x_tilt'
p5
(lp6
I29
aI29
aI29
aI29
aI30
aI30
aI30
aI31
aI31
aI30
aI30
aI30
aI30
aI30
aI30
aI30
aI30
aI30
aI30
aI30
aI30
aI30
aI30
aI30
aI30
aI30
aI30
aI30
aI30
aI29
aI28
aI28
aI28
aI28
aI27
aI26
aI25
asS'time'
p7
(lp8
I339
aI358
aI374
aI390
aI407
aI424
aI440
aI457
aI473
aI490
aI507
aI523
aI540
aI557
aI573
aI590
aI606
aI623
aI639
aI656
aI672
aI689
aI706
aI722
aI739
aI756
aI772
aI790
aI806
aI823
aI839
aI856
aI873
aI889
aI906
aI922
aI939
asS'y'
p9
(lp10
F402.5368347167969
aF401.2950439453125
aF402.47149658203125
aF407.7327575683594
aF422.4382019042969
aF452.86212158203125
aF466.1950378417969
aF487.56695556640625
aF499.5273742675781
aF506.91278076171875
aF510.0172424316406
aF506.1611633300781
aF494.1353759765625
aF478.547607421875
aF459.92071533203125
aF440.8690185546875
aF430.9020080566406
aF426.5884094238281
aF418.3533630371094
aF412.2751159667969
aF407.9288330078125
aF405.3145446777344
aF404.00738525390625
aF403.68060302734375
aF403.6479187011719
aF404.3668518066406
aF407.7000732421875
aF428.5818176269531
aF453.6790771484375
aF473.9399108886719
aF488.710693359375
aF496.9784240722656
aF500.14825439453125
aF503.5141906738281
aF501.0632629394531
aF483.1553039550781
aF452.8948059082031
asS'x'
p11
(lp12
F4562.40185546875
aF4555.0166015625
aF4547.50048828125
aF4538.41552734375
aF4527.1083984375
aF4516.3896484375
aF4514.36376953125
aF4516.5859375
aF4522.92578125
aF4531.09521484375
aF4542.892578125
aF4551.2255859375
aF4560.63720703125
aF4567.2060546875
aF4571.388671875
aF4573.83984375
aF4574.91796875
aF4574.9833984375
aF4574.55859375
aF4573.83984375
aF4573.21875
aF4572.859375
aF4572.59814453125
aF4572.53271484375
aF4572.46728515625
aF4572.369140625
aF4572.27099609375
aF4572.27099609375
aF4573.38232421875
aF4576.0947265625
aF4580.5390625
aF4585.2119140625
aF4589.19921875
aF4596.9111328125
aF4612.00927734375
aF4631.68212890625
aF4654.45947265625
as.