(dp0
S'y_tilt'
p1
(lp2
I3
aI2
aI1
aI0
aI0
aI-1
aI-1
aI-1
aI-1
aI0
aI0
aI1
aI1
aI3
aI4
aI5
aI7
aI8
aI9
aI9
aI10
aI10
aI10
aI10
aI11
aI11
aI11
aI10
aI10
aI9
aI9
aI8
aI7
aI6
aI6
aI5
aI4
aI4
aI3
aI3
aI3
aI2
aI1
aI0
aI0
aI0
aI-1
aI-1
aI-2
aI-3
aI-3
aI-3
aI-3
aI-3
aI-2
aI-1
asS'pressure'
p3
(lp4
F0.375
aF0.38525390625
aF0.40869140625
aF0.41845703125
aF0.4248046875
aF0.41455078125
aF0.4091796875
aF0.40673828125
aF0.41162109375
aF0.41552734375
aF0.41357421875
aF0.41357421875
aF0.40625
aF0.39990234375
aF0.39404296875
aF0.38671875
aF0.38330078125
aF0.3798828125
aF0.37841796875
aF0.3876953125
aF0.38720703125
aF0.38720703125
aF0.38671875
aF0.3798828125
aF0.3759765625
aF0.37451171875
aF0.37646484375
aF0.37841796875
aF0.37841796875
aF0.37841796875
aF0.38037109375
aF0.38671875
aF0.39013671875
aF0.39208984375
aF0.39697265625
aF0.4033203125
aF0.4072265625
aF0.41259765625
aF0.39599609375
aF0.3173828125
aF0.0322265625
aF0.357421875
aF0.3505859375
aF0.41357421875
aF0.4609375
aF0.4833984375
aF0.49267578125
aF0.5029296875
aF0.51904296875
aF0.521484375
aF0.52490234375
aF0.52490234375
aF0.5166015625
aF0.48681640625
aF0.419921875
aF0.02001953125
asS'x_tilt'
p5
(lp6
I14
aI14
aI15
aI15
aI15
aI15
aI15
aI15
aI16
aI16
aI17
aI17
aI17
aI17
aI18
aI18
aI18
aI18
aI18
aI18
aI17
aI17
aI17
aI17
aI17
aI17
aI17
aI16
aI16
aI16
aI15
aI15
aI15
aI15
aI15
aI15
aI15
aI15
aI15
aI15
aI15
aI16
aI16
aI15
aI15
aI15
aI15
aI15
aI14
aI14
aI14
aI13
aI12
aI12
aI12
aI12
asS'time'
p7
(lp8
I435
aI455
aI474
aI493
aI511
aI528
aI544
aI562
aI579
aI596
aI613
aI630
aI647
aI664
aI681
aI698
aI715
aI733
aI750
aI766
aI783
aI800
aI800
aI817
aI835
aI851
aI868
aI885
aI903
aI903
aI920
aI937
aI957
aI977
aI994
aI1011
aI1028
aI1045
aI1062
aI1079
aI1096
aI1406
aI1446
aI1465
aI1482
aI1499
aI1516
aI1533
aI1550
aI1567
aI1584
aI1602
aI1619
aI1635
aI1652
aI1669
asS'y'
p9
(lp10
F478.8743896484375
aF496.7823486328125
aF508.7427673339844
aF514.6249389648438
aF524.5919799804688
aF526.94482421875
aF526.8468017578125
aF524.2978515625
aF520.1476440429688
aF512.8930053710938
aF497.8607482910156
aF480.6390380859375
aF463.3193054199219
aF445.5420837402344
aF423.2551574707031
aF407.2752685546875
aF393.7789306640625
aF384.1387023925781
aF378.2238464355469
aF375.70758056640625
aF373.61614990234375
aF372.83184814453125
aF371.06719970703125
aF370.7077331542969
aF371.39398193359375
aF373.0279235839844
aF375.8382873535156
aF380.1845703125
aF381.9819030761719
aF388.19085693359375
aF395.1187744140625
aF402.3734436035156
aF412.8306579589844
aF423.8106994628906
aF431.6535949707031
aF438.8756103515625
aF445.77081298828125
aF452.40460205078125
aF460.1821594238281
aF464.1036071777344
aF465.90093994140625
aF472.5674133300781
aF478.3515319824219
aF487.5342712402344
aF495.40985107421875
aF502.9913024902344
aF509.8211669921875
aF515.4092407226562
aF520.34375
aF517.3372802734375
aF510.21331787109375
aF502.46844482421875
aF495.4751892089844
aF490.1812438964844
aF487.33819580078125
aF483.2206726074219
asS'x'
p11
(lp12
F4580.3427734375
aF4574.068359375
aF4566.84619140625
aF4559.98388671875
aF4541.1279296875
aF4529.16748046875
aF4517.435546875
aF4505.83447265625
aF4496.19384765625
aF4487.2724609375
aF4476.78271484375
aF4471.35791015625
aF4469.8544921875
aF4471.58642578125
aF4479.03759765625
aF4487.72998046875
aF4498.02392578125
aF4508.9716796875
aF4518.02392578125
aF4523.154296875
aF4528.67724609375
aF4531.193359375
aF4539.494140625
aF4547.43505859375
aF4554.8857421875
aF4561.3564453125
aF4566.55224609375
aF4570.669921875
aF4571.87890625
aF4575.34326171875
aF4578.54541015625
aF4581.35595703125
aF4584.1337890625
aF4586.15966796875
aF4587.3037109375
aF4587.8916015625
aF4587.98974609375
aF4587.369140625
aF4585.63720703125
aF4584.23193359375
aF4583.349609375
aF4575.1142578125
aF4575.8330078125
aF4577.76123046875
aF4580.63720703125
aF4584.6240234375
aF4589.6240234375
aF4595.767578125
aF4610.34228515625
aF4627.0087890625
aF4642.82568359375
aF4657.6943359375
aF4671.74658203125
aF4683.5439453125
aF4689.3935546875
aF4693.935546875
as.