(dp0
S'y_tilt'
p1
(lp2
I7
aI7
aI7
aI7
aI7
aI7
aI7
aI7
aI7
aI7
aI8
aI8
aI8
aI9
aI9
aI10
aI10
aI10
aI9
aI9
aI9
aI8
aI7
aI6
aI5
aI3
aI2
aI1
aI1
aI1
aI2
aI2
aI3
aI4
aI5
aI7
aI8
aI9
aI10
aI10
aI9
aI8
aI7
aI6
aI5
aI4
aI3
aI2
aI1
aI1
asS'pressure'
p3
(lp4
F0.10546875
aF0.166015625
aF0.189453125
aF0.2685546875
aF0.359375
aF0.4384765625
aF0.49267578125
aF0.52685546875
aF0.546875
aF0.5634765625
aF0.58154296875
aF0.5859375
aF0.5908203125
aF0.6005859375
aF0.60546875
aF0.61181640625
aF0.6181640625
aF0.623046875
aF0.62548828125
aF0.62841796875
aF0.6279296875
aF0.626953125
aF0.62744140625
aF0.62744140625
aF0.61962890625
aF0.6162109375
aF0.60986328125
aF0.60986328125
aF0.611328125
aF0.61181640625
aF0.6044921875
aF0.6005859375
aF0.5986328125
aF0.59912109375
aF0.60595703125
aF0.615234375
aF0.6171875
aF0.6181640625
aF0.61767578125
aF0.6259765625
aF0.6357421875
aF0.64404296875
aF0.64990234375
aF0.6533203125
aF0.66064453125
aF0.6611328125
aF0.658203125
aF0.6533203125
aF0.61376953125
aF0.47216796875
asS'x_tilt'
p5
(lp6
I29
aI29
aI29
aI29
aI29
aI28
aI28
aI28
aI28
aI28
aI28
aI29
aI30
aI30
aI30
aI30
aI30
aI30
aI31
aI32
aI32
aI32
aI32
aI32
aI32
aI32
aI31
aI31
aI31
aI31
aI30
aI29
aI29
aI29
aI29
aI29
aI29
aI29
aI29
aI29
aI29
aI29
aI29
aI29
aI29
aI28
aI28
aI27
aI27
aI26
asS'time'
p7
(lp8
I2032
aI2047
aI2065
aI2065
aI2083
aI2099
aI2115
aI2132
aI2148
aI2165
aI2181
aI2198
aI2215
aI2232
aI2248
aI2265
aI2282
aI2298
aI2315
aI2331
aI2348
aI2365
aI2382
aI2399
aI2415
aI2432
aI2448
aI2465
aI2482
aI2482
aI2498
aI2515
aI2532
aI2549
aI2565
aI2582
aI2599
aI2616
aI2632
aI2650
aI2665
aI2682
aI2699
aI2715
aI2732
aI2748
aI2765
aI2765
aI2782
aI2799
asS'y'
p9
(lp10
F522.6965942382812
aF522.5985717773438
aF522.5658569335938
aF522.5005493164062
aF522.4351806640625
aF522.2390747070312
aF521.65087890625
aF520.539794921875
aF519.2980346679688
aF518.12158203125
aF517.010498046875
aF516.4549560546875
aF515.93212890625
aF515.44189453125
aF515.1478271484375
aF515.1804809570312
aF515.9974365234375
aF517.7947998046875
aF520.8012084960938
aF527.206298828125
aF536.7484741210938
aF554.6237182617188
aF575.6688842773438
aF594.9493408203125
aF609.0338745117188
aF617.7263793945312
aF620.9942626953125
aF617.5303344726562
aF614.8833618164062
aF602.6941528320312
aF585.4398193359375
aF566.4534301757812
aF548.9376220703125
aF532.72900390625
aF521.2914428710938
aF516.5203247070312
aF512.3701171875
aF506.5533142089844
aF505.2788391113281
aF506.68402099609375
aF513.448486328125
aF530.931640625
aF552.7610473632812
aF569.7213134765625
aF584.8189086914062
aF594.13232421875
aF598.3152465820312
aF600.0798950195312
aF602.6941528320312
aF594.9493408203125
asS'x'
p11
(lp12
F4581.029296875
aF4581.4541015625
aF4581.6171875
aF4582.369140625
aF4583.0224609375
aF4583.2841796875
aF4583.31689453125
aF4582.7939453125
aF4581.55224609375
aF4579.689453125
aF4576.48681640625
aF4573.80712890625
aF4570.70263671875
aF4566.81396484375
aF4561.7158203125
aF4555.44140625
aF4548.41552734375
aF4541.02978515625
aF4533.41552734375
aF4523.25244140625
aF4514.494140625
aF4506.84765625
aF4504.56005859375
aF4506.7822265625
aF4512.3046875
aF4521.91259765625
aF4534.03662109375
aF4547.17333984375
aF4551.552734375
aF4563.08837890625
aF4572.17333984375
aF4579.1337890625
aF4583.6435546875
aF4586.48681640625
aF4588.25146484375
aF4588.83935546875
aF4589.39501953125
aF4590.146484375
aF4590.44091796875
aF4590.60400390625
aF4590.9638671875
aF4591.748046875
aF4593.0224609375
aF4594.787109375
aF4599.1005859375
aF4604.55810546875
aF4609.8193359375
aF4612.92431640625
aF4627.10693359375
aF4640.79931640625
as.