(dp0
S'y_tilt'
p1
(lp2
I13
aI14
aI15
aI15
aI15
aI14
aI12
aI10
aI8
aI7
aI5
aI4
aI4
aI4
aI4
aI5
aI7
aI8
aI9
aI10
aI12
aI13
aI13
aI14
aI15
aI15
aI15
aI14
aI13
aI11
aI9
aI8
aI5
aI3
aI2
aI0
aI0
aI-1
aI-1
asS'pressure'
p3
(lp4
F0.470703125
aF0.50537109375
aF0.53759765625
aF0.5556640625
aF0.56689453125
aF0.58349609375
aF0.58544921875
aF0.58154296875
aF0.57568359375
aF0.57080078125
aF0.56103515625
aF0.5537109375
aF0.5537109375
aF0.5556640625
aF0.5703125
aF0.5830078125
aF0.591796875
aF0.59423828125
aF0.595703125
aF0.599609375
aF0.6044921875
aF0.60986328125
aF0.615234375
aF0.6103515625
aF0.60498046875
aF0.6142578125
aF0.62939453125
aF0.64599609375
aF0.6591796875
aF0.6650390625
aF0.6767578125
aF0.685546875
aF0.68994140625
aF0.68798828125
aF0.68310546875
aF0.6728515625
aF0.66015625
aF0.61328125
aF0.43701171875
asS'x_tilt'
p5
(lp6
I27
aI27
aI28
aI29
aI29
aI30
aI31
aI31
aI31
aI31
aI30
aI30
aI29
aI29
aI29
aI29
aI28
aI28
aI28
aI28
aI28
aI28
aI28
aI28
aI28
aI28
aI28
aI28
aI28
aI28
aI28
aI28
aI28
aI27
aI26
aI26
aI25
aI24
aI24
asS'time'
p7
(lp8
I324
aI342
aI358
aI374
aI390
aI405
aI421
aI437
aI453
aI468
aI485
aI502
aI519
aI535
aI552
aI568
aI585
aI601
aI619
aI635
aI652
aI669
aI685
aI702
aI719
aI735
aI752
aI769
aI785
aI802
aI818
aI835
aI852
aI869
aI885
aI902
aI919
aI935
aI952
asS'y'
p9
(lp10
F447.7969055175781
aF449.52886962890625
aF459.103759765625
aF477.73065185546875
aF503.4161376953125
aF532.6309204101562
aF563.21826171875
aF589.6553344726562
aF609.0011596679688
aF621.7131958007812
aF627.4320068359375
aF624.5562744140625
aF613.7069091796875
aF596.0277099609375
aF563.1528930664062
aF535.5393676757812
aF512.82763671875
aF494.919677734375
aF481.5213623046875
aF475.0836486816406
aF470.5740051269531
aF464.8225402832031
aF460.93377685546875
aF459.82269287109375
aF460.3128662109375
aF462.24090576171875
aF467.8616638183594
aF484.0376281738281
aF512.5335083007812
aF538.7418823242188
aF564.98291015625
aF590.4723510742188
aF619.1642456054688
aF634.7520141601562
aF642.1701049804688
aF645.3072509765625
aF640.56884765625
aF627.530029296875
aF605.2758178710938
asS'x'
p11
(lp12
F4592.23828125
aF4577.59765625
aF4560.27783203125
aF4541.71630859375
aF4525.60546875
aF4513.4814453125
aF4507.697265625
aF4510.4423828125
aF4520.7685546875
aF4535.44189453125
aF4552.66357421875
aF4569.78759765625
aF4583.67626953125
aF4594.19873046875
aF4604.62353515625
aF4610.83251953125
aF4615.7998046875
aF4618.1201171875
aF4618.7412109375
aF4618.67578125
aF4618.544921875
aF4618.28369140625
aF4618.0546875
aF4617.8583984375
aF4617.7607421875
aF4617.8583984375
aF4617.9892578125
aF4617.04150390625
aF4614.26416015625
aF4611.9111328125
aF4611.09423828125
aF4611.74755859375
aF4615.1787109375
aF4620.34228515625
aF4628.1201171875
aF4641.97607421875
aF4656.09326171875
aF4670.11279296875
aF4684.00146484375
as.