(dp0
S'y_tilt'
p1
(lp2
I1
aI2
aI2
aI2
aI2
aI1
aI1
aI1
aI0
aI0
aI-1
aI-2
aI-3
aI-4
aI-5
aI-6
aI-6
aI-6
aI-6
aI-5
aI-5
aI-3
aI-3
aI-2
aI-1
aI0
aI0
aI0
aI1
aI2
aI2
aI1
aI1
aI0
aI0
aI-1
aI-2
aI-4
aI-6
aI-7
aI-8
aI-9
aI-9
aI-10
aI-10
aI-10
aI-9
aI-8
asS'pressure'
p3
(lp4
F0.330078125
aF0.375
aF0.3994140625
aF0.42041015625
aF0.43310546875
aF0.435546875
aF0.435546875
aF0.4423828125
aF0.443359375
aF0.439453125
aF0.43505859375
aF0.42431640625
aF0.4189453125
aF0.41845703125
aF0.41845703125
aF0.42236328125
aF0.42626953125
aF0.42919921875
aF0.431640625
aF0.43359375
aF0.43798828125
aF0.4423828125
aF0.4423828125
aF0.4423828125
aF0.4443359375
aF0.44384765625
aF0.44189453125
aF0.44580078125
aF0.45556640625
aF0.45849609375
aF0.45654296875
aF0.46630859375
aF0.47216796875
aF0.482421875
aF0.51171875
aF0.53173828125
aF0.541015625
aF0.544921875
aF0.54736328125
aF0.54736328125
aF0.54248046875
aF0.5390625
aF0.54052734375
aF0.5419921875
aF0.544921875
aF0.53564453125
aF0.451171875
aF0.0
asS'x_tilt'
p5
(lp6
I23
aI23
aI24
aI24
aI25
aI26
aI26
aI27
aI27
aI27
aI27
aI27
aI26
aI26
aI25
aI24
aI24
aI24
aI24
aI24
aI24
aI24
aI24
aI24
aI25
aI25
aI25
aI25
aI25
aI25
aI26
aI26
aI26
aI26
aI26
aI25
aI25
aI24
aI24
aI23
aI22
aI22
aI21
aI21
aI21
aI20
aI20
aI19
asS'time'
p7
(lp8
I373
aI392
aI409
aI426
aI444
aI461
aI478
aI495
aI512
aI528
aI545
aI562
aI578
aI595
aI612
aI628
aI645
aI662
aI678
aI695
aI712
aI728
aI745
aI762
aI778
aI795
aI812
aI829
aI845
aI862
aI879
aI896
aI912
aI929
aI946
aI962
aI979
aI996
aI1012
aI1029
aI1046
aI1062
aI1079
aI1096
aI1112
aI1129
aI1146
aI1162
asS'y'
p9
(lp10
F470.63934326171875
aF475.3450927734375
aF481.0965576171875
aF489.2989196777344
aF500.5077209472656
aF519.199951171875
aF536.3236694335938
aF554.6890869140625
aF573.7081298828125
aF594.7532348632812
aF614.1317138671875
aF629.752197265625
aF642.137451171875
aF645.7647705078125
aF645.7321166992188
aF642.0720825195312
aF633.8043212890625
aF621.1576538085938
aF606.0927734375
aF589.2958984375
aF571.6820678710938
aF548.5781860351562
aF531.4218139648438
aF516.4223022460938
aF503.4161376953125
aF491.88055419921875
aF484.46246337890625
aF481.2926330566406
aF478.0901184082031
aF475.8679504394531
aF476.55419921875
aF482.79583740234375
aF500.5404052734375
aF521.9122924804688
aF541.3888549804688
aF562.4013061523438
aF584.3613891601562
aF606.0274047851562
aF629.327392578125
aF640.5034790039062
aF645.5687255859375
aF651.7449951171875
aF651.5162353515625
aF643.67333984375
aF629.752197265625
aF614.06640625
aF598.4132690429688
aF574.7864990234375
asS'x'
p11
(lp12
F4576.0947265625
aF4557.3369140625
aF4542.271484375
aF4527.794921875
aF4514.00439453125
aF4497.23974609375
aF4487.697265625
aF4481.52099609375
aF4479.298828125
aF4481.52099609375
aF4487.5341796875
aF4496.1611328125
aF4511.357421875
aF4524.36328125
aF4537.6640625
aF4550.8662109375
aF4562.9248046875
aF4572.89208984375
aF4581.55224609375
aF4589.10107421875
aF4594.62353515625
aF4598.9375
aF4601.38818359375
aF4603.83935546875
aF4605.47314453125
aF4605.96337890625
aF4605.83251953125
aF4605.53857421875
aF4605.146484375
aF4604.787109375
aF4604.65625
aF4605.24462890625
aF4607.0419921875
aF4608.9697265625
aF4610.24462890625
aF4610.83251953125
aF4611.25732421875
aF4612.1396484375
aF4614.98291015625
aF4618.904296875
aF4623.4794921875
aF4636.1591796875
aF4652.890625
aF4668.740234375
aF4686.9423828125
aF4705.046875
aF4720.96142578125
aF4737.46435546875
as.