(dp0
S'y_tilt'
p1
(lp2
I8
aI8
aI8
aI7
aI6
aI5
aI4
aI2
aI1
aI0
aI0
aI-2
aI-3
aI-4
aI-4
aI-5
aI-6
aI-5
aI-4
aI-3
aI-2
aI-1
aI0
aI1
aI2
aI3
aI4
aI6
aI7
aI7
aI8
aI8
aI7
aI6
aI5
aI4
aI3
aI2
aI0
aI-1
aI-2
aI-3
aI-4
aI-5
aI-4
aI-4
aI-3
aI-2
aI0
aI3
aI1
aI1
aI0
aI0
aI0
aI-1
aI-2
aI-3
aI-4
aI-4
aI-5
aI-5
aI-4
aI-4
asS'pressure'
p3
(lp4
F0.3896484375
aF0.4306640625
aF0.4736328125
aF0.49560546875
aF0.52294921875
aF0.5439453125
aF0.556640625
aF0.564453125
aF0.5791015625
aF0.58837890625
aF0.60498046875
aF0.6142578125
aF0.62109375
aF0.62060546875
aF0.6142578125
aF0.60693359375
aF0.5966796875
aF0.5908203125
aF0.58349609375
aF0.58349609375
aF0.5810546875
aF0.57470703125
aF0.57421875
aF0.57373046875
aF0.57568359375
aF0.57666015625
aF0.57666015625
aF0.578125
aF0.57861328125
aF0.58154296875
aF0.58154296875
aF0.58447265625
aF0.58740234375
aF0.59033203125
aF0.59619140625
aF0.6025390625
aF0.60205078125
aF0.60546875
aF0.6171875
aF0.6298828125
aF0.634765625
aF0.63037109375
aF0.61962890625
aF0.60888671875
aF0.60546875
aF0.59814453125
aF0.58740234375
aF0.54248046875
aF0.38916015625
aF0.02392578125
aF0.3916015625
aF0.34716796875
aF0.431640625
aF0.46923828125
aF0.51318359375
aF0.5498046875
aF0.5732421875
aF0.5888671875
aF0.59423828125
aF0.58447265625
aF0.56591796875
aF0.53369140625
aF0.46630859375
aF0.22509765625
asS'x_tilt'
p5
(lp6
I18
aI18
aI17
aI17
aI17
aI16
aI16
aI16
aI16
aI16
aI16
aI16
aI16
aI16
aI16
aI17
aI17
aI17
aI18
aI18
aI19
aI19
aI19
aI19
aI19
aI19
aI18
aI17
aI17
aI17
aI17
aI16
aI16
aI16
aI16
aI16
aI16
aI16
aI16
aI16
aI16
aI16
aI16
aI16
aI17
aI17
aI17
aI18
aI19
aI19
aI16
aI17
aI17
aI17
aI17
aI17
aI17
aI16
aI15
aI14
aI13
aI13
aI12
aI11
asS'time'
p7
(lp8
I330
aI349
aI367
aI384
aI401
aI417
aI434
aI450
aI467
aI467
aI484
aI501
aI517
aI534
aI550
aI567
aI584
aI601
aI617
aI634
aI651
aI667
aI685
aI701
aI717
aI734
aI751
aI767
aI784
aI801
aI818
aI834
aI851
aI867
aI884
aI902
aI918
aI935
aI952
aI968
aI985
aI1002
aI1018
aI1035
aI1052
aI1052
aI1068
aI1085
aI1102
aI1119
aI1411
aI1450
aI1469
aI1484
aI1501
aI1517
aI1534
aI1550
aI1567
aI1584
aI1601
aI1617
aI1634
aI1651
asS'y'
p9
(lp10
F372.6357727050781
aF367.21112060546875
aF370.6423645019531
aF380.9688720703125
aF395.67431640625
aF415.05279541015625
aF438.320068359375
aF462.7311096191406
aF485.2140808105469
aF492.1419677734375
aF511.8472595214844
aF529.9512939453125
aF545.9312133789062
aF557.8262329101562
aF564.6234130859375
aF565.8978881835938
aF562.4666137695312
aF554.787109375
aF537.5654296875
aF521.0626831054688
aF504.1023864746094
aF484.8546142578125
aF463.4173583984375
aF441.2938232421875
aF421.35980224609375
aF404.49755859375
aF390.64178466796875
aF378.58331298828125
aF374.9559631347656
aF375.8709716796875
aF380.57672119140625
aF389.07318115234375
aF401.5891418457031
aF417.7978210449219
aF436.097900390625
aF464.9205627441406
aF490.5080261230469
aF516.9451293945312
aF540.9967041015625
aF560.4405517578125
aF574.6884765625
aF584.4594116210938
aF589.1651611328125
aF587.53125
aF585.3744506835938
aF574.034912109375
aF553.7741088867188
aF521.3240966796875
aF480.2795715332031
aF442.0454406738281
aF539.330078125
aF545.8658447265625
aF549.3951416015625
aF555.8328247070312
aF567.6625366210938
aF586.1260375976562
aF594.2304077148438
aF598.0537719726562
aF598.380615234375
aF595.1453857421875
aF589.5573120117188
aF583.4464111328125
aF578.2177734375
aF574.8518676757812
asS'x'
p11
(lp12
F4493.41650390625
aF4503.87353515625
aF4528.7099609375
aF4545.5068359375
aF4562.30419921875
aF4576.650390625
aF4587.56494140625
aF4594.26416015625
aF4596.6171875
aF4596.4208984375
aF4592.8916015625
aF4585.1796875
aF4573.970703125
aF4559.330078125
aF4541.58544921875
aF4521.3896484375
aF4498.9716796875
aF4475.99853515625
aF4447.142578125
aF4430.3779296875
aF4419.724609375
aF4414.65966796875
aF4415.6396484375
aF4423.22119140625
aF4436.423828125
aF4452.37109375
aF4470.67138671875
aF4496.58642578125
aF4515.63818359375
aF4533.7421875
aF4551.09521484375
aF4568.1865234375
aF4583.90478515625
aF4599.03564453125
aF4612.205078125
aF4622.7607421875
aF4624.78662109375
aF4622.66259765625
aF4616.486328125
aF4605.865234375
aF4591.15966796875
aF4573.5458984375
aF4551.4873046875
aF4525.6708984375
aF4516.5859375
aF4489.06982421875
aF4463.44970703125
aF4442.2734375
aF4427.99267578125
aF4422.4697265625
aF4620.27685546875
aF4608.3818359375
aF4605.9306640625
aF4606.58447265625
aF4613.87158203125
aF4635.603515625
aF4654.19775390625
aF4675.70068359375
aF4699.42578125
aF4722.79150390625
aF4744.29443359375
aF4761.94091796875
aF4773.47705078125
aF4777.3330078125
as.