(dp0
S'y_tilt'
p1
(lp2
I9
aI9
aI8
aI7
aI6
aI5
aI3
aI2
aI0
aI0
aI-1
aI-1
aI-1
aI-1
aI-1
aI-1
aI0
aI0
aI1
aI2
aI3
aI5
aI6
aI7
aI8
aI9
aI10
aI10
aI10
aI4
aI3
aI2
aI1
aI1
aI0
aI0
aI-1
aI-1
aI-1
aI-1
aI0
aI0
aI1
asS'pressure'
p3
(lp4
F0.43505859375
aF0.4658203125
aF0.4921875
aF0.515625
aF0.533203125
aF0.54931640625
aF0.56005859375
aF0.57373046875
aF0.60791015625
aF0.62109375
aF0.62353515625
aF0.623046875
aF0.61865234375
aF0.6201171875
aF0.609375
aF0.6015625
aF0.59228515625
aF0.5830078125
aF0.5732421875
aF0.56591796875
aF0.564453125
aF0.5615234375
aF0.5556640625
aF0.5419921875
aF0.53076171875
aF0.517578125
aF0.48974609375
aF0.412109375
aF0.16015625
aF0.44970703125
aF0.45556640625
aF0.4912109375
aF0.5341796875
aF0.55859375
aF0.5673828125
aF0.572265625
aF0.580078125
aF0.59521484375
aF0.60302734375
aF0.59375
aF0.56005859375
aF0.4814453125
aF0.1162109375
asS'x_tilt'
p5
(lp6
I17
aI17
aI16
aI16
aI16
aI15
aI15
aI15
aI15
aI15
aI15
aI16
aI16
aI16
aI17
aI17
aI17
aI18
aI18
aI18
aI18
aI18
aI18
aI18
aI17
aI17
aI17
aI16
aI16
aI15
aI17
aI17
aI17
aI17
aI17
aI17
aI17
aI16
aI16
aI15
aI14
aI14
aI13
asS'time'
p7
(lp8
I348
aI366
aI383
aI399
aI416
aI432
aI448
aI463
aI479
aI495
aI511
aI528
aI544
aI560
aI577
aI593
aI609
aI625
aI641
aI658
aI674
aI692
aI708
aI725
aI742
aI758
aI775
aI791
aI808
aI1110
aI1148
aI1167
aI1183
aI1199
aI1215
aI1230
aI1246
aI1262
aI1278
aI1294
aI1309
aI1326
aI1342
asS'y'
p9
(lp10
F381.45904541015625
aF381.9165344238281
aF390.3149719238281
aF402.3734436035156
aF416.81744384765625
aF434.8561096191406
aF454.9862365722656
aF474.29937744140625
aF488.9067687988281
aF500.1156005859375
aF508.8735046386719
aF514.788330078125
aF516.9778442382812
aF515.6052856445312
aF510.54010009765625
aF502.46844482421875
aF492.30535888671875
aF480.0181579589844
aF464.6591491699219
aF445.5093994140625
aF426.392333984375
aF405.21649169921875
aF393.3214416503906
aF384.4981689453125
aF377.8970642089844
aF374.2043762207031
aF374.00830078125
aF377.6356201171875
aF384.9230041503906
aF469.10345458984375
aF477.1097412109375
aF485.181396484375
aF499.2005920410156
aF509.3963623046875
aF513.6119384765625
aF519.7882080078125
aF520.7685546875
aF514.1021118164062
aF505.4095458984375
aF497.2071838378906
aF490.0178527832031
aF482.6651306152344
aF474.72418212890625
asS'x'
p11
(lp12
F4550.212890625
aF4561.0947265625
aF4576.55224609375
aF4589.296875
aF4599.1005859375
aF4605.2119140625
aF4606.87841796875
aF4604.8525390625
aF4599.91796875
aF4591.486328125
aF4579.330078125
aF4563.4150390625
aF4545.1474609375
aF4527.46826171875
aF4510.34423828125
aF4494.2333984375
aF4480.96533203125
aF4471.29248046875
aF4465.93310546875
aF4465.70458984375
aF4471.35791015625
aF4484.919921875
aF4496.81494140625
aF4511.0302734375
aF4527.33740234375
aF4544.00390625
aF4560.47412109375
aF4574.72216796875
aF4587.20556640625
aF4604.55810546875
aF4607.1396484375
aF4608.6103515625
aF4611.38818359375
aF4614.4599609375
aF4617.6298828125
aF4626.09375
aF4643.47900390625
aF4665.73388671875
aF4689.16455078125
aF4713.60888671875
aF4736.74560546875
aF4757.0068359375
aF4773.57470703125
as.