(dp0
S'y_tilt'
p1
(lp2
I8
aI7
aI6
aI5
aI4
aI2
aI1
aI-1
aI-2
aI-4
aI-5
aI-5
aI-6
aI-6
aI-6
aI-5
aI-4
aI-3
aI-2
aI0
aI1
aI3
aI5
aI6
aI7
aI8
aI9
aI9
aI9
aI8
aI0
aI-1
aI-2
aI-3
aI-5
aI-6
aI-7
aI-8
aI-8
aI-8
aI-7
aI-6
aI-5
asS'pressure'
p3
(lp4
F0.34326171875
aF0.423828125
aF0.4775390625
aF0.49755859375
aF0.5087890625
aF0.53369140625
aF0.54833984375
aF0.55712890625
aF0.56689453125
aF0.576171875
aF0.57470703125
aF0.57177734375
aF0.55712890625
aF0.546875
aF0.5439453125
aF0.53515625
aF0.5380859375
aF0.5380859375
aF0.5341796875
aF0.52685546875
aF0.51953125
aF0.52099609375
aF0.52734375
aF0.52734375
aF0.517578125
aF0.51123046875
aF0.5029296875
aF0.4677734375
aF0.36962890625
aF0.0224609375
aF0.43798828125
aF0.41845703125
aF0.48974609375
aF0.52880859375
aF0.54736328125
aF0.5498046875
aF0.546875
aF0.5283203125
aF0.49951171875
aF0.46533203125
aF0.3583984375
aF0.02978515625
aF0.0
asS'x_tilt'
p5
(lp6
I14
aI14
aI14
aI14
aI13
aI13
aI13
aI13
aI13
aI14
aI14
aI14
aI14
aI15
aI15
aI16
aI16
aI17
aI17
aI18
aI18
aI17
aI17
aI17
aI16
aI16
aI15
aI15
aI15
aI14
aI13
aI14
aI14
aI13
aI13
aI13
aI12
aI11
aI10
aI10
aI9
aI8
aI8
asS'time'
p7
(lp8
I322
aI342
aI358
aI373
aI388
aI404
aI420
aI436
aI452
aI468
aI484
aI500
aI517
aI533
aI533
aI550
aI566
aI583
aI600
aI617
aI633
aI650
aI667
aI683
aI700
aI717
aI733
aI750
aI767
aI784
aI1065
aI1103
aI1124
aI1140
aI1156
aI1172
aI1188
aI1204
aI1220
aI1236
aI1252
aI1268
aI1284
asS'y'
p9
(lp10
F378.2238464355469
aF382.89691162109375
aF397.04681396484375
aF420.9349670410156
aF436.0325622558594
aF457.3717956542969
aF476.3254699707031
aF493.2530517578125
aF508.54669189453125
aF520.997314453125
aF530.6702270507812
aF536.454345703125
aF536.7157592773438
aF531.7485961914062
aF529.3303833007812
aF519.9515991210938
aF506.78204345703125
aF489.82177734375
aF469.7243347167969
aF447.176025390625
aF423.4839172363281
aF402.0466613769531
aF385.44586181640625
aF370.0541687011719
aF363.9759216308594
aF362.6033935546875
aF364.923583984375
aF370.4789733886719
aF380.5113525390625
aF394.49786376953125
aF474.1686706542969
aF489.9198303222656
aF510.2460021972656
aF523.9384155273438
aF536.7157592773438
aF545.4083251953125
aF548.1206665039062
aF543.545654296875
aF532.3695068359375
aF522.5658569335938
aF505.8343811035156
aF487.2728271484375
aF482.5997619628906
asS'x'
p11
(lp12
F4551.16064453125
aF4555.7353515625
aF4565.47412109375
aF4576.51953125
aF4581.29052734375
aF4584.91796875
aF4584.91796875
aF4581.388671875
aF4574.7548828125
aF4564.91845703125
aF4551.45458984375
aF4534.853515625
aF4515.5400390625
aF4494.658203125
aF4487.7626953125
aF4467.861328125
aF4451.3583984375
aF4439.85498046875
aF4434.2998046875
aF4435.83544921875
aF4443.87451171875
aF4456.7177734375
aF4472.5341796875
aF4493.08935546875
aF4507.5009765625
aF4522.14111328125
aF4536.52001953125
aF4551.19287109375
aF4566.06201171875
aF4579.4931640625
aF4570.27783203125
aF4572.82666015625
aF4581.06201171875
aF4589.1337890625
aF4599.296875
aF4611.02880859375
aF4624.06787109375
aF4639.361328125
aF4656.64892578125
aF4668.70751953125
aF4688.11865234375
aF4707.56298828125
aF4712.236328125
as.