(dp0
S'y_tilt'
p1
(lp2
I11
aI11
aI11
aI11
aI10
aI10
aI9
aI8
aI7
aI6
aI5
aI4
aI3
aI3
aI2
aI1
aI1
aI1
aI1
aI1
aI1
aI1
aI1
aI1
aI2
aI3
aI3
aI4
aI4
aI4
aI4
aI4
aI5
aI12
aI14
aI14
aI14
aI15
aI15
aI16
aI16
aI16
aI16
aI15
aI15
aI15
aI14
aI13
aI13
aI13
aI12
aI12
aI11
aI10
aI10
aI9
aI8
aI7
aI7
aI6
aI5
aI5
aI5
aI5
aI5
aI5
aI5
aI5
aI5
aI5
aI5
aI8
aI8
aI8
aI8
aI7
aI7
aI7
aI6
aI6
aI5
aI5
aI5
aI5
aI5
aI5
aI5
aI5
aI5
aI6
aI6
aI6
aI7
asS'pressure'
p3
(lp4
F0.35498046875
aF0.45361328125
aF0.5068359375
aF0.5478515625
aF0.57421875
aF0.595703125
aF0.60986328125
aF0.6171875
aF0.62060546875
aF0.62255859375
aF0.6298828125
aF0.63916015625
aF0.65234375
aF0.65625
aF0.6591796875
aF0.673828125
aF0.68017578125
aF0.68701171875
aF0.69384765625
aF0.701171875
aF0.71142578125
aF0.71728515625
aF0.72119140625
aF0.72509765625
aF0.7255859375
aF0.7275390625
aF0.72802734375
aF0.72998046875
aF0.7353515625
aF0.73974609375
aF0.70751953125
aF0.6240234375
aF0.033203125
aF0.373046875
aF0.4658203125
aF0.5068359375
aF0.52734375
aF0.55078125
aF0.55908203125
aF0.572265625
aF0.580078125
aF0.59033203125
aF0.59912109375
aF0.6015625
aF0.60693359375
aF0.6123046875
aF0.61376953125
aF0.61376953125
aF0.61376953125
aF0.61572265625
aF0.61572265625
aF0.619140625
aF0.61962890625
aF0.6201171875
aF0.61669921875
aF0.6171875
aF0.6171875
aF0.61865234375
aF0.62060546875
aF0.62353515625
aF0.62939453125
aF0.6357421875
aF0.6376953125
aF0.6396484375
aF0.6435546875
aF0.6455078125
aF0.64794921875
aF0.64990234375
aF0.63916015625
aF0.57958984375
aF0.275390625
aF0.29638671875
aF0.34375
aF0.38818359375
aF0.43994140625
aF0.4765625
aF0.5126953125
aF0.54248046875
aF0.5625
aF0.5810546875
aF0.6025390625
aF0.61328125
aF0.61865234375
aF0.6259765625
aF0.6337890625
aF0.638671875
aF0.64306640625
aF0.64453125
aF0.6484375
aF0.654296875
aF0.65380859375
aF0.61572265625
aF0.380859375
asS'x_tilt'
p5
(lp6
I19
aI19
aI19
aI19
aI19
aI19
aI19
aI19
aI19
aI19
aI19
aI19
aI19
aI19
aI19
aI19
aI20
aI20
aI20
aI20
aI19
aI19
aI18
aI17
aI17
aI16
aI15
aI15
aI15
aI15
aI14
aI14
aI14
aI17
aI17
aI17
aI17
aI17
aI17
aI17
aI18
aI18
aI19
aI19
aI19
aI20
aI20
aI21
aI21
aI21
aI21
aI21
aI21
aI21
aI21
aI21
aI21
aI21
aI21
aI21
aI21
aI21
aI21
aI21
aI20
aI20
aI20
aI20
aI20
aI20
aI20
aI14
aI14
aI14
aI14
aI14
aI14
aI14
aI14
aI14
aI15
aI15
aI15
aI15
aI16
aI16
aI16
aI16
aI17
aI17
aI18
aI18
aI19
asS'time'
p7
(lp8
I636
aI653
aI670
aI685
aI701
aI718
aI734
aI751
aI767
aI783
aI800
aI817
aI834
aI850
aI867
aI884
aI900
aI917
aI934
aI950
aI967
aI984
aI1000
aI1017
aI1034
aI1050
aI1067
aI1084
aI1100
aI1118
aI1134
aI1151
aI1168
aI1581
aI1621
aI1640
aI1655
aI1671
aI1687
aI1703
aI1719
aI1735
aI1753
aI1768
aI1784
aI1801
aI1818
aI1834
aI1851
aI1868
aI1884
aI1901
aI1918
aI1935
aI1951
aI1968
aI1984
aI2001
aI2018
aI2034
aI2051
aI2068
aI2085
aI2101
aI2118
aI2135
aI2152
aI2168
aI2185
aI2201
aI2218
aI2739
aI2759
aI2777
aI2795
aI2810
aI2826
aI2842
aI2858
aI2874
aI2890
aI2906
aI2922
aI2938
aI2954
aI2970
aI2987
aI3003
aI3020
aI3037
aI3053
aI3070
aI3087
asS'y'
p9
(lp10
F371.2305908203125
aF373.8775634765625
aF377.766357421875
aF383.9099426269531
aF395.445556640625
aF412.40582275390625
aF428.1896667480469
aF443.0585021972656
aF458.5155334472656
aF473.02490234375
aF485.99835205078125
aF497.07647705078125
aF503.08935546875
aF506.9454345703125
aF511.87994384765625
aF516.2589111328125
aF517.1738891601562
aF515.5726318359375
aF511.0629577636719
aF505.24615478515625
aF497.7627258300781
aF489.3642883300781
aF481.42333984375
aF475.018310546875
aF469.5282897949219
aF467.89434814453125
aF466.8486328125
aF465.5087890625
aF464.69183349609375
aF464.3650207519531
aF464.1036071777344
aF463.4826965332031
aF462.0121765136719
aF375.3481140136719
aF370.1521911621094
aF365.2503967285156
aF363.2569885253906
aF363.87786865234375
aF367.145751953125
aF372.40704345703125
aF379.4329528808594
aF388.158203125
aF401.621826171875
aF411.6542053222656
aF417.1769104003906
aF421.0983581542969
aF427.0132141113281
aF433.5816650390625
aF440.7709655761719
aF448.7119140625
aF456.5874938964844
aF464.0382385253906
aF477.1097412109375
aF493.80859375
aF507.23956298828125
aF511.1936950683594
aF514.4288940429688
aF518.7424926757812
aF522.6965942382812
aF526.4546508789062
aF530.1146850585938
aF530.9970092773438
aF530.702880859375
aF529.853271484375
aF529.2977294921875
aF529.0689697265625
aF529.0689697265625
aF529.0362548828125
aF528.8728637695312
aF528.513427734375
aF527.9252319335938
aF466.32574462890625
aF466.7178955078125
aF468.31915283203125
aF471.09686279296875
aF475.671875
aF482.2076416015625
aF490.279296875
aF499.0372009277344
aF507.99114990234375
aF518.6117553710938
aF527.5657348632812
aF532.7616577148438
aF535.80078125
aF536.9445190429688
aF536.25830078125
aF533.9053955078125
aF531.160400390625
aF529.3303833007812
aF528.6441040039062
aF528.28466796875
aF527.598388671875
aF526.09521484375
asS'x'
p11
(lp12
F4683.02099609375
aF4682.23681640625
aF4681.158203125
aF4679.6220703125
aF4676.7138671875
aF4672.498046875
aF4668.740234375
aF4665.24365234375
aF4662.36767578125
aF4660.9296875
aF4660.5048828125
aF4660.5703125
aF4661.15869140625
aF4662.2041015625
aF4664.361328125
aF4669.94921875
aF4677.66162109375
aF4691.6484375
aF4707.7919921875
aF4722.49755859375
aF4738.7060546875
aF4756.451171875
aF4774.947265625
aF4791.646484375
aF4809.88134765625
aF4816.384765625
aF4820.30615234375
aF4825.10986328125
aF4828.05126953125
aF4828.90087890625
aF4828.77001953125
aF4827.69189453125
aF4824.03173828125
aF4652.43310546875
aF4648.3154296875
aF4638.15234375
aF4627.564453125
aF4608.67578125
aF4591.51904296875
aF4573.87255859375
aF4555.669921875
aF4537.3046875
aF4514.88671875
aF4501.0634765625
aF4494.298828125
aF4489.91943359375
aF4483.71044921875
aF4477.828125
aF4472.861328125
aF4468.61279296875
aF4465.14892578125
aF4462.53466796875
aF4459.9853515625
aF4459.43017578125
aF4460.671875
aF4461.880859375
aF4463.61279296875
aF4466.8154296875
aF4471.3251953125
aF4477.14208984375
aF4486.16162109375
aF4492.697265625
aF4498.546875
aF4503.90625
aF4509.23291015625
aF4514.52685546875
aF4519.494140625
aF4523.48095703125
aF4525.8994140625
aF4526.7490234375
aF4526.095703125
aF4658.90380859375
aF4658.380859375
aF4657.171875
aF4655.53759765625
aF4653.05419921875
aF4649.10009765625
aF4643.31591796875
aF4635.734375
aF4626.5185546875
aF4613.185546875
aF4597.69580078125
aF4584.72216796875
aF4573.21875
aF4561.45458984375
aF4549.33056640625
aF4537.40234375
aF4525.6708984375
aF4514.36376953125
aF4506.6513671875
aF4502.2724609375
aF4496.2265625
aF4486.48828125
as.