(dp0
S'y_tilt'
p1
(lp2
I2
aI1
aI1
aI0
aI0
aI0
aI-1
aI-3
aI-4
aI-5
aI-6
aI-7
aI-7
aI-7
aI-6
aI-6
aI-5
aI-5
aI-4
aI2
aI2
aI2
aI2
aI2
aI2
aI2
aI2
aI1
aI0
aI0
aI0
aI-1
aI-2
aI-2
aI-3
aI-3
aI-3
aI-3
aI-3
aI-2
aI-1
aI-1
aI0
aI0
aI1
aI2
aI3
aI3
aI4
aI4
aI4
asS'pressure'
p3
(lp4
F0.4296875
aF0.4365234375
aF0.4853515625
aF0.53857421875
aF0.5537109375
aF0.58056640625
aF0.59228515625
aF0.6025390625
aF0.60791015625
aF0.6044921875
aF0.60205078125
aF0.6064453125
aF0.611328125
aF0.61328125
aF0.611328125
aF0.59130859375
aF0.55517578125
aF0.45263671875
aF0.02685546875
aF0.35302734375
aF0.41015625
aF0.42724609375
aF0.42431640625
aF0.4560546875
aF0.494140625
aF0.52197265625
aF0.5361328125
aF0.54638671875
aF0.552734375
aF0.5576171875
aF0.5634765625
aF0.57177734375
aF0.5849609375
aF0.59228515625
aF0.59423828125
aF0.59521484375
aF0.59326171875
aF0.5927734375
aF0.58740234375
aF0.58447265625
aF0.58447265625
aF0.58447265625
aF0.58447265625
aF0.58447265625
aF0.578125
aF0.5634765625
aF0.55029296875
aF0.5341796875
aF0.48486328125
aF0.44580078125
aF0.0400390625
asS'x_tilt'
p5
(lp6
I20
aI20
aI20
aI20
aI20
aI20
aI20
aI20
aI20
aI20
aI20
aI19
aI19
aI18
aI17
aI16
aI15
aI15
aI15
aI16
aI17
aI17
aI16
aI16
aI16
aI16
aI16
aI16
aI16
aI16
aI16
aI16
aI16
aI16
aI16
aI16
aI16
aI16
aI17
aI17
aI17
aI17
aI17
aI16
aI16
aI16
aI15
aI15
aI15
aI15
aI15
asS'time'
p7
(lp8
I453
aI472
aI493
aI512
aI529
aI529
aI547
aI564
aI581
aI598
aI615
aI632
aI649
aI666
aI683
aI700
aI717
aI734
aI751
aI926
aI1044
aI1063
aI1082
aI1099
aI1116
aI1133
aI1150
aI1167
aI1183
aI1199
aI1216
aI1233
aI1250
aI1267
aI1284
aI1302
aI1319
aI1336
aI1353
aI1370
aI1387
aI1404
aI1404
aI1421
aI1438
aI1454
aI1471
aI1488
aI1504
aI1521
aI1521
asS'y'
p9
(lp10
F399.0729064941406
aF400.5107421875
aF410.2490234375
aF427.99359130859375
aF434.07183837890625
aF450.4765625
aF466.7178955078125
aF480.47564697265625
aF491.2923278808594
aF497.109130859375
aF504.5925598144531
aF502.5011291503906
aF494.462158203125
aF485.6062316894531
aF479.1031494140625
aF475.50848388671875
aF474.6588439941406
aF473.41705322265625
aF471.09686279296875
aF428.6798400878906
aF413.7456359863281
aF412.3404541015625
aF409.85687255859375
aF407.2425842285156
aF406.32757568359375
aF408.87652587890625
aF416.1311950683594
aF435.9671936035156
aF451.7837219238281
aF465.2146911621094
aF478.61297607421875
aF491.5210876464844
aF502.8279113769531
aF511.1936950683594
aF516.0628051757812
aF516.32421875
aF511.8145751953125
aF502.7298889160156
aF490.050537109375
aF475.9986572265625
aF461.2932434082031
aF455.999267578125
aF439.59454345703125
aF424.4969482421875
aF411.19671630859375
aF400.739501953125
aF394.5959167480469
aF393.680908203125
aF397.210205078125
aF398.6153869628906
aF408.5170593261719
asS'x'
p11
(lp12
F4622.7607421875
aF4622.6953125
aF4620.603515625
aF4617.2705078125
aF4616.224609375
aF4613.77392578125
aF4612.04150390625
aF4611.45361328125
aF4612.9892578125
aF4615.734375
aF4629.78662109375
aF4649.68798828125
aF4669.62255859375
aF4689.78564453125
aF4705.92919921875
aF4715.89599609375
aF4718.54296875
aF4720.30810546875
aF4717.00732421875
aF4576.84619140625
aF4572.990234375
aF4574.689453125
aF4576.48681640625
aF4579.427734375
aF4583.25146484375
aF4587.369140625
aF4592.14013671875
aF4598.97021484375
aF4599.46044921875
aF4595.8330078125
aF4588.25146484375
aF4577.1728515625
aF4563.74169921875
aF4548.0234375
aF4530.93212890625
aF4506.9453125
aF4489.56005859375
aF4474.26611328125
aF4462.6650390625
aF4457.04443359375
aF4458.74365234375
aF4460.900390625
aF4471.48876953125
aF4486.32470703125
aF4503.51416015625
aF4523.0234375
aF4542.01025390625
aF4558.64404296875
aF4569.3955078125
aF4571.25830078125
aF4576.9443359375
as.