(dp0
S'y_tilt'
p1
(lp2
I4
aI4
aI4
aI4
aI4
aI4
aI4
aI3
aI3
aI2
aI1
aI0
aI-1
aI-1
aI-2
aI-4
aI-4
aI-5
aI-5
aI-5
aI-4
aI-4
aI-3
aI-2
aI-1
aI0
aI0
aI1
aI1
aI1
aI1
aI1
aI1
aI0
aI0
aI-1
aI-2
aI-4
aI-5
aI-6
aI-7
aI-8
aI-8
aI-9
aI-10
aI-9
aI-9
aI-8
asS'pressure'
p3
(lp4
F0.34375
aF0.3818359375
aF0.412109375
aF0.44921875
aF0.4599609375
aF0.46435546875
aF0.46728515625
aF0.47119140625
aF0.4716796875
aF0.47265625
aF0.48046875
aF0.48486328125
aF0.48681640625
aF0.48486328125
aF0.4765625
aF0.451171875
aF0.435546875
aF0.4267578125
aF0.42822265625
aF0.43212890625
aF0.43505859375
aF0.43017578125
aF0.42041015625
aF0.41796875
aF0.41064453125
aF0.4013671875
aF0.396484375
aF0.40625
aF0.41357421875
aF0.41796875
aF0.40869140625
aF0.4189453125
aF0.43408203125
aF0.46142578125
aF0.484375
aF0.5068359375
aF0.5185546875
aF0.5263671875
aF0.525390625
aF0.52392578125
aF0.5263671875
aF0.5283203125
aF0.5283203125
aF0.5263671875
aF0.52587890625
aF0.5068359375
aF0.4404296875
aF0.16455078125
asS'x_tilt'
p5
(lp6
I22
aI23
aI23
aI24
aI25
aI25
aI26
aI26
aI26
aI26
aI26
aI26
aI26
aI26
aI25
aI24
aI23
aI23
aI22
aI22
aI22
aI22
aI22
aI22
aI22
aI22
aI23
aI23
aI23
aI23
aI23
aI23
aI23
aI23
aI23
aI23
aI23
aI23
aI22
aI22
aI22
aI21
aI21
aI21
aI20
aI19
aI19
aI18
asS'time'
p7
(lp8
I394
aI413
aI432
aI451
aI468
aI485
aI503
aI521
aI538
aI556
aI573
aI590
aI606
aI624
aI641
aI658
aI676
aI693
aI710
aI728
aI745
aI764
aI782
aI800
aI817
aI834
aI851
aI868
aI886
aI902
aI919
aI936
aI954
aI971
aI988
aI1005
aI1022
aI1039
aI1055
aI1071
aI1088
aI1105
aI1121
aI1138
aI1156
aI1172
aI1189
aI1206
asS'y'
p9
(lp10
F475.73724365234375
aF478.0901184082031
aF481.8481750488281
aF491.16162109375
aF501.2266540527344
aF512.6642456054688
aF529.6571655273438
aF544.3626098632812
aF559.460205078125
aF575.342041015625
aF598.119140625
aF614.2297973632812
aF627.8568115234375
aF637.3663330078125
aF643.8040771484375
aF648.6405029296875
aF648.2483520507812
aF643.1504516601562
aF631.6148681640625
aF609.0992431640625
aF592.3023681640625
aF576.714599609375
aF556.8458862304688
aF540.7352905273438
aF523.6769409179688
aF508.9061584472656
aF501.32470703125
aF498.448974609375
aF495.8673400878906
aF495.3771667480469
aF495.9000244140625
aF500.4750671386719
aF512.7295532226562
aF531.0296630859375
aF548.414794921875
aF566.32275390625
aF584.655517578125
aF607.3345336914062
aF619.6217651367188
aF625.994140625
aF631.8762817382812
aF639.26171875
aF640.8629760742188
aF638.150634765625
aF630.9286499023438
aF614.94873046875
aF599.655029296875
aF583.6098022460938
asS'x'
p11
(lp12
F4579.95068359375
aF4559.951171875
aF4542.36962890625
aF4520.474609375
aF4505.8017578125
aF4493.44921875
aF4481.48828125
aF4475.80224609375
aF4473.18798828125
aF4473.67822265625
aF4478.939453125
aF4486.09619140625
aF4495.40966796875
aF4506.91259765625
aF4520.63818359375
aF4540.31103515625
aF4554.72265625
aF4567.82666015625
aF4578.87255859375
aF4592.07470703125
aF4600.4404296875
aF4606.74755859375
aF4612.4013671875
aF4615.04833984375
aF4616.224609375
aF4616.35546875
aF4616.4208984375
aF4616.35546875
aF4616.12646484375
aF4615.96337890625
aF4615.83251953125
aF4616.583984375
aF4618.2509765625
aF4619.6884765625
aF4620.11328125
aF4620.015625
aF4620.244140625
aF4623.4794921875
aF4627.79296875
aF4631.8125
aF4637.923828125
aF4651.91015625
aF4667.30224609375
aF4681.97509765625
aF4698.11865234375
aF4720.96142578125
aF4737.7587890625
aF4753.3466796875
as.