(dp0
S'y_tilt'
p1
(lp2
I8
aI8
aI9
aI9
aI9
aI9
aI9
aI9
aI9
aI9
aI8
aI8
aI7
aI6
aI4
aI3
aI2
aI0
aI-1
aI-2
aI-3
aI-4
aI-5
aI-6
aI-6
aI-7
aI-7
aI-7
aI-7
aI-7
aI-7
aI-6
aI-5
aI-5
aI-4
aI-3
aI-2
aI-2
aI-1
aI0
aI0
aI0
aI1
aI2
aI2
aI2
aI3
aI3
aI3
aI3
aI3
aI4
aI4
aI5
aI5
aI5
aI5
aI5
aI4
aI3
aI2
aI1
aI0
aI0
aI-1
aI-2
aI-3
aI-3
aI-4
aI-4
aI-5
aI-5
aI-5
aI-4
aI-4
aI-3
aI-2
aI-1
aI0
aI0
asS'pressure'
p3
(lp4
F0.47802734375
aF0.529296875
aF0.5673828125
aF0.603515625
aF0.6240234375
aF0.63427734375
aF0.642578125
aF0.65673828125
aF0.66064453125
aF0.6650390625
aF0.66748046875
aF0.66943359375
aF0.671875
aF0.67431640625
aF0.67626953125
aF0.685546875
aF0.6884765625
aF0.6875
aF0.68603515625
aF0.68017578125
aF0.67578125
aF0.67138671875
aF0.66455078125
aF0.66259765625
aF0.662109375
aF0.66259765625
aF0.6630859375
aF0.6650390625
aF0.6669921875
aF0.66748046875
aF0.66943359375
aF0.67041015625
aF0.67529296875
aF0.67919921875
aF0.681640625
aF0.68408203125
aF0.69091796875
aF0.705078125
aF0.7177734375
aF0.7265625
aF0.73095703125
aF0.74072265625
aF0.7451171875
aF0.75
aF0.75439453125
aF0.759765625
aF0.763671875
aF0.76611328125
aF0.76611328125
aF0.76708984375
aF0.76708984375
aF0.7685546875
aF0.76953125
aF0.771484375
aF0.77392578125
aF0.7763671875
aF0.77734375
aF0.77783203125
aF0.7783203125
aF0.77880859375
aF0.77880859375
aF0.779296875
aF0.779296875
aF0.77734375
aF0.7783203125
aF0.77880859375
aF0.77783203125
aF0.77294921875
aF0.7685546875
aF0.7646484375
aF0.76123046875
aF0.7587890625
aF0.7578125
aF0.76220703125
aF0.76025390625
aF0.75341796875
aF0.7353515625
aF0.6943359375
aF0.56591796875
aF0.1416015625
asS'x_tilt'
p5
(lp6
I14
aI14
aI14
aI15
aI15
aI15
aI15
aI16
aI16
aI17
aI17
aI17
aI18
aI18
aI19
aI20
aI20
aI20
aI20
aI20
aI20
aI19
aI19
aI19
aI19
aI19
aI19
aI18
aI18
aI18
aI17
aI17
aI17
aI17
aI17
aI16
aI16
aI16
aI16
aI16
aI15
aI15
aI15
aI15
aI15
aI15
aI15
aI15
aI15
aI15
aI15
aI14
aI14
aI14
aI14
aI14
aI14
aI14
aI15
aI15
aI15
aI16
aI17
aI18
aI18
aI19
aI20
aI20
aI20
aI20
aI20
aI20
aI19
aI18
aI17
aI15
aI13
aI11
aI8
aI5
asS'time'
p7
(lp8
I366
aI384
aI401
aI417
aI432
aI448
aI464
aI479
aI494
aI510
aI525
aI540
aI555
aI570
aI586
aI602
aI618
aI635
aI651
aI667
aI684
aI699
aI714
aI729
aI744
aI759
aI774
aI789
aI804
aI820
aI836
aI852
aI868
aI884
aI900
aI915
aI930
aI945
aI960
aI975
aI990
aI1005
aI1020
aI1036
aI1052
aI1069
aI1085
aI1101
aI1117
aI1132
aI1148
aI1163
aI1178
aI1193
aI1209
aI1224
aI1239
aI1254
aI1270
aI1286
aI1303
aI1319
aI1335
aI1352
aI1368
aI1384
aI1401
aI1416
aI1432
aI1447
aI1462
aI1478
aI1493
aI1509
aI1524
aI1539
aI1554
aI1570
aI1586
aI1602
asS'y'
p9
(lp10
F328.2580261230469
aF323.2581787109375
aF319.5981750488281
aF318.0622863769531
aF319.1080017089844
aF324.10784912109375
aF333.78076171875
aF346.8849182128906
aF362.7014465332031
aF381.9165344238281
aF404.5302429199219
aF422.14410400390625
aF451.6203308105469
aF483.5474548339844
aF516.6183471679688
aF550.636962890625
aF585.4398193359375
aF618.2819213867188
aF647.1372680664062
aF672.1038208007812
aF691.9398193359375
aF707.4622802734375
aF718.376953125
aF722.559814453125
aF721.6121215820312
aF715.6973266601562
aF705.1747436523438
aF691.3516235351562
aF674.58740234375
aF655.7644653320312
aF635.5363159179688
aF613.0206909179688
aF587.9234008789062
aF561.1268310546875
aF534.1668701171875
aF516.9778442382812
aF492.7955322265625
aF470.31256103515625
aF447.9602966308594
aF425.510009765625
aF410.5758056640625
aF390.6091003417969
aF375.0867004394531
aF366.42681884765625
aF362.3746643066406
aF357.5708923339844
aF353.0939025878906
aF350.83905029296875
aF350.0220947265625
aF349.8913879394531
aF350.51226806640625
aF351.6560363769531
aF352.5383605957031
aF354.36834716796875
aF359.0414123535156
aF372.7665100097656
aF395.7396545410156
aF419.4317626953125
aF445.607421875
aF475.18170166015625
aF508.0892028808594
aF543.8724365234375
aF580.7340698242188
aF616.3865966796875
aF649.1306762695312
aF678.1167602539062
aF704.1943969726562
aF727.8538208007812
aF747.2649536132812
aF761.5455932617188
aF767.5911254882812
aF769.5192260742188
aF762.6566772460938
aF748.1472778320312
aF731.18701171875
aF715.7626342773438
aF700.3709716796875
aF686.123046875
aF672.1038208007812
aF657.2023315429688
asS'x'
p11
(lp12
F4600.865234375
aF4587.56494140625
aF4572.23828125
aF4552.85986328125
aF4529.0693359375
aF4500.6708984375
aF4469.16845703125
aF4436.4892578125
aF4404.46337890625
aF4374.169921875
aF4345.28173828125
aF4326.556640625
aF4299.75927734375
aF4276.19775390625
aF4256.75390625
aF4243.3876953125
aF4236.65576171875
aF4236.23095703125
aF4242.01513671875
aF4253.61669921875
aF4270.0869140625
aF4289.2041015625
aF4310.90283203125
aF4333.58251953125
aF4349.66064453125
aF4374.8564453125
aF4400.01904296875
aF4423.90771484375
aF4447.10986328125
aF4469.10302734375
aF4490.31201171875
aF4510.14794921875
aF4529.23291015625
aF4546.421875
aF4561.81396484375
aF4570.57177734375
aF4581.1923828125
aF4590.37548828125
aF4599.2314453125
aF4607.92431640625
aF4613.3818359375
aF4620.7998046875
aF4626.12646484375
aF4628.25048828125
aF4628.642578125
aF4628.7080078125
aF4628.4140625
aF4627.89111328125
aF4627.59716796875
aF4627.4990234375
aF4627.40087890625
aF4627.205078125
aF4626.97607421875
aF4626.61669921875
aF4625.865234375
aF4623.544921875
aF4618.6103515625
aF4612.826171875
aF4605.47314453125
aF4596.45361328125
aF4586.1923828125
aF4575.9638671875
aF4566.74853515625
aF4559.72216796875
aF4556.552734375
aF4558.3173828125
aF4564.00341796875
aF4572.69580078125
aF4584.19921875
aF4600.2119140625
aF4613.544921875
aF4638.11962890625
aF4669.2958984375
aF4707.10546875
aF4748.640625
aF4790.666015625
aF4831.15576171875
aF4867.69091796875
aF4896.90625
aF4915.92529296875
as.