(dp0
S'y_tilt'
p1
(lp2
I3
aI3
aI4
aI4
aI4
aI5
aI4
aI4
aI4
aI3
aI3
aI2
aI1
aI0
aI0
aI-1
aI-2
aI-3
aI-4
aI-4
aI-5
aI-5
aI-5
aI-4
aI-3
aI-2
aI-1
aI0
aI0
aI1
aI2
aI3
aI3
aI3
aI3
aI3
aI2
aI1
aI0
aI-1
aI-3
aI-4
aI-5
aI-6
aI-7
aI-8
aI-9
aI-9
aI-9
aI-8
asS'pressure'
p3
(lp4
F0.30810546875
aF0.3251953125
aF0.3828125
aF0.421875
aF0.45068359375
aF0.46044921875
aF0.46240234375
aF0.4658203125
aF0.47412109375
aF0.47412109375
aF0.4716796875
aF0.47021484375
aF0.47412109375
aF0.4765625
aF0.4814453125
aF0.47705078125
aF0.47314453125
aF0.4716796875
aF0.4736328125
aF0.4755859375
aF0.4765625
aF0.4775390625
aF0.47802734375
aF0.47412109375
aF0.46875
aF0.46875
aF0.4638671875
aF0.46142578125
aF0.46044921875
aF0.45751953125
aF0.462890625
aF0.47216796875
aF0.47314453125
aF0.47119140625
aF0.4775390625
aF0.48193359375
aF0.4951171875
aF0.52001953125
aF0.53759765625
aF0.5537109375
aF0.5712890625
aF0.57421875
aF0.57470703125
aF0.56884765625
aF0.56591796875
aF0.56298828125
aF0.5576171875
aF0.53662109375
aF0.47412109375
aF0.1845703125
asS'x_tilt'
p5
(lp6
I23
aI23
aI23
aI23
aI24
aI24
aI25
aI25
aI26
aI26
aI26
aI26
aI27
aI27
aI27
aI26
aI26
aI25
aI24
aI24
aI23
aI22
aI22
aI22
aI22
aI22
aI22
aI22
aI23
aI23
aI23
aI23
aI24
aI24
aI24
aI24
aI24
aI24
aI23
aI23
aI22
aI22
aI22
aI21
aI20
aI20
aI19
aI19
aI18
aI18
asS'time'
p7
(lp8
I345
aI362
aI381
aI398
aI416
aI433
aI452
aI468
aI486
aI503
aI520
aI537
aI554
aI571
aI587
aI604
aI621
aI637
aI654
aI670
aI688
aI705
aI722
aI739
aI756
aI773
aI790
aI807
aI823
aI839
aI856
aI873
aI890
aI907
aI924
aI941
aI958
aI975
aI992
aI1009
aI1026
aI1043
aI1060
aI1077
aI1093
aI1110
aI1127
aI1144
aI1161
aI1178
asS'y'
p9
(lp10
F462.1755676269531
aF460.5089416503906
aF460.3128662109375
aF461.35858154296875
aF465.8682556152344
aF472.30596923828125
aF481.42333984375
aF497.8934326171875
aF511.65118408203125
aF526.2586059570312
aF543.9050903320312
aF562.7280883789062
aF587.0410766601562
aF603.44580078125
aF617.4649658203125
aF629.4580688476562
aF637.6277465820312
aF641.48388671875
aF641.5165405273438
aF637.1702880859375
aF622.5955200195312
aF605.9947509765625
aF585.1783447265625
aF562.30322265625
aF539.6568603515625
aF519.6248168945312
aF497.991455078125
aF484.69122314453125
aF475.0836486816406
aF470.5086364746094
aF466.9466552734375
aF463.35198974609375
aF462.1101989746094
aF462.56768798828125
aF467.8616638183594
aF481.9461975097656
aF504.5272216796875
aF526.4873657226562
aF549.8199462890625
aF572.6297607421875
aF599.5897216796875
aF614.94873046875
aF625.2424926757812
aF630.2423706054688
aF635.8630981445312
aF633.8696899414062
aF625.0791015625
aF610.2429809570312
aF598.4459228515625
aF583.315673828125
asS'x'
p11
(lp12
F4606.32275390625
aF4595.0810546875
aF4581.6171875
aF4567.3037109375
aF4546.02978515625
aF4530.50732421875
aF4515.44189453125
aF4496.19384765625
aF4484.4296875
aF4474.8544921875
aF4467.82861328125
aF4463.7763671875
aF4463.44970703125
aF4467.6650390625
aF4476.1943359375
aF4488.35107421875
aF4502.7626953125
aF4519.65771484375
aF4536.87939453125
aF4554.19970703125
aF4575.7353515625
aF4588.8720703125
aF4599.65625
aF4607.43408203125
aF4612.04150390625
aF4614.4599609375
aF4616.0615234375
aF4616.583984375
aF4616.6494140625
aF4616.583984375
aF4616.5185546875
aF4616.38818359375
aF4616.2900390625
aF4616.224609375
aF4616.4208984375
aF4617.59716796875
aF4618.9697265625
aF4619.98291015625
aF4621.25732421875
aF4623.25048828125
aF4627.66259765625
aF4632.33544921875
aF4637.5966796875
aF4642.53125
aF4654.982421875
aF4671.32177734375
aF4687.75927734375
aF4711.1904296875
aF4728.8046875
aF4745.56884765625
as.