(dp0
S'y_tilt'
p1
(lp2
I3
aI3
aI3
aI3
aI3
aI3
aI4
aI4
aI4
aI3
aI2
aI1
aI0
aI0
aI-2
aI-3
aI-4
aI-4
aI-5
aI-6
aI-6
aI-5
aI-4
aI-3
aI-1
aI0
aI0
aI1
aI2
aI2
aI3
aI3
aI3
aI3
aI2
aI1
aI0
aI-1
aI-3
aI-5
aI-6
aI-8
aI-9
aI-9
aI-10
aI-11
aI-10
aI-9
asS'pressure'
p3
(lp4
F0.40771484375
aF0.43701171875
aF0.44873046875
aF0.4658203125
aF0.474609375
aF0.48046875
aF0.4853515625
aF0.4873046875
aF0.49169921875
aF0.49365234375
aF0.494140625
aF0.494140625
aF0.490234375
aF0.4873046875
aF0.48681640625
aF0.4833984375
aF0.4755859375
aF0.47216796875
aF0.47216796875
aF0.47216796875
aF0.4697265625
aF0.4609375
aF0.4599609375
aF0.45947265625
aF0.458984375
aF0.46142578125
aF0.4658203125
aF0.4677734375
aF0.47607421875
aF0.48828125
aF0.48583984375
aF0.49267578125
aF0.5
aF0.50732421875
aF0.52099609375
aF0.53759765625
aF0.5556640625
aF0.568359375
aF0.578125
aF0.5791015625
aF0.57861328125
aF0.57470703125
aF0.57177734375
aF0.564453125
aF0.56298828125
aF0.5419921875
aF0.48828125
aF0.03857421875
asS'x_tilt'
p5
(lp6
I24
aI24
aI24
aI24
aI24
aI24
aI24
aI25
aI25
aI26
aI26
aI26
aI26
aI26
aI26
aI25
aI25
aI24
aI24
aI23
aI23
aI23
aI23
aI23
aI23
aI23
aI23
aI23
aI23
aI23
aI23
aI23
aI23
aI23
aI23
aI23
aI23
aI23
aI23
aI23
aI22
aI21
aI21
aI20
aI20
aI20
aI19
aI19
asS'time'
p7
(lp8
I259
aI278
aI294
aI309
aI325
aI325
aI341
aI357
aI373
aI389
aI405
aI420
aI436
aI452
aI468
aI484
aI500
aI516
aI533
aI549
aI566
aI583
aI600
aI616
aI633
aI650
aI666
aI683
aI700
aI716
aI733
aI750
aI767
aI783
aI800
aI817
aI833
aI850
aI867
aI883
aI900
aI917
aI934
aI950
aI967
aI984
aI1000
aI1017
asS'y'
p9
(lp10
F448.4504699707031
aF445.77081298828125
aF446.1629638671875
aF447.99298095703125
aF449.52886962890625
aF454.16925048828125
aF465.01861572265625
aF479.3972473144531
aF497.3705749511719
aF518.1869506835938
aF540.8006591796875
aF563.0548706054688
aF583.4464111328125
aF601.6157836914062
aF616.059814453125
aF626.3535766601562
aF631.2880859375
aF630.3403930664062
aF623.4451904296875
aF610.8638916015625
aF593.2173461914062
aF564.1005859375
aF538.87255859375
aF513.1217041015625
aF490.3446350097656
aF473.41705322265625
aF462.6657409667969
aF457.8619689941406
aF454.16925048828125
aF450.5746154785156
aF449.52886962890625
aF450.8360290527344
aF455.4764099121094
aF468.384521484375
aF487.828369140625
aF506.45526123046875
aF526.6834106445312
aF550.2774658203125
aF581.6490478515625
aF600.7334594726562
aF612.8572998046875
aF621.1576538085938
aF624.7523193359375
aF623.118408203125
aF617.2035522460938
aF607.4652709960938
aF592.4984130859375
aF563.3489379882812
asS'x'
p11
(lp12
F4616.4208984375
aF4593.3818359375
aF4575.01611328125
aF4561.87939453125
aF4555.1474609375
aF4541.71630859375
aF4522.794921875
aF4505.21337890625
aF4490.7041015625
aF4480.18115234375
aF4473.5146484375
aF4471.91357421875
aF4475.37744140625
aF4483.28564453125
aF4494.5927734375
aF4509.037109375
aF4525.73583984375
aF4543.54638671875
aF4561.9443359375
aF4578.97021484375
aF4594.068359375
aF4610.40771484375
aF4619.29638671875
aF4625.63623046875
aF4630.1787109375
aF4633.283203125
aF4634.623046875
aF4634.72119140625
aF4634.72119140625
aF4634.6884765625
aF4634.6884765625
aF4634.78662109375
aF4635.37451171875
aF4636.453125
aF4637.33544921875
aF4637.8583984375
aF4638.4462890625
aF4640.14599609375
aF4645.2109375
aF4651.4853515625
aF4659.4267578125
aF4670.96240234375
aF4684.197265625
aF4698.05322265625
aF4712.3994140625
aF4726.81103515625
aF4739.5234375
aF4754.22900390625
as.