(dp0
S'y_tilt'
p1
(lp2
I6
aI6
aI6
aI7
aI7
aI8
aI9
aI9
aI9
aI8
aI8
aI7
aI6
aI6
aI5
aI4
aI3
aI2
aI1
aI1
aI0
aI0
aI0
aI0
aI0
aI1
aI1
aI2
aI3
aI4
aI5
aI6
aI7
aI8
aI9
aI10
aI10
aI9
aI9
aI8
aI7
aI6
aI4
aI3
aI2
aI0
aI0
aI-1
aI-1
aI-1
aI0
aI0
asS'pressure'
p3
(lp4
F0.33544921875
aF0.3896484375
aF0.431640625
aF0.46240234375
aF0.48486328125
aF0.50146484375
aF0.53125
aF0.537109375
aF0.54736328125
aF0.5654296875
aF0.56982421875
aF0.57958984375
aF0.60302734375
aF0.61669921875
aF0.625
aF0.6318359375
aF0.6376953125
aF0.642578125
aF0.64794921875
aF0.65380859375
aF0.65380859375
aF0.65087890625
aF0.64501953125
aF0.64111328125
aF0.63623046875
aF0.6318359375
aF0.626953125
aF0.61669921875
aF0.60986328125
aF0.60888671875
aF0.60888671875
aF0.6044921875
aF0.599609375
aF0.59228515625
aF0.587890625
aF0.59375
aF0.60205078125
aF0.61181640625
aF0.6220703125
aF0.63525390625
aF0.6484375
aF0.6572265625
aF0.66455078125
aF0.66845703125
aF0.67041015625
aF0.67041015625
aF0.6669921875
aF0.671875
aF0.66943359375
aF0.64404296875
aF0.5849609375
aF0.048828125
asS'x_tilt'
p5
(lp6
I28
aI28
aI28
aI28
aI28
aI28
aI28
aI27
aI27
aI26
aI26
aI26
aI26
aI25
aI24
aI24
aI24
aI24
aI24
aI24
aI24
aI24
aI24
aI25
aI25
aI26
aI26
aI27
aI28
aI28
aI28
aI28
aI28
aI28
aI28
aI28
aI27
aI27
aI27
aI27
aI26
aI26
aI26
aI25
aI25
aI25
aI25
aI24
aI23
aI23
aI22
aI21
asS'time'
p7
(lp8
I1123
aI1141
aI1160
aI1176
aI1193
aI1209
aI1225
aI1242
aI1242
aI1258
aI1275
aI1275
aI1292
aI1308
aI1325
aI1342
aI1358
aI1375
aI1391
aI1409
aI1424
aI1440
aI1455
aI1471
aI1487
aI1504
aI1520
aI1537
aI1554
aI1570
aI1587
aI1603
aI1621
aI1638
aI1655
aI1672
aI1689
aI1706
aI1723
aI1740
aI1757
aI1774
aI1792
aI1809
aI1825
aI1842
aI1860
aI1877
aI1894
aI1911
aI1928
aI1945
asS'y'
p9
(lp10
F448.77728271484375
aF446.8165588378906
aF444.30029296875
aF440.2154235839844
aF435.3463134765625
aF430.9020080566406
aF428.54913330078125
aF428.3530578613281
aF428.87591552734375
aF431.6535949707031
aF433.0914611816406
aF439.9866943359375
aF453.4503173828125
aF470.5086364746094
aF484.2663879394531
aF497.95880126953125
aF511.48779296875
aF523.2521362304688
aF533.8400268554688
aF543.5783081054688
aF551.8460693359375
aF555.1138916015625
aF556.1923217773438
aF554.39501953125
aF550.5062255859375
aF546.84619140625
aF537.9575805664062
aF514.1674194335938
aF496.9130554199219
aF479.429931640625
aF462.69842529296875
aF447.0452880859375
aF438.548828125
aF435.4116516113281
aF431.29412841796875
aF430.803955078125
aF433.908447265625
aF442.8297424316406
aF459.33251953125
aF476.0967102050781
aF496.29217529296875
aF512.174072265625
aF526.4219970703125
aF539.5261840820312
aF549.8199462890625
aF555.5714111328125
aF560.1464233398438
aF561.2575073242188
aF550.7022705078125
aF536.1929321289062
aF521.1280517578125
aF500.6711120605469
asS'x'
p11
(lp12
F4539.19970703125
aF4539.0693359375
aF4539.4287109375
aF4541.09521484375
aF4544.82080078125
aF4550.89892578125
aF4558.7421875
aF4561.5849609375
aF4567.53271484375
aF4576.748046875
aF4579.8525390625
aF4590.17919921875
aF4602.49951171875
aF4611.71484375
aF4615.865234375
aF4617.3359375
aF4616.71484375
aF4614.19873046875
aF4609.75439453125
aF4602.30322265625
aF4589.91796875
aF4580.70263671875
aF4567.990234375
aF4554.00341796875
aF4541.71630859375
aF4535.60498046875
aF4528.775390625
aF4522.95849609375
aF4525.93212890625
aF4532.2392578125
aF4540.08203125
aF4548.4482421875
aF4554.591796875
aF4557.9248046875
aF4564.1015625
aF4569.5263671875
aF4575.76806640625
aF4585.408203125
aF4597.92431640625
aF4606.35546875
aF4611.81298828125
aF4615.04833984375
aF4618.51220703125
aF4622.79296875
aF4626.943359375
aF4630.8974609375
aF4637.13916015625
aF4651.02783203125
aF4669.6552734375
aF4685.92919921875
aF4700.56982421875
aF4715.60205078125
as.