(dp0
S'y_tilt'
p1
(lp2
I-1
aI-1
aI-1
aI-1
aI-1
aI-2
aI-3
aI-3
aI-3
aI-3
aI-4
aI-3
aI-2
aI-1
aI0
aI1
aI1
aI2
aI3
aI4
aI5
aI6
aI6
aI5
aI4
aI3
aI2
aI1
aI0
aI0
aI-1
aI-2
aI-3
aI-4
aI-5
aI-5
aI-6
aI-6
aI-5
asS'pressure'
p3
(lp4
F0.40673828125
aF0.42431640625
aF0.4931640625
aF0.541015625
aF0.5712890625
aF0.5859375
aF0.58984375
aF0.59765625
aF0.59423828125
aF0.5888671875
aF0.580078125
aF0.576171875
aF0.5751953125
aF0.56982421875
aF0.56787109375
aF0.5703125
aF0.57275390625
aF0.5771484375
aF0.5830078125
aF0.583984375
aF0.5869140625
aF0.5966796875
aF0.60888671875
aF0.61865234375
aF0.63818359375
aF0.6669921875
aF0.6748046875
aF0.67919921875
aF0.68212890625
aF0.6875
aF0.69970703125
aF0.70751953125
aF0.7041015625
aF0.69677734375
aF0.6943359375
aF0.6865234375
aF0.66455078125
aF0.60693359375
aF0.3740234375
asS'x_tilt'
p5
(lp6
I24
aI24
aI24
aI24
aI24
aI24
aI25
aI26
aI26
aI26
aI27
aI28
aI28
aI29
aI30
aI30
aI30
aI29
aI29
aI29
aI29
aI29
aI28
aI28
aI27
aI26
aI26
aI26
aI26
aI26
aI26
aI26
aI26
aI26
aI26
aI25
aI24
aI23
aI22
asS'time'
p7
(lp8
I328
aI347
aI347
aI366
aI382
aI399
aI415
aI432
aI449
aI466
aI482
aI499
aI515
aI533
aI549
aI566
aI582
aI599
aI616
aI632
aI649
aI665
aI683
aI699
aI716
aI733
aI749
aI766
aI782
aI799
aI816
aI832
aI850
aI866
aI883
aI899
aI916
aI933
aI949
asS'y'
p9
(lp10
F515.703369140625
aF517.010498046875
aF523.1541137695312
aF534.0361328125
aF550.4408569335938
aF569.9500732421875
aF579.361572265625
aF583.9365844726562
aF584.1326293945312
aF582.662109375
aF578.5772705078125
aF567.6298828125
aF549.3624877929688
aF527.3043212890625
aF514.6249389648438
aF502.8279113769531
aF491.09625244140625
aF483.25335693359375
aF478.9070739746094
aF473.4823913574219
aF468.3518371582031
aF466.7505798339844
aF470.2472229003906
aF477.50189208984375
aF492.30535888671875
aF511.1283264160156
aF525.6376953125
aF539.0032958984375
aF550.2120971679688
aF557.3687744140625
aF569.9174194335938
aF586.1260375976562
aF592.3350219726562
aF596.4852294921875
aF602.0405883789062
aF606.4522094726562
aF603.1516723632812
aF589.7860717773438
aF571.845458984375
asS'x'
p11
(lp12
F4592.92431640625
aF4592.98974609375
aF4592.95703125
aF4590.80029296875
aF4583.349609375
aF4568.74169921875
aF4557.53271484375
aF4546.87939453125
aF4540.703125
aF4536.22607421875
aF4529.5595703125
aF4522.2392578125
aF4518.61181640625
aF4518.87353515625
aF4521.71630859375
aF4526.32421875
aF4532.2392578125
aF4537.3369140625
aF4541.16064453125
aF4546.912109375
aF4554.232421875
aF4560.80078125
aF4568.51318359375
aF4574.36279296875
aF4580.63720703125
aF4584.81982421875
aF4587.07470703125
aF4589.39501953125
aF4591.78076171875
aF4593.31640625
aF4595.3427734375
aF4597.466796875
aF4599.26416015625
aF4601.71533203125
aF4606.5517578125
aF4615.99609375
aF4634.23095703125
aF4654.7861328125
aF4670.60302734375
as.