(dp0
S'a'
p1
(dp2
S'index'
p3
I3
sS'data'
p4
(dp5
S'y_tilt'
p6
(lp7
I19
aI19
aI19
aI19
aI19
aI19
aI19
aI19
aI19
aI19
aI19
aI19
aI19
aI19
aI19
aI19
aI19
aI19
aI19
aI19
aI19
aI19
aI19
aI18
aI18
aI18
aI18
aI18
aI18
aI18
aI18
aI18
aI18
aI17
aI17
aI17
aI17
aI17
aI17
aI17
aI17
aI17
aI17
aI17
aI17
aI17
aI17
aI17
aI17
aI17
aI17
aI17
aI17
aI17
aI17
aI17
aI17
aI17
aI17
aI17
aI17
aI17
aI18
aI18
aI18
aI18
aI18
aI18
aI18
aI18
aI18
aI18
aI18
aI18
aI18
aI18
aI18
aI18
aI18
aI18
aI19
aI19
aI19
aI19
aI20
aI20
aI21
aI21
aI22
aI22
aI23
aI23
aI24
aI24
aI24
aI24
aI24
aI24
aI24
aI24
aI24
aI24
aI24
aI25
aI25
aI25
aI26
aI27
aI28
aI28
aI29
aI29
aI30
aI30
aI30
aI30
aI30
aI30
aI30
aI30
aI31
aI31
aI32
aI32
aI33
aI34
aI34
aI34
aI34
aI34
aI34
aI34
aI34
aI34
aI34
aI35
aI35
aI35
aI35
aI35
aI35
aI35
aI36
aI36
aI36
aI36
aI36
aI36
aI37
aI37
aI37
aI37
aI37
aI37
aI37
aI37
aI38
aI38
aI38
aI38
aI38
aI38
aI38
aI38
aI38
aI38
aI38
aI38
aI38
aI38
aI38
aI38
aI39
aI39
aI39
aI39
aI39
aI39
aI39
aI39
aI40
aI40
aI40
aI40
aI40
aI40
aI40
aI40
aI40
aI40
aI40
aI39
aI39
aI39
aI38
aI38
aI38
aI37
aI37
aI37
aI37
aI37
aI37
aI37
aI37
aI37
aI37
aI36
aI36
aI36
aI35
aI35
aI35
aI35
aI35
aI35
aI35
aI35
aI35
aI35
aI35
aI35
aI35
aI35
aI35
aI35
aI35
aI35
aI35
aI35
aI35
aI35
aI35
aI35
aI35
aI35
aI35
aI35
aI35
aI35
aI35
aI35
aI35
aI35
aI35
aI35
aI35
aI35
aI35
aI35
aI35
aI35
aI35
aI35
aI34
aI34
aI34
aI34
aI34
aI34
aI34
aI33
aI33
aI33
aI33
aI33
aI33
aI33
aI33
aI33
aI33
aI33
aI33
aI33
aI33
aI33
aI33
aI33
aI33
aI33
aI33
aI33
aI33
aI33
aI33
aI33
aI33
aI33
aI33
aI32
aI32
aI32
aI32
aI32
aI32
aI32
aI32
aI32
aI32
aI32
aI32
aI32
aI32
aI31
aI31
aI31
aI31
aI31
aI30
aI30
aI30
aI30
aI29
aI29
aI29
aI29
aI29
aI29
aI29
aI29
aI29
aI28
aI28
aI27
aI26
aI25
aI25
aI25
aI25
aI25
aI24
aI23
aI22
aI21
aI20
aI19
aI19
aI19
aI18
aI18
aI17
aI16
aI16
aI15
aI13
aI12
aI11
aI11
aI11
aI11
aI11
aI11
aI11
aI11
aI11
aI11
aI11
aI11
aI11
aI10
aI10
aI10
aI10
aI10
aI10
aI10
aI10
aI10
aI10
aI10
aI10
aI10
aI10
aI10
aI11
aI11
aI11
aI12
aI12
aI12
aI12
aI13
asS'pressure'
p8
(lp9
F0.17138671875
aF0.27490234375
aF0.33984375
aF0.4423828125
aF0.4814453125
aF0.5048828125
aF0.52001953125
aF0.52978515625
aF0.55224609375
aF0.57958984375
aF0.6025390625
aF0.6103515625
aF0.6162109375
aF0.62060546875
aF0.62939453125
aF0.634765625
aF0.6416015625
aF0.6513671875
aF0.65673828125
aF0.66162109375
aF0.66748046875
aF0.67236328125
aF0.677734375
aF0.6796875
aF0.68310546875
aF0.6884765625
aF0.69482421875
aF0.69873046875
aF0.70361328125
aF0.70361328125
aF0.70556640625
aF0.7080078125
aF0.70947265625
aF0.7099609375
aF0.71044921875
aF0.7119140625
aF0.7119140625
aF0.71240234375
aF0.71533203125
aF0.7158203125
aF0.71826171875
aF0.71875
aF0.72119140625
aF0.724609375
aF0.7236328125
aF0.72314453125
aF0.72265625
aF0.72314453125
aF0.72265625
aF0.71630859375
aF0.70849609375
aF0.70361328125
aF0.7021484375
aF0.7001953125
aF0.7001953125
aF0.7001953125
aF0.69970703125
aF0.69873046875
aF0.6982421875
aF0.697265625
aF0.69580078125
aF0.6953125
aF0.69482421875
aF0.6923828125
aF0.69091796875
aF0.68994140625
aF0.689453125
aF0.68896484375
aF0.68603515625
aF0.68408203125
aF0.68212890625
aF0.681640625
aF0.677734375
aF0.6767578125
aF0.673828125
aF0.67138671875
aF0.6708984375
aF0.67041015625
aF0.6669921875
aF0.666015625
aF0.6640625
aF0.6640625
aF0.66455078125
aF0.66455078125
aF0.66162109375
aF0.66162109375
aF0.6611328125
aF0.66064453125
aF0.65869140625
aF0.6552734375
aF0.64990234375
aF0.6474609375
aF0.64501953125
aF0.640625
aF0.6357421875
aF0.63232421875
aF0.6318359375
aF0.63330078125
aF0.63427734375
aF0.63232421875
aF0.63134765625
aF0.63134765625
aF0.6318359375
aF0.6318359375
aF0.63134765625
aF0.63037109375
aF0.62890625
aF0.625
aF0.62451171875
aF0.623046875
aF0.62255859375
aF0.6201171875
aF0.62060546875
aF0.61767578125
aF0.6162109375
aF0.615234375
aF0.61474609375
aF0.61376953125
aF0.61181640625
aF0.61328125
aF0.61328125
aF0.61328125
aF0.61669921875
aF0.61962890625
aF0.61767578125
aF0.6171875
aF0.61572265625
aF0.6123046875
aF0.6103515625
aF0.60791015625
aF0.60546875
aF0.60205078125
aF0.5947265625
aF0.58837890625
aF0.58740234375
aF0.58447265625
aF0.58349609375
aF0.58154296875
aF0.57958984375
aF0.57958984375
aF0.57861328125
aF0.57861328125
aF0.578125
aF0.576171875
aF0.57421875
aF0.57373046875
aF0.572265625
aF0.572265625
aF0.5703125
aF0.56005859375
aF0.5556640625
aF0.552734375
aF0.5498046875
aF0.54736328125
aF0.537109375
aF0.525390625
aF0.51953125
aF0.50927734375
aF0.4873046875
aF0.46484375
aF0.42529296875
aF0.40673828125
aF0.38427734375
aF0.37890625
aF0.37646484375
aF0.373046875
aF0.37841796875
aF0.38232421875
aF0.3935546875
aF0.39794921875
aF0.400390625
aF0.40283203125
aF0.40283203125
aF0.4033203125
aF0.40380859375
aF0.40380859375
aF0.39990234375
aF0.39697265625
aF0.3994140625
aF0.40234375
aF0.40283203125
aF0.40185546875
aF0.40185546875
aF0.4013671875
aF0.3994140625
aF0.3984375
aF0.3984375
aF0.39892578125
aF0.3994140625
aF0.3994140625
aF0.4052734375
aF0.40478515625
aF0.39892578125
aF0.39013671875
aF0.38525390625
aF0.3837890625
aF0.3916015625
aF0.39990234375
aF0.40625
aF0.40869140625
aF0.41162109375
aF0.40966796875
aF0.41064453125
aF0.41064453125
aF0.4072265625
aF0.408203125
aF0.4111328125
aF0.4130859375
aF0.421875
aF0.42431640625
aF0.43115234375
aF0.43896484375
aF0.43798828125
aF0.4423828125
aF0.43310546875
aF0.42578125
aF0.41748046875
aF0.416015625
aF0.41748046875
aF0.41552734375
aF0.41552734375
aF0.41552734375
aF0.41357421875
aF0.40869140625
aF0.4013671875
aF0.39404296875
aF0.39013671875
aF0.38720703125
aF0.38720703125
aF0.3876953125
aF0.384765625
aF0.384765625
aF0.384765625
aF0.3837890625
aF0.3818359375
aF0.38232421875
aF0.38427734375
aF0.38427734375
aF0.38134765625
aF0.3798828125
aF0.37744140625
aF0.37451171875
aF0.37255859375
aF0.3701171875
aF0.3681640625
aF0.36767578125
aF0.3671875
aF0.3671875
aF0.3701171875
aF0.3701171875
aF0.37060546875
aF0.3662109375
aF0.36328125
aF0.36572265625
aF0.369140625
aF0.36962890625
aF0.37060546875
aF0.37060546875
aF0.37451171875
aF0.37353515625
aF0.373046875
aF0.37109375
aF0.3681640625
aF0.36767578125
aF0.36962890625
aF0.36962890625
aF0.3671875
aF0.3671875
aF0.36669921875
aF0.36669921875
aF0.36083984375
aF0.3583984375
aF0.3583984375
aF0.35791015625
aF0.35986328125
aF0.361328125
aF0.36376953125
aF0.36572265625
aF0.37109375
aF0.373046875
aF0.3759765625
aF0.37744140625
aF0.376953125
aF0.37841796875
aF0.38525390625
aF0.3916015625
aF0.39453125
aF0.39892578125
aF0.39990234375
aF0.40234375
aF0.404296875
aF0.404296875
aF0.40185546875
aF0.39892578125
aF0.400390625
aF0.4013671875
aF0.40185546875
aF0.40185546875
aF0.40234375
aF0.4033203125
aF0.4033203125
aF0.40625
aF0.40673828125
aF0.40771484375
aF0.4072265625
aF0.40625
aF0.40625
aF0.40673828125
aF0.41015625
aF0.41162109375
aF0.412109375
aF0.412109375
aF0.41015625
aF0.40966796875
aF0.40966796875
aF0.40869140625
aF0.41064453125
aF0.4150390625
aF0.419921875
aF0.423828125
aF0.42626953125
aF0.427734375
aF0.435546875
aF0.4443359375
aF0.44775390625
aF0.45361328125
aF0.45556640625
aF0.4599609375
aF0.46484375
aF0.4677734375
aF0.4736328125
aF0.47802734375
aF0.4853515625
aF0.49365234375
aF0.50390625
aF0.51220703125
aF0.52294921875
aF0.5322265625
aF0.5419921875
aF0.546875
aF0.5546875
aF0.5673828125
aF0.58251953125
aF0.5947265625
aF0.6103515625
aF0.619140625
aF0.6259765625
aF0.6318359375
aF0.638671875
aF0.64501953125
aF0.64794921875
aF0.65234375
aF0.65087890625
aF0.650390625
aF0.650390625
aF0.650390625
aF0.6533203125
aF0.6513671875
aF0.65087890625
aF0.650390625
aF0.6513671875
aF0.65185546875
aF0.65673828125
aF0.6630859375
aF0.66015625
aF0.6572265625
aF0.6572265625
aF0.65673828125
aF0.6552734375
aF0.65283203125
aF0.64501953125
aF0.6376953125
aF0.623046875
aF0.60986328125
aF0.5908203125
aF0.5673828125
aF0.53369140625
aF0.486328125
aF0.3828125
aF0.29541015625
aF0.16650390625
aF0.01904296875
asS'x_tilt'
p10
(lp11
I24
aI24
aI24
aI24
aI24
aI24
aI24
aI24
aI24
aI24
aI24
aI24
aI24
aI24
aI24
aI24
aI24
aI24
aI24
aI24
aI24
aI24
aI24
aI25
aI25
aI25
aI25
aI25
aI25
aI25
aI25
aI25
aI25
aI25
aI25
aI25
aI25
aI25
aI25
aI26
aI26
aI26
aI26
aI26
aI27
aI27
aI27
aI27
aI27
aI27
aI27
aI27
aI27
aI27
aI27
aI27
aI27
aI27
aI27
aI27
aI27
aI27
aI27
aI27
aI27
aI27
aI27
aI27
aI27
aI28
aI28
aI28
aI28
aI28
aI28
aI28
aI29
aI29
aI29
aI29
aI29
aI29
aI29
aI29
aI29
aI29
aI29
aI29
aI29
aI29
aI29
aI29
aI29
aI29
aI30
aI30
aI30
aI30
aI30
aI30
aI30
aI30
aI30
aI31
aI31
aI31
aI31
aI31
aI31
aI31
aI31
aI31
aI31
aI31
aI31
aI31
aI31
aI31
aI31
aI31
aI31
aI31
aI31
aI31
aI31
aI31
aI31
aI31
aI31
aI31
aI31
aI31
aI31
aI31
aI31
aI31
aI31
aI31
aI31
aI31
aI32
aI32
aI32
aI32
aI32
aI32
aI32
aI32
aI32
aI32
aI32
aI32
aI32
aI32
aI32
aI32
aI32
aI32
aI31
aI31
aI31
aI30
aI30
aI30
aI30
aI30
aI29
aI29
aI29
aI29
aI28
aI28
aI27
aI27
aI27
aI26
aI26
aI26
aI26
aI26
aI26
aI26
aI27
aI27
aI28
aI28
aI28
aI29
aI29
aI29
aI29
aI30
aI30
aI30
aI30
aI30
aI31
aI32
aI32
aI32
aI32
aI32
aI32
aI31
aI31
aI31
aI31
aI30
aI30
aI30
aI30
aI30
aI30
aI30
aI30
aI30
aI31
aI31
aI31
aI32
aI32
aI32
aI32
aI33
aI33
aI33
aI33
aI33
aI33
aI33
aI33
aI33
aI33
aI33
aI33
aI33
aI33
aI33
aI33
aI33
aI33
aI32
aI32
aI32
aI32
aI32
aI32
aI32
aI32
aI32
aI32
aI32
aI33
aI33
aI33
aI34
aI34
aI34
aI34
aI35
aI35
aI35
aI35
aI35
aI35
aI35
aI35
aI35
aI35
aI35
aI35
aI35
aI35
aI35
aI35
aI35
aI35
aI35
aI35
aI35
aI35
aI35
aI35
aI35
aI35
aI35
aI35
aI35
aI35
aI35
aI35
aI35
aI35
aI35
aI35
aI35
aI35
aI35
aI35
aI35
aI35
aI35
aI35
aI36
aI36
aI36
aI36
aI36
aI37
aI37
aI37
aI37
aI37
aI38
aI38
aI38
aI38
aI38
aI38
aI38
aI38
aI38
aI38
aI38
aI38
aI38
aI38
aI38
aI38
aI38
aI38
aI38
aI38
aI37
aI37
aI37
aI37
aI36
aI36
aI36
aI36
aI36
aI35
aI34
aI34
aI33
aI32
aI32
aI31
aI31
aI30
aI29
aI29
aI28
aI28
aI28
aI28
aI27
aI26
aI25
aI24
aI24
aI23
aI23
aI23
aI22
aI22
aI22
aI21
aI21
aI21
aI21
aI21
aI21
aI21
aI21
aI21
aI21
aI21
aI21
aI21
aI21
asS'time'
p12
(lp13
I2241
aI2259
aI2285
aI2317
aI2343
aI2369
aI2399
aI2423
aI2451
aI2479
aI2503
aI2528
aI2543
aI2559
aI2574
aI2590
aI2605
aI2621
aI2637
aI2654
aI2670
aI2687
aI2704
aI2720
aI2736
aI2753
aI2769
aI2786
aI2804
aI2821
aI2838
aI2854
aI2871
aI2887
aI2903
aI2919
aI2935
aI2952
aI2967
aI2983
aI2998
aI3014
aI3030
aI3045
aI3061
aI3077
aI3093
aI3108
aI3123
aI3139
aI3155
aI3171
aI3187
aI3203
aI3219
aI3235
aI3251
aI3267
aI3283
aI3299
aI3315
aI3332
aI3348
aI3365
aI3381
aI3396
aI3413
aI3430
aI3446
aI3463
aI3479
aI3496
aI3512
aI3529
aI3546
aI3562
aI3579
aI3594
aI3611
aI3628
aI3644
aI3661
aI3678
aI3694
aI3710
aI3727
aI3743
aI3760
aI3776
aI3792
aI3809
aI3825
aI3842
aI3858
aI3875
aI3891
aI3908
aI3924
aI3940
aI3957
aI3974
aI3990
aI4006
aI4022
aI4039
aI4056
aI4072
aI4089
aI4106
aI4123
aI4139
aI4156
aI4173
aI4189
aI4206
aI4222
aI4238
aI4255
aI4273
aI4290
aI4305
aI4322
aI4339
aI4356
aI4372
aI4388
aI4406
aI4423
aI4440
aI4456
aI4473
aI4489
aI4506
aI4523
aI4539
aI4556
aI4573
aI4589
aI4605
aI4623
aI4639
aI4656
aI4672
aI4689
aI4705
aI4722
aI4740
aI4757
aI4773
aI4790
aI4806
aI4822
aI4838
aI4855
aI4872
aI4890
aI4906
aI4922
aI4939
aI4956
aI4973
aI4989
aI5006
aI5023
aI5023
aI5040
aI5056
aI5073
aI5090
aI5106
aI5122
aI5139
aI5156
aI5173
aI5190
aI5206
aI5223
aI5239
aI5256
aI5273
aI5290
aI5306
aI5323
aI5340
aI5356
aI5373
aI5389
aI5406
aI5422
aI5438
aI5455
aI5472
aI5489
aI5506
aI5523
aI5539
aI5556
aI5573
aI5589
aI5606
aI5622
aI5622
aI5639
aI5656
aI5672
aI5689
aI5705
aI5721
aI5737
aI5753
aI5769
aI5785
aI5800
aI5816
aI5831
aI5846
aI5862
aI5877
aI5892
aI5908
aI5922
aI5938
aI5954
aI5969
aI5985
aI6000
aI6015
aI6030
aI6046
aI6061
aI6076
aI6091
aI6106
aI6121
aI6137
aI6153
aI6169
aI6185
aI6185
aI6200
aI6216
aI6231
aI6246
aI6261
aI6277
aI6292
aI6292
aI6307
aI6322
aI6338
aI6338
aI6354
aI6370
aI6386
aI6402
aI6417
aI6432
aI6447
aI6447
aI6462
aI6478
aI6493
aI6508
aI6524
aI6539
aI6555
aI6555
aI6571
aI6571
aI6587
aI6603
aI6619
aI6635
aI6650
aI6666
aI6681
aI6696
aI6712
aI6727
aI6742
aI6758
aI6774
aI6789
aI6805
aI6821
aI6837
aI6853
aI6869
aI6885
aI6900
aI6915
aI6931
aI6946
aI6961
aI6976
aI6991
aI7007
aI7022
aI7037
aI7053
aI7069
aI7085
aI7100
aI7116
aI7131
aI7146
aI7162
aI7177
aI7177
aI7193
aI7208
aI7208
aI7224
aI7239
aI7254
aI7270
aI7286
aI7302
aI7318
aI7333
aI7349
aI7364
aI7364
aI7380
aI7395
aI7410
aI7426
aI7441
aI7456
aI7471
aI7487
aI7503
aI7519
aI7535
aI7550
aI7566
aI7581
aI7597
aI7612
aI7627
aI7642
aI7657
aI7672
aI7688
aI7704
aI7720
aI7736
aI7752
aI7767
aI7782
aI7797
aI7813
aI7828
aI7843
aI7859
aI7874
aI7889
aI7905
aI7921
aI7937
aI7952
aI7967
aI7983
aI7998
aI8013
aI8029
aI8044
aI8059
aI8075
aI8090
aI8106
aI8122
aI8139
aI8156
aI8172
aI8189
aI8205
aI8222
aI8239
aI8255
aI8272
aI8289
asS'y'
p14
(lp15
F693.4430541992188
aF693.1489868164062
aF693.1489868164062
aF694.5541381835938
aF696.5802001953125
aF698.4429321289062
aF699.5213012695312
aF699.7500610351562
aF699.7500610351562
aF699.8480834960938
aF700.1095581054688
aF700.69775390625
aF701.351318359375
aF702.233642578125
aF703.1813354492188
aF704.3577880859375
aF705.762939453125
aF707.3969116210938
aF709.1942138671875
aF710.9588623046875
aF712.5928344726562
aF713.8999633789062
aF714.9456787109375
aF715.7953491210938
aF716.6123046875
aF717.4292602539062
aF718.148193359375
aF718.7691040039062
aF719.2266235351562
aF719.2919311523438
aF719.2266235351562
aF719.1285400390625
aF718.9978637695312
aF718.9978637695312
aF719.030517578125
aF719.25927734375
aF719.5534057617188
aF719.8474731445312
aF720.0762329101562
aF720.2396240234375
aF720.3049926757812
aF720.2069702148438
aF719.9782104492188
aF719.488037109375
aF718.8017578125
aF717.9521484375
aF717.06982421875
aF716.383544921875
aF716.0567626953125
aF715.6646118164062
aF715.3704833984375
aF715.076416015625
aF714.7496337890625
aF714.39013671875
aF713.8999633789062
aF713.4424438476562
aF712.9196166992188
aF712.3640747070312
aF711.7758178710938
aF711.2203369140625
aF710.7301025390625
aF710.3380126953125
aF709.9131469726562
aF709.4229736328125
aF708.8347778320312
aF708.1812133789062
aF707.4622802734375
aF706.7760009765625
aF705.795654296875
aF705.0113525390625
aF704.1616821289062
aF703.1813354492188
aF702.1029663085938
aF700.9591674804688
aF699.7827758789062
aF698.6063232421875
aF697.2991333007812
aF695.9593505859375
aF694.5541381835938
aF693.1162719726562
aF691.0248413085938
aF689.3255615234375
aF687.5609130859375
aF685.894287109375
aF684.3583984375
aF682.8551635742188
aF681.3845825195312
aF679.8486938476562
aF678.1820678710938
aF676.2540283203125
aF674.1299438476562
aF671.9077758789062
aF669.4895629882812
aF666.9078979492188
aF663.99951171875
aF659.7186279296875
aF656.6795043945312
aF654.1958618164062
aF652.3331909179688
aF650.960693359375
aF649.653564453125
aF648.2810668945312
aF646.8104858398438
aF645.3726196289062
aF644.0327758789062
aF642.6602783203125
aF641.0917358398438
aF638.4774169921875
aF636.1245727539062
aF633.5756225585938
aF630.9286499023438
aF628.2489624023438
aF625.6673583984375
aF623.1510620117188
aF620.6021118164062
aF617.9551391601562
aF615.2101440429688
aF612.3670654296875
aF608.6743774414062
aF605.9947509765625
aF603.217041015625
aF600.2759399414062
aF597.23681640625
aF594.393798828125
aF591.8448486328125
aF589.6553344726562
aF587.760009765625
aF585.4724731445312
aF583.740478515625
aF582.0411987304688
aF580.3419189453125
aF578.67529296875
aF577.0086669921875
aF575.4074096679688
aF573.8388671875
aF571.8781127929688
aF570.4402465820312
aF568.9697265625
aF567.3357543945312
aF565.5384521484375
aF563.7410888671875
aF562.2052001953125
aF560.8980712890625
aF559.7216186523438
aF558.577880859375
aF557.2053833007812
aF556.2903442382812
aF555.5060424804688
aF554.81982421875
aF554.2642822265625
aF553.8394775390625
aF553.5126342773438
aF553.1858520507812
aF552.9898071289062
aF552.826416015625
aF552.7283935546875
aF552.59765625
aF552.4342651367188
aF552.2708740234375
aF552.14013671875
aF552.1074829101562
aF552.2055053710938
aF552.401611328125
aF552.5322875976562
aF552.9244384765625
aF553.3165893554688
aF553.5453491210938
aF553.6107177734375
aF553.5453491210938
aF553.2185668945312
aF552.7283935546875
aF552.2708740234375
aF551.7479858398438
aF551.4539184570312
aF551.1597900390625
aF550.8656616210938
aF550.5388793945312
aF550.2448120117188
aF549.9833374023438
aF549.7872924804688
aF549.6239013671875
aF549.5585327148438
aF549.8526611328125
aF550.4408569335938
aF550.9963989257812
aF551.3558959960938
aF551.5845947265625
aF551.71533203125
aF551.7807006835938
aF551.8787231445312
aF551.911376953125
aF551.911376953125
aF551.8460693359375
aF551.8133544921875
aF551.8787231445312
aF552.3362426757812
aF552.9571533203125
aF553.5126342773438
aF553.7413940429688
aF553.6107177734375
aF553.4473266601562
aF552.9244384765625
aF551.2578125
aF549.3297729492188
aF546.84619140625
aF544.003173828125
aF540.8333129882812
aF537.5980834960938
aF534.3629150390625
aF531.1930541992188
aF528.1212768554688
aF525.3435668945312
aF523.0233764648438
aF521.8469848632812
aF520.8012084960938
aF520.4744262695312
aF520.7359008789062
aF521.7162475585938
aF523.186767578125
aF524.72265625
aF525.6376953125
aF526.748779296875
aF527.6964721679688
aF528.513427734375
aF529.363037109375
aF530.1800537109375
aF531.0623779296875
aF532.1407470703125
aF533.4479370117188
aF534.3629150390625
aF535.80078125
aF537.2386474609375
aF538.4804077148438
aF539.3954467773438
aF540.0490112304688
aF540.7352905273438
aF541.3561401367188
aF541.8136596679688
aF542.0750732421875
aF542.7613525390625
aF543.9050903320312
aF545.277587890625
aF546.617431640625
aF547.7938842773438
aF548.3494262695312
aF548.5454711914062
aF548.9703369140625
aF549.5585327148438
aF549.9180297851562
aF550.1140747070312
aF550.636962890625
aF551.3231811523438
aF552.2382202148438
aF553.4146118164062
aF554.787109375
aF556.1923217773438
aF557.1400146484375
aF557.5975341796875
aF558.4798583984375
aF559.65625
aF560.800048828125
aF561.87841796875
aF562.989501953125
aF564.1005859375
aF565.0155639648438
aF565.5057373046875
aF566.6495361328125
aF567.2377319335938
aF569.198486328125
aF570.505615234375
aF572.3356323242188
aF573.8388671875
aF574.9826049804688
aF575.9629516601562
aF576.8452758789062
aF577.6622314453125
aF578.6426391601562
aF579.8517456054688
aF581.4530029296875
aF582.5640869140625
aF584.0999755859375
aF585.3417358398438
aF586.4855346679688
aF587.5966186523438
aF588.4462280273438
aF589.0344848632812
aF589.3612670898438
aF589.5900268554688
aF589.75341796875
aF589.8840942382812
aF590.0148315429688
aF590.0802001953125
aF590.2435913085938
aF590.4396362304688
aF590.7337646484375
aF591.1912841796875
aF591.7794799804688
aF592.2042846679688
aF592.8905639648438
aF593.4461059570312
aF593.8709106445312
aF594.2957153320312
aF594.7859497070312
aF595.3414916992188
aF596.0277099609375
aF596.9427490234375
aF597.6616821289062
aF598.0537719726562
aF599.3936157226562
aF600.34130859375
aF600.798828125
aF601.7465209960938
aF603.217041015625
aF604.8836669921875
aF606.9097290039062
aF609.393310546875
aF612.1710205078125
aF615.0794067382812
aF618.1838989257812
aF621.778564453125
aF624.6216430664062
aF626.190185546875
aF629.6541748046875
aF635.470947265625
aF641.6145629882812
aF647.62744140625
aF653.3462524414062
aF658.6401977539062
aF663.3786010742188
aF666.3523559570312
aF670.6986694335938
aF675.044921875
aF679.3912353515625
aF683.672119140625
aF687.9857177734375
aF692.29931640625
aF696.6455688476562
aF701.0245361328125
aF705.5341796875
aF708.638671875
aF713.311767578125
aF717.7560424804688
aF721.710205078125
aF724.9453735351562
aF727.3309326171875
aF728.7361450195312
aF729.1609497070312
aF728.8668212890625
aF728.2786254882812
aF727.0695190429688
aF725.5009155273438
aF723.6055297851562
aF721.6448364257812
aF719.945556640625
aF718.7691040039062
aF718.1155395507812
aF717.9521484375
aF718.2135620117188
aF719.2266235351562
aF720.59912109375
aF721.90625
aF722.4617919921875
aF721.8735961914062
aF720.17431640625
aF718.7037353515625
aF716.416259765625
aF714.2267456054688
aF712.0045776367188
aF709.2595825195312
aF705.6322631835938
aF701.3186645507812
aF696.8416748046875
aF692.8548583984375
aF689.6849975585938
aF687.4628295898438
aF686.0576782226562
aF685.1426391601562
aF684.4890747070312
aF683.47607421875
aF682.1688842773438
aF679.5546264648438
aF673.509033203125
asS'x'
p16
(lp17
F3029.490966796875
aF3029.1640625
aF3028.445068359375
aF3026.778564453125
aF3025.438720703125
aF3024.8505859375
aF3024.621826171875
aF3024.621826171875
aF3024.621826171875
aF3024.523681640625
aF3023.674072265625
aF3022.49755859375
aF3021.5498046875
aF3020.66748046875
aF3019.81787109375
aF3018.96826171875
aF3018.05322265625
aF3017.07275390625
aF3016.125244140625
aF3015.177490234375
aF3014.229736328125
aF3013.281982421875
aF3012.432373046875
aF3011.517333984375
aF3010.37353515625
aF3008.935791015625
aF3007.171142578125
aF3005.242919921875
aF3002.694091796875
aF3000.864013671875
aF2998.935791015625
aF2996.779052734375
aF2994.36083984375
aF2991.844482421875
aF2989.328125
aF2986.942626953125
aF2984.55712890625
aF2982.040771484375
aF2979.58984375
aF2977.30224609375
aF2975.17822265625
aF2973.21728515625
aF2971.419921875
aF2969.720703125
aF2968.053955078125
aF2966.387451171875
aF2964.7861328125
aF2963.34814453125
aF2962.56396484375
aF2961.58349609375
aF2960.7666015625
aF2959.94970703125
aF2958.96923828125
aF2957.792724609375
aF2956.322265625
aF2954.720947265625
aF2953.2177734375
aF2951.8779296875
aF2950.57080078125
aF2949.296142578125
aF2948.15234375
aF2947.139404296875
aF2946.257080078125
aF2945.342041015625
aF2944.328857421875
aF2943.25048828125
aF2942.139404296875
aF2941.12646484375
aF2939.982666015625
aF2939.23095703125
aF2938.577392578125
aF2937.8583984375
aF2937.204833984375
aF2936.583984375
aF2936.06103515625
aF2935.571044921875
aF2935.146240234375
aF2934.78662109375
aF2934.4599609375
aF2934.198486328125
aF2934.00244140625
aF2933.87158203125
aF2933.80615234375
aF2933.773681640625
aF2933.773681640625
aF2933.773681640625
aF2933.87158203125
aF2933.93701171875
aF2934.034912109375
aF2934.133056640625
aF2934.263671875
aF2934.3291015625
aF2934.36181640625
aF2934.36181640625
aF2934.36181640625
aF2934.36181640625
aF2934.42724609375
aF2934.492431640625
aF2934.492431640625
aF2934.4599609375
aF2934.3291015625
aF2934.100341796875
aF2933.87158203125
aF2933.642822265625
aF2933.38134765625
aF2933.152587890625
aF2932.95654296875
aF2932.891357421875
aF2932.95654296875
aF2933.152587890625
aF2933.38134765625
aF2933.610107421875
aF2933.80615234375
aF2934.034912109375
aF2934.231201171875
aF2934.42724609375
aF2934.688720703125
aF2935.113525390625
aF2935.6689453125
aF2936.06103515625
aF2936.453369140625
aF2936.747314453125
aF2937.04150390625
aF2937.302978515625
aF2937.368408203125
aF2937.302978515625
aF2937.10693359375
aF2936.714599609375
aF2936.420654296875
aF2936.12646484375
aF2935.7998046875
aF2935.440185546875
aF2935.048095703125
aF2934.656005859375
aF2934.3291015625
aF2933.708251953125
aF2933.152587890625
aF2932.564453125
aF2932.04150390625
aF2931.518798828125
aF2931.061279296875
aF2930.70166015625
aF2930.34228515625
aF2929.98291015625
aF2929.656005859375
aF2929.263916015625
aF2928.9697265625
aF2928.64306640625
aF2928.250732421875
aF2927.6953125
aF2927.009033203125
aF2926.32275390625
aF2925.76708984375
aF2925.40771484375
aF2925.015625
aF2924.721435546875
aF2924.296630859375
aF2923.839111328125
aF2923.28369140625
aF2922.6953125
aF2921.976318359375
aF2921.093994140625
aF2920.146484375
aF2919.754150390625
aF2918.577880859375
aF2917.4013671875
aF2916.51904296875
aF2915.767333984375
aF2914.787109375
aF2913.77392578125
aF2912.695556640625
aF2911.6171875
aF2910.31005859375
aF2909.525634765625
aF2908.9375
aF2908.3818359375
aF2907.826416015625
aF2907.14013671875
aF2906.322998046875
aF2905.3427734375
aF2904.296875
aF2902.467041015625
aF2900.767578125
aF2898.97021484375
aF2897.368896484375
aF2896.3232421875
aF2895.80029296875
aF2895.50634765625
aF2895.114013671875
aF2894.6240234375
aF2894.10107421875
aF2893.382080078125
aF2892.7939453125
aF2892.140380859375
aF2891.3232421875
aF2890.4736328125
aF2889.427978515625
aF2888.022705078125
aF2886.225341796875
aF2883.970458984375
aF2883.186279296875
aF2881.5849609375
aF2878.4150390625
aF2876.16015625
aF2873.970703125
aF2871.78125
aF2869.755126953125
aF2867.925048828125
aF2866.32373046875
aF2864.722412109375
aF2863.12109375
aF2861.45458984375
aF2859.755126953125
aF2858.64404296875
aF2857.075439453125
aF2855.572265625
aF2854.232421875
aF2853.0234375
aF2851.879638671875
aF2850.6376953125
aF2849.7880859375
aF2848.578857421875
aF2847.435302734375
aF2846.32421875
aF2845.212890625
aF2844.265380859375
aF2843.383056640625
aF2842.435302734375
aF2841.22607421875
aF2840.245849609375
aF2838.513671875
aF2836.71630859375
aF2835.0498046875
aF2833.7099609375
aF2832.598876953125
aF2831.651123046875
aF2830.801513671875
aF2830.14794921875
aF2829.755859375
aF2828.74267578125
aF2826.9453125
aF2824.8212890625
aF2822.729736328125
aF2820.932373046875
aF2820.050048828125
aF2819.690673828125
aF2819.069580078125
aF2818.318115234375
aF2817.860595703125
aF2817.59912109375
aF2816.814697265625
aF2815.8017578125
aF2814.56005859375
aF2813.1220703125
aF2811.520751953125
aF2809.854248046875
aF2808.775634765625
aF2808.2529296875
aF2807.23974609375
aF2805.89990234375
aF2804.5927734375
aF2803.383544921875
aF2802.2724609375
aF2801.324951171875
aF2800.60595703125
aF2800.2138671875
aF2799.33154296875
aF2798.906494140625
aF2797.5341796875
aF2796.684326171875
aF2795.60595703125
aF2794.886962890625
aF2794.560302734375
aF2794.3642578125
aF2794.26611328125
aF2794.102783203125
aF2793.8740234375
aF2793.41650390625
aF2792.56689453125
aF2791.815185546875
aF2790.638671875
aF2789.560302734375
aF2788.54736328125
aF2787.599609375
aF2786.880615234375
aF2786.3251953125
aF2785.900390625
aF2785.44287109375
aF2784.789306640625
aF2783.97216796875
aF2783.05712890625
aF2782.403564453125
aF2781.390625
aF2780.41015625
aF2779.397216796875
aF2778.351318359375
aF2777.3056640625
aF2776.586669921875
aF2775.6064453125
aF2774.756591796875
aF2774.0703125
aF2773.449462890625
aF2772.82861328125
aF2772.142333984375
aF2771.325439453125
aF2770.410400390625
aF2769.72412109375
aF2769.33203125
aF2767.9921875
aF2767.01171875
aF2766.55419921875
aF2765.6064453125
aF2764.33203125
aF2763.155517578125
aF2762.01171875
aF2760.900634765625
aF2760.018310546875
aF2759.462890625
aF2759.103271484375
aF2758.678466796875
aF2758.384521484375
aF2758.286376953125
aF2758.02490234375
aF2757.6328125
aF2757.2734375
aF2757.044677734375
aF2756.979248046875
aF2757.404052734375
aF2758.482421875
aF2759.462890625
aF2761.29296875
aF2763.44970703125
aF2765.867919921875
aF2768.44970703125
aF2771.12939453125
aF2773.972412109375
aF2777.076904296875
aF2780.3447265625
aF2783.808837890625
aF2786.16162109375
aF2789.75634765625
aF2793.5146484375
aF2797.5341796875
aF2801.88037109375
aF2806.651611328125
aF2812.17431640625
aF2818.742919921875
aF2826.06298828125
aF2831.06298828125
aF2838.18701171875
aF2844.853515625
aF2851.16064453125
aF2857.3369140625
aF2863.12109375
aF2868.284423828125
aF2872.794189453125
aF2875.7353515625
aF2880.310546875
aF2885.343017578125
aF2890.636962890625
aF2895.996337890625
aF2901.35595703125
aF2906.780517578125
aF2912.303466796875
aF2916.02880859375
aF2921.2900390625
aF2925.571044921875
aF2928.708251953125
aF2930.995849609375
aF2932.793212890625
aF2934.263671875
aF2935.505615234375
aF2936.55126953125
aF2937.237548828125
aF2937.727783203125
aF2937.9892578125
aF2938.152587890625
aF2938.31591796875
aF2938.642822265625
aF2939.29638671875
aF2940.27685546875
aF2941.453125
assS'nbShow'
p18
(lp19
ssS'e'
p20
(dp21
g3
I4
sg4
(dp22
g6
(lp23
I11
aI12
aI12
aI12
aI12
aI12
aI12
aI12
aI12
aI12
aI12
aI12
aI12
aI12
aI12
aI12
aI12
aI12
aI12
aI12
aI12
aI12
aI12
aI12
aI13
aI13
aI14
aI14
aI14
aI14
aI14
aI14
aI14
aI14
aI14
aI14
aI14
aI14
aI14
aI14
aI14
aI14
aI14
aI14
aI14
aI14
aI14
aI15
aI15
aI16
aI17
aI17
aI18
aI18
aI20
aI21
aI23
aI23
aI24
aI25
aI25
aI26
aI27
aI28
aI29
aI29
aI29
aI29
aI29
aI29
aI28
aI28
aI28
aI28
aI28
aI27
aI27
aI27
aI27
aI27
aI26
aI24
aI23
aI23
aI22
aI22
aI22
aI21
aI19
aI18
aI17
aI16
aI16
aI16
aI16
aI16
aI16
aI15
aI13
aI12
aI11
aI11
aI10
aI10
aI9
aI8
aI7
aI6
aI6
aI5
aI5
aI4
aI4
aI4
aI4
aI4
aI4
aI3
aI3
aI3
aI3
aI3
aI2
aI2
aI2
aI2
aI2
aI2
aI2
aI2
aI2
aI2
aI3
aI3
aI4
aI4
aI6
aI6
aI7
asg8
(lp24
F0.13671875
aF0.16943359375
aF0.302734375
aF0.40966796875
aF0.4892578125
aF0.546875
aF0.57568359375
aF0.6015625
aF0.6064453125
aF0.6240234375
aF0.64404296875
aF0.65087890625
aF0.6513671875
aF0.65380859375
aF0.6611328125
aF0.68017578125
aF0.6875
aF0.6875
aF0.68896484375
aF0.69091796875
aF0.693359375
aF0.69384765625
aF0.69287109375
aF0.69482421875
aF0.6923828125
aF0.69091796875
aF0.69189453125
aF0.69287109375
aF0.6943359375
aF0.6943359375
aF0.69921875
aF0.701171875
aF0.70703125
aF0.70703125
aF0.7099609375
aF0.7119140625
aF0.71240234375
aF0.708984375
aF0.70751953125
aF0.708984375
aF0.71630859375
aF0.716796875
aF0.71435546875
aF0.7109375
aF0.71044921875
aF0.71484375
aF0.72265625
aF0.72705078125
aF0.73388671875
aF0.734375
aF0.73779296875
aF0.7373046875
aF0.736328125
aF0.73876953125
aF0.7373046875
aF0.7265625
aF0.71923828125
aF0.71337890625
aF0.70703125
aF0.701171875
aF0.6923828125
aF0.69091796875
aF0.68359375
aF0.67919921875
aF0.67529296875
aF0.67529296875
aF0.66796875
aF0.6650390625
aF0.66552734375
aF0.66455078125
aF0.662109375
aF0.66015625
aF0.66015625
aF0.6611328125
aF0.6611328125
aF0.66162109375
aF0.6591796875
aF0.6572265625
aF0.654296875
aF0.650390625
aF0.6494140625
aF0.6484375
aF0.64892578125
aF0.654296875
aF0.6591796875
aF0.6611328125
aF0.66552734375
aF0.669921875
aF0.673828125
aF0.6767578125
aF0.68359375
aF0.68359375
aF0.6875
aF0.6884765625
aF0.68896484375
aF0.6875
aF0.6904296875
aF0.69091796875
aF0.69384765625
aF0.69970703125
aF0.70849609375
aF0.71435546875
aF0.72607421875
aF0.736328125
aF0.74560546875
aF0.7626953125
aF0.7685546875
aF0.77392578125
aF0.77880859375
aF0.78369140625
aF0.7900390625
aF0.79248046875
aF0.80126953125
aF0.8037109375
aF0.8037109375
aF0.8056640625
aF0.806640625
aF0.80712890625
aF0.82080078125
aF0.830078125
aF0.8427734375
aF0.8486328125
aF0.853515625
aF0.8544921875
aF0.85986328125
aF0.86279296875
aF0.86572265625
aF0.86962890625
aF0.87451171875
aF0.87646484375
aF0.87158203125
aF0.85888671875
aF0.845703125
aF0.83642578125
aF0.81689453125
aF0.80126953125
aF0.79248046875
aF0.7724609375
aF0.6005859375
asg10
(lp25
I29
aI30
aI30
aI30
aI30
aI30
aI30
aI30
aI30
aI29
aI29
aI29
aI28
aI28
aI27
aI27
aI27
aI26
aI25
aI25
aI25
aI25
aI25
aI25
aI24
aI23
aI22
aI22
aI22
aI22
aI22
aI22
aI22
aI21
aI20
aI20
aI20
aI20
aI20
aI20
aI20
aI20
aI20
aI20
aI19
aI19
aI18
aI18
aI18
aI18
aI18
aI18
aI18
aI18
aI18
aI18
aI18
aI19
aI19
aI19
aI19
aI19
aI19
aI20
aI21
aI21
aI22
aI22
aI21
aI22
aI23
aI24
aI24
aI24
aI24
aI24
aI24
aI25
aI26
aI26
aI26
aI26
aI26
aI26
aI26
aI27
aI27
aI28
aI28
aI28
aI28
aI28
aI29
aI29
aI29
aI29
aI29
aI29
aI29
aI29
aI29
aI29
aI29
aI29
aI29
aI28
aI27
aI27
aI27
aI26
aI26
aI25
aI25
aI24
aI24
aI23
aI22
aI20
aI20
aI19
aI18
aI18
aI16
aI15
aI14
aI14
aI13
aI11
aI11
aI10
aI10
aI10
aI10
aI9
aI9
aI9
aI8
aI8
aI7
asg12
(lp26
I1826
aI1868
aI1902
aI1934
aI1966
aI1997
aI2028
aI2060
aI2091
aI2123
aI2154
aI2186
aI2217
aI2249
aI2280
aI2311
aI2343
aI2374
aI2405
aI2437
aI2468
aI2500
aI2535
aI2570
aI2603
aI2638
aI2673
aI2708
aI2742
aI2777
aI2812
aI2845
aI2880
aI2916
aI2951
aI2986
aI3021
aI3056
aI3091
aI3125
aI3160
aI3195
aI3195
aI3230
aI3265
aI3299
aI3334
aI3367
aI3402
aI3438
aI3473
aI3508
aI3543
aI3578
aI3614
aI3649
aI3684
aI3720
aI3754
aI3790
aI3824
aI3856
aI3891
aI3924
aI3959
aI3993
aI3993
aI4028
aI4062
aI4096
aI4131
aI4165
aI4200
aI4234
aI4234
aI4269
aI4303
aI4338
aI4372
aI4407
aI4441
aI4475
aI4510
aI4545
aI4580
aI4614
aI4649
aI4683
aI4718
aI4752
aI4787
aI4821
aI4853
aI4887
aI4922
aI4957
aI4991
aI5026
aI5060
aI5095
aI5130
aI5164
aI5199
aI5235
aI5269
aI5301
aI5335
aI5369
aI5404
aI5438
aI5472
aI5506
aI5541
aI5575
aI5609
aI5644
aI5678
aI5712
aI5747
aI5781
aI5816
aI5848
aI5882
aI5914
aI5948
aI5983
aI6017
aI6051
aI6085
aI6119
aI6153
aI6188
aI6221
aI6256
aI6290
aI6324
aI6358
aI6391
aI6426
asg14
(lp27
F661.7119750976562
aF660.0780639648438
aF660.241455078125
aF660.89501953125
aF660.5682373046875
aF661.123779296875
aF663.7053833007812
aF668.639892578125
aF672.7574462890625
aF674.16259765625
aF673.5416870117188
aF670.6006469726562
aF667.4307861328125
aF665.8295288085938
aF665.0452270507812
aF664.45703125
aF663.0518188476562
aF660.5355834960938
aF657.2349853515625
aF653.9671630859375
aF651.64697265625
aF648.4771118164062
aF644.784423828125
aF641.7125854492188
aF639.3923950195312
aF637.5623779296875
aF636.2225952148438
aF635.5363159179688
aF635.2095336914062
aF635.1115112304688
aF635.1115112304688
aF635.0787963867188
aF634.6867065429688
aF633.6082763671875
aF631.5494995117188
aF628.9025268554688
aF625.6346435546875
aF623.1510620117188
aF620.5368041992188
aF618.2819213867188
aF616.1251220703125
aF615.7330322265625
aF613.0859985351562
aF610.1449584960938
aF608.6090087890625
aF607.4979858398438
aF605.9947509765625
aF604.0339965820312
aF600.798828125
aF596.7466430664062
aF590.864501953125
aF584.9169311523438
aF575.9302978515625
aF566.1920166015625
aF558.34912109375
aF549.7872924804688
aF542.4019165039062
aF534.3629150390625
aF528.8075561523438
aF522.761962890625
aF518.350341796875
aF515.2785034179688
aF512.794921875
aF511.3897399902344
aF510.8015441894531
aF510.7361755371094
aF510.6708068847656
aF511.5204772949219
aF513.0890502929688
aF514.363525390625
aF516.2589111328125
aF518.317626953125
aF520.6705322265625
aF521.0953369140625
aF523.6116333007812
aF525.866455078125
aF528.1212768554688
aF530.702880859375
aF535.572021484375
aF541.4542236328125
aF549.5585327148438
aF556.355712890625
aF561.5842895507812
aF567.2704467773438
aF573.1199340820312
aF580.3745727539062
aF586.4528198242188
aF592.8905639648438
aF598.347900390625
aF604.8509521484375
aF610.046875
aF614.719970703125
aF618.3800048828125
aF621.58251953125
aF624.425537109375
aF628.64111328125
aF631.5822143554688
aF635.3075561523438
aF639.8499145507812
aF644.6536865234375
aF648.6731567382812
aF653.3462524414062
aF659.816650390625
aF666.9406127929688
aF672.5940551757812
aF677.038330078125
aF680.6656494140625
aF684.1622924804688
aF686.9073486328125
aF689.7177124023438
aF693.181640625
aF696.2207641601562
aF699.6193237304688
aF702.5604248046875
aF705.8283081054688
aF710.2726440429688
aF714.2267456054688
aF717.49462890625
aF718.9651489257812
aF720.4357299804688
aF721.9716186523438
aF722.6578979492188
aF722.8865966796875
aF722.9193115234375
aF722.6578979492188
aF722.1676635742188
aF721.93896484375
aF721.7428588867188
aF721.3180541992188
aF719.5860595703125
aF716.2855224609375
aF710.8934936523438
aF703.1813354492188
aF697.7566528320312
aF692.952880859375
aF687.3648071289062
aF682.789794921875
aF678.6723022460938
aF675.5678100585938
asg16
(lp28
F2754.626220703125
aF2753.6787109375
aF2754.757080078125
aF2757.73095703125
aF2760.475830078125
aF2761.65234375
aF2762.53466796875
aF2763.253662109375
aF2764.135986328125
aF2765.508544921875
aF2767.82861328125
aF2771.880859375
aF2776.06396484375
aF2779.10302734375
aF2783.08984375
aF2788.677978515625
aF2797.01123046875
aF2805.9326171875
aF2813.775634765625
aF2820.932373046875
aF2825.343994140625
aF2830.834228515625
aF2838.2197265625
aF2844.82080078125
aF2849.4287109375
aF2853.644287109375
aF2858.415283203125
aF2863.088623046875
aF2868.382568359375
aF2872.95751953125
aF2879.199462890625
aF2884.427978515625
aF2888.67626953125
aF2892.891845703125
aF2897.467041015625
aF2902.107421875
aF2907.238037109375
aF2910.767333984375
aF2914.100830078125
aF2917.107177734375
aF2920.375244140625
aF2921.093994140625
aF2926.159423828125
aF2932.205078125
aF2937.335693359375
aF2942.596923828125
aF2947.2373046875
aF2950.799560546875
aF2954.5576171875
aF2957.858154296875
aF2961.485595703125
aF2964.067138671875
aF2967.302490234375
aF2970.341552734375
aF2971.8447265625
aF2971.58349609375
aF2969.132568359375
aF2965.537841796875
aF2962.400634765625
aF2957.56396484375
aF2953.0869140625
aF2948.936767578125
aF2943.642822265625
aF2938.119873046875
aF2931.7802734375
aF2930.669189453125
aF2923.871826171875
aF2916.4208984375
aF2907.205322265625
aF2899.689208984375
aF2892.33642578125
aF2886.323486328125
aF2879.656982421875
aF2878.48046875
aF2871.487060546875
aF2864.755126953125
aF2858.21923828125
aF2853.41552734375
aF2846.71630859375
aF2840.8994140625
aF2834.5595703125
aF2829.853759765625
aF2826.683837890625
aF2823.87353515625
aF2820.866943359375
aF2816.945556640625
aF2814.42919921875
aF2812.468505859375
aF2810.703857421875
aF2808.28564453125
aF2806.2919921875
aF2804.331298828125
aF2802.72998046875
aF2801.09619140625
aF2799.20068359375
aF2796.5537109375
aF2795.083251953125
aF2793.80859375
aF2793.0244140625
aF2793.253173828125
aF2794.527587890625
aF2796.5537109375
aF2799.102783203125
aF2801.978515625
aF2805.246337890625
aF2809.00439453125
aF2813.1220703125
aF2818.742919921875
aF2823.546630859375
aF2827.794921875
aF2832.33740234375
aF2835.93212890625
aF2839.624755859375
aF2842.1083984375
aF2844.46142578125
aF2847.9580078125
aF2851.4873046875
aF2856.16064453125
aF2861.38916015625
aF2868.15380859375
aF2876.813720703125
aF2884.59130859375
aF2893.022705078125
aF2900.3427734375
aF2911.290283203125
aF2921.486328125
aF2930.048095703125
aF2937.95654296875
aF2944.29638671875
aF2952.302734375
aF2959.655517578125
aF2966.6162109375
aF2973.25
aF2976.779296875
aF2978.903564453125
aF2981.191162109375
aF2985.079833984375
aF2990.047119140625
aF2992.792236328125
assg18
(lp29
ssS'm'
p30
(dp31
g3
I6
sg4
(dp32
g6
(lp33
I-3
aI-3
aI-4
aI-4
aI-4
aI-4
aI-4
aI-4
aI-4
aI-4
aI-4
aI-4
aI-3
aI-3
aI-2
aI-2
aI-2
aI-2
aI-1
aI-1
aI0
aI0
aI1
aI2
aI2
aI2
aI3
aI3
aI3
aI3
aI3
aI3
aI3
aI3
aI3
aI3
aI3
aI3
aI3
aI3
aI3
aI3
aI3
aI2
aI1
aI1
aI1
aI0
aI0
aI-1
aI-1
aI-1
aI-1
aI-1
aI-2
aI-2
aI-2
aI-3
aI-3
aI-4
aI-5
aI-6
aI-6
aI-7
aI-7
aI-7
aI-8
aI-8
aI-9
aI-10
aI-10
aI-11
aI-11
aI-11
aI-11
aI-12
aI-12
aI-13
aI-14
aI-14
aI-15
aI-15
aI-15
aI-15
aI-15
aI-16
aI-16
aI-16
aI-16
aI-16
aI-16
aI-16
aI-16
aI-16
aI-16
aI-16
aI-16
aI-15
aI-15
aI-14
aI-13
aI-13
aI-12
aI-11
aI-11
aI-10
aI-9
aI-8
aI-7
aI-7
aI-6
aI-5
aI-4
aI-4
aI-3
aI-3
aI-2
aI-1
aI-1
aI0
aI0
aI0
aI1
aI1
aI1
aI1
aI1
aI1
aI1
aI1
aI2
aI2
aI2
aI2
aI2
aI2
aI2
aI2
aI2
aI2
aI1
aI1
aI1
aI0
aI0
aI0
aI0
aI0
aI0
aI-1
aI-1
aI-1
aI-1
aI-1
aI-1
aI-1
aI-2
aI-2
aI-2
aI-2
aI-2
aI-2
aI-2
aI-2
aI-2
aI-2
aI-3
aI-3
aI-4
aI-5
aI-5
aI-6
aI-6
aI-6
aI-6
aI-7
aI-7
aI-7
aI-7
aI-8
aI-9
aI-9
aI-10
aI-11
aI-11
aI-12
aI-12
aI-12
aI-13
aI-13
aI-14
aI-15
aI-16
aI-16
aI-17
aI-17
aI-18
aI-18
aI-18
aI-18
aI-18
aI-18
aI-18
aI-18
aI-18
aI-18
aI-18
aI-18
aI-18
aI-18
aI-18
aI-18
aI-18
aI-18
aI-18
aI-17
aI-17
aI-17
aI-17
aI-17
aI-17
aI-17
aI-17
aI-17
aI-17
aI-18
aI-18
aI-19
aI-19
aI-19
aI-19
aI-19
aI-19
aI-19
aI-19
aI-19
aI-18
aI-18
aI-17
aI-16
aI-15
aI-13
aI-12
aI-11
aI-10
aI-9
aI-8
aI-7
aI-6
aI-5
aI-4
aI-3
aI-2
aI-2
aI-1
aI0
aI0
aI0
aI0
aI1
aI1
aI1
aI1
aI1
aI1
aI1
aI1
aI1
aI0
aI0
aI0
aI-1
aI-1
aI-1
aI-2
aI-2
aI-2
aI-2
aI-2
aI-2
aI-2
aI-2
aI-2
aI-2
aI-2
aI-2
aI-2
aI-2
aI-3
aI-3
aI-3
aI-3
aI-3
aI-4
aI-5
aI-5
aI-6
aI-7
aI-7
aI-8
aI-9
aI-9
aI-10
aI-10
aI-11
aI-12
aI-12
aI-12
aI-13
aI-14
aI-14
aI-15
aI-16
aI-16
aI-17
aI-18
aI-18
aI-18
aI-18
aI-18
aI-19
aI-19
aI-19
aI-19
aI-19
aI-20
aI-20
aI-21
aI-21
aI-21
aI-21
aI-21
aI-21
aI-21
aI-21
aI-22
aI-22
aI-22
aI-22
aI-22
aI-22
aI-22
aI-21
aI-21
aI-20
aI-19
aI-18
aI-17
aI-17
aI-16
aI-15
aI-14
aI-14
aI-13
aI-12
aI-12
aI-11
aI-10
aI-9
aI-8
aI-7
asg8
(lp34
F0.17626953125
aF0.21044921875
aF0.2451171875
aF0.26513671875
aF0.27001953125
aF0.28564453125
aF0.3193359375
aF0.33544921875
aF0.3837890625
aF0.4306640625
aF0.46875
aF0.494140625
aF0.515625
aF0.53759765625
aF0.55126953125
aF0.55859375
aF0.5703125
aF0.58154296875
aF0.5888671875
aF0.59228515625
aF0.60107421875
aF0.61279296875
aF0.615234375
aF0.6201171875
aF0.6201171875
aF0.62255859375
aF0.62353515625
aF0.62353515625
aF0.625
aF0.6220703125
aF0.62353515625
aF0.62890625
aF0.62939453125
aF0.6337890625
aF0.63427734375
aF0.634765625
aF0.64208984375
aF0.64697265625
aF0.6494140625
aF0.65234375
aF0.6591796875
aF0.6650390625
aF0.67333984375
aF0.67626953125
aF0.6806640625
aF0.68408203125
aF0.68408203125
aF0.68896484375
aF0.69287109375
aF0.69921875
aF0.70263671875
aF0.70654296875
aF0.71044921875
aF0.7119140625
aF0.71630859375
aF0.7216796875
aF0.7265625
aF0.7275390625
aF0.72900390625
aF0.7294921875
aF0.7314453125
aF0.73583984375
aF0.73876953125
aF0.7421875
aF0.744140625
aF0.7490234375
aF0.751953125
aF0.75439453125
aF0.76171875
aF0.76318359375
aF0.76611328125
aF0.76318359375
aF0.75732421875
aF0.755859375
aF0.755859375
aF0.75390625
aF0.75439453125
aF0.75537109375
aF0.7529296875
aF0.75537109375
aF0.75244140625
aF0.75
aF0.751953125
aF0.74658203125
aF0.74853515625
aF0.74462890625
aF0.7451171875
aF0.7421875
aF0.7314453125
aF0.72802734375
aF0.72314453125
aF0.720703125
aF0.72412109375
aF0.72705078125
aF0.728515625
aF0.72607421875
aF0.72900390625
aF0.73046875
aF0.7294921875
aF0.72998046875
aF0.734375
aF0.736328125
aF0.73583984375
aF0.73388671875
aF0.73583984375
aF0.734375
aF0.7314453125
aF0.732421875
aF0.7333984375
aF0.732421875
aF0.732421875
aF0.72802734375
aF0.72802734375
aF0.7265625
aF0.7265625
aF0.72314453125
aF0.72119140625
aF0.72119140625
aF0.71826171875
aF0.71435546875
aF0.708984375
aF0.70361328125
aF0.7060546875
aF0.70361328125
aF0.703125
aF0.701171875
aF0.69921875
aF0.69921875
aF0.701171875
aF0.70068359375
aF0.7021484375
aF0.7060546875
aF0.70849609375
aF0.708984375
aF0.71142578125
aF0.716796875
aF0.71484375
aF0.72021484375
aF0.72265625
aF0.72705078125
aF0.73046875
aF0.73779296875
aF0.7431640625
aF0.74365234375
aF0.7509765625
aF0.7509765625
aF0.7548828125
aF0.7587890625
aF0.75927734375
aF0.76171875
aF0.765625
aF0.76953125
aF0.7744140625
aF0.779296875
aF0.78369140625
aF0.7900390625
aF0.79296875
aF0.79638671875
aF0.798828125
aF0.79736328125
aF0.7998046875
aF0.80322265625
aF0.80615234375
aF0.80859375
aF0.8134765625
aF0.8193359375
aF0.8232421875
aF0.82568359375
aF0.82958984375
aF0.83251953125
aF0.83251953125
aF0.83251953125
aF0.83740234375
aF0.83935546875
aF0.83935546875
aF0.83984375
aF0.84912109375
aF0.85205078125
aF0.857421875
aF0.8583984375
aF0.8603515625
aF0.86279296875
aF0.86279296875
aF0.85986328125
aF0.85986328125
aF0.8564453125
aF0.8583984375
aF0.8544921875
aF0.85693359375
aF0.85302734375
aF0.8525390625
aF0.85546875
aF0.85302734375
aF0.8525390625
aF0.85546875
aF0.85546875
aF0.85205078125
aF0.8544921875
aF0.853515625
aF0.853515625
aF0.84765625
aF0.84521484375
aF0.83740234375
aF0.8359375
aF0.826171875
aF0.82373046875
aF0.81884765625
aF0.81591796875
aF0.80224609375
aF0.78955078125
aF0.77001953125
aF0.7353515625
aF0.67822265625
aF0.5419921875
aF0.18994140625
aF0.25634765625
aF0.28125
aF0.2919921875
aF0.3291015625
aF0.37060546875
aF0.40478515625
aF0.43994140625
aF0.4794921875
aF0.50439453125
aF0.51904296875
aF0.546875
aF0.58349609375
aF0.6162109375
aF0.64453125
aF0.65869140625
aF0.662109375
aF0.671875
aF0.68603515625
aF0.705078125
aF0.71875
aF0.72802734375
aF0.73828125
aF0.74560546875
aF0.751953125
aF0.7587890625
aF0.76220703125
aF0.765625
aF0.7685546875
aF0.76904296875
aF0.7685546875
aF0.76220703125
aF0.76123046875
aF0.759765625
aF0.75732421875
aF0.75732421875
aF0.7568359375
aF0.75341796875
aF0.75244140625
aF0.75439453125
aF0.75341796875
aF0.75146484375
aF0.75439453125
aF0.75439453125
aF0.75537109375
aF0.7529296875
aF0.7529296875
aF0.75341796875
aF0.75439453125
aF0.755859375
aF0.75927734375
aF0.759765625
aF0.76171875
aF0.763671875
aF0.763671875
aF0.76953125
aF0.7705078125
aF0.76806640625
aF0.76904296875
aF0.76953125
aF0.7763671875
aF0.7802734375
aF0.7802734375
aF0.78076171875
aF0.78125
aF0.7841796875
aF0.78955078125
aF0.7998046875
aF0.81298828125
aF0.822265625
aF0.826171875
aF0.8359375
aF0.85009765625
aF0.8544921875
aF0.86279296875
aF0.873046875
aF0.884765625
aF0.8876953125
aF0.90966796875
aF0.9150390625
aF0.91943359375
aF0.92626953125
aF0.93408203125
aF0.939453125
aF0.93896484375
aF0.94384765625
aF0.9482421875
aF0.94775390625
aF0.94580078125
aF0.94970703125
aF0.94482421875
aF0.93896484375
aF0.93359375
aF0.9306640625
aF0.9296875
aF0.93212890625
aF0.9287109375
aF0.9306640625
aF0.93310546875
aF0.93359375
aF0.93359375
aF0.9326171875
aF0.93212890625
aF0.92919921875
aF0.9326171875
aF0.9306640625
aF0.927734375
aF0.9306640625
aF0.9287109375
aF0.9287109375
aF0.927734375
aF0.93115234375
aF0.931640625
aF0.93212890625
aF0.92919921875
aF0.9326171875
aF0.9296875
aF0.931640625
aF0.931640625
aF0.93408203125
aF0.93603515625
aF0.94384765625
aF0.94580078125
aF0.94580078125
aF0.9462890625
aF0.94970703125
aF0.94921875
aF0.9443359375
aF0.94189453125
aF0.9404296875
aF0.9306640625
aF0.9248046875
aF0.91796875
aF0.91357421875
aF0.90478515625
aF0.9013671875
aF0.888671875
aF0.87939453125
aF0.87646484375
aF0.86767578125
aF0.85791015625
aF0.8486328125
aF0.826171875
aF0.78271484375
aF0.669921875
aF0.36328125
aF0.02880859375
asg10
(lp35
I29
aI29
aI29
aI29
aI29
aI29
aI29
aI29
aI29
aI29
aI29
aI29
aI29
aI29
aI29
aI29
aI29
aI28
aI28
aI28
aI28
aI28
aI28
aI27
aI27
aI27
aI27
aI27
aI27
aI27
aI27
aI27
aI27
aI27
aI27
aI26
aI26
aI26
aI25
aI25
aI24
aI24
aI24
aI24
aI24
aI23
aI23
aI23
aI23
aI23
aI23
aI23
aI22
aI22
aI22
aI22
aI22
aI22
aI22
aI22
aI22
aI22
aI22
aI22
aI22
aI22
aI22
aI22
aI22
aI22
aI22
aI21
aI21
aI21
aI21
aI21
aI20
aI20
aI20
aI20
aI19
aI19
aI18
aI18
aI18
aI17
aI17
aI17
aI17
aI17
aI17
aI17
aI17
aI17
aI17
aI17
aI17
aI17
aI17
aI17
aI18
aI18
aI18
aI19
aI19
aI19
aI20
aI20
aI20
aI20
aI20
aI21
aI21
aI21
aI21
aI22
aI22
aI22
aI22
aI22
aI22
aI22
aI22
aI22
aI22
aI22
aI22
aI22
aI22
aI22
aI22
aI21
aI21
aI21
aI20
aI20
aI20
aI20
aI19
aI19
aI19
aI19
aI19
aI18
aI18
aI17
aI17
aI16
aI16
aI15
aI15
aI15
aI15
aI15
aI15
aI15
aI15
aI15
aI15
aI15
aI15
aI14
aI14
aI14
aI14
aI14
aI14
aI14
aI13
aI13
aI13
aI13
aI13
aI12
aI12
aI12
aI12
aI12
aI11
aI11
aI11
aI11
aI10
aI10
aI10
aI10
aI10
aI10
aI10
aI10
aI10
aI10
aI10
aI10
aI10
aI10
aI10
aI10
aI10
aI10
aI10
aI10
aI10
aI10
aI10
aI10
aI10
aI10
aI10
aI10
aI10
aI10
aI10
aI11
aI12
aI17
aI17
aI17
aI18
aI18
aI18
aI18
aI18
aI18
aI18
aI18
aI18
aI18
aI18
aI18
aI18
aI17
aI17
aI17
aI17
aI17
aI17
aI18
aI18
aI18
aI19
aI19
aI20
aI21
aI21
aI21
aI22
aI22
aI22
aI22
aI22
aI22
aI22
aI21
aI21
aI20
aI20
aI20
aI20
aI20
aI20
aI20
aI19
aI19
aI19
aI18
aI18
aI17
aI16
aI16
aI15
aI15
aI15
aI15
aI15
aI15
aI15
aI15
aI15
aI15
aI15
aI15
aI15
aI15
aI15
aI14
aI14
aI14
aI13
aI12
aI12
aI11
aI11
aI11
aI11
aI11
aI10
aI10
aI9
aI9
aI8
aI8
aI7
aI7
aI7
aI7
aI7
aI7
aI8
aI8
aI8
aI8
aI8
aI8
aI8
aI8
aI8
aI8
aI8
aI8
aI7
aI7
aI7
aI7
aI7
aI7
aI7
aI7
aI7
aI7
aI7
aI7
aI7
aI7
aI6
aI6
aI5
aI5
aI5
aI5
aI5
aI5
aI5
aI5
aI4
aI4
aI4
aI4
aI4
aI4
aI4
aI4
aI4
aI5
aI5
aI6
aI6
aI7
aI7
aI7
aI7
asg12
(lp36
I1645
aI1663
aI1680
aI1698
aI1713
aI1714
aI1730
aI1746
aI1746
aI1762
aI1779
aI1795
aI1811
aI1826
aI1842
aI1857
aI1857
aI1873
aI1889
aI1905
aI1920
aI1936
aI1952
aI1969
aI1986
aI2003
aI2020
aI2036
aI2053
aI2070
aI2087
aI2104
aI2120
aI2137
aI2154
aI2171
aI2187
aI2204
aI2221
aI2238
aI2254
aI2271
aI2288
aI2305
aI2322
aI2338
aI2355
aI2372
aI2389
aI2406
aI2422
aI2439
aI2456
aI2473
aI2489
aI2506
aI2523
aI2540
aI2557
aI2574
aI2590
aI2607
aI2624
aI2640
aI2657
aI2674
aI2674
aI2690
aI2707
aI2724
aI2741
aI2757
aI2774
aI2791
aI2808
aI2824
aI2841
aI2858
aI2875
aI2891
aI2908
aI2925
aI2942
aI2958
aI2975
aI2992
aI3009
aI3026
aI3043
aI3059
aI3076
aI3093
aI3110
aI3127
aI3143
aI3160
aI3177
aI3194
aI3194
aI3211
aI3228
aI3244
aI3261
aI3277
aI3292
aI3307
aI3323
aI3338
aI3354
aI3369
aI3385
aI3401
aI3417
aI3434
aI3449
aI3465
aI3481
aI3497
aI3513
aI3529
aI3546
aI3562
aI3578
aI3594
aI3609
aI3625
aI3641
aI3656
aI3672
aI3688
aI3704
aI3719
aI3735
aI3751
aI3766
aI3766
aI3782
aI3798
aI3814
aI3830
aI3846
aI3862
aI3879
aI3895
aI3911
aI3927
aI3943
aI3958
aI3974
aI3990
aI4005
aI4021
aI4036
aI4052
aI4068
aI4085
aI4102
aI4118
aI4135
aI4151
aI4168
aI4185
aI4202
aI4219
aI4235
aI4252
aI4269
aI4286
aI4303
aI4320
aI4336
aI4352
aI4368
aI4383
aI4400
aI4415
aI4431
aI4448
aI4465
aI4481
aI4498
aI4514
aI4531
aI4548
aI4564
aI4580
aI4597
aI4613
aI4630
aI4646
aI4663
aI4679
aI4695
aI4712
aI4729
aI4745
aI4762
aI4778
aI4795
aI4810
aI4826
aI4841
aI4857
aI4872
aI4888
aI4903
aI4918
aI4934
aI4949
aI4965
aI4981
aI4997
aI5013
aI5029
aI5046
aI5576
aI5593
aI5611
aI5628
aI5643
aI5658
aI5673
aI5689
aI5704
aI5719
aI5734
aI5750
aI5766
aI5781
aI5797
aI5813
aI5829
aI5845
aI5860
aI5876
aI5891
aI5906
aI5922
aI5937
aI5952
aI5967
aI5983
aI5998
aI6014
aI6030
aI6046
aI6062
aI6078
aI6093
aI6108
aI6124
aI6139
aI6154
aI6169
aI6185
aI6200
aI6215
aI6231
aI6247
aI6263
aI6279
aI6295
aI6310
aI6326
aI6341
aI6356
aI6372
aI6387
aI6403
aI6418
aI6434
aI6449
aI6464
aI6480
aI6496
aI6512
aI6527
aI6543
aI6558
aI6574
aI6589
aI6604
aI6619
aI6635
aI6650
aI6665
aI6681
aI6697
aI6713
aI6729
aI6744
aI6759
aI6774
aI6789
aI6805
aI6820
aI6835
aI6850
aI6865
aI6881
aI6898
aI6914
aI6930
aI6945
aI6961
aI6977
aI6992
aI7008
aI7023
aI7039
aI7054
aI7069
aI7085
aI7100
aI7116
aI7131
aI7147
aI7163
aI7179
aI7195
aI7211
aI7227
aI7242
aI7257
aI7273
aI7288
aI7303
aI7319
aI7334
aI7350
aI7365
aI7381
aI7381
aI7397
aI7413
aI7429
aI7445
aI7460
aI7476
aI7491
aI7506
aI7522
aI7537
aI7552
aI7568
aI7583
aI7598
aI7614
aI7630
aI7646
aI7662
aI7678
aI7693
aI7708
aI7723
aI7738
aI7754
aI7769
aI7785
aI7800
aI7815
asg14
(lp37
F623.7393188476562
aF624.2948608398438
aF624.3928833007812
aF624.4909057617188
aF624.5235595703125
aF624.4909057617188
aF624.3275146484375
aF624.19677734375
aF623.2490844726562
aF621.125
aF617.4323120117188
aF612.0076293945312
aF605.2431030273438
aF597.7923583984375
aF592.8251953125
aF590.4396362304688
aF585.7992553710938
aF579.1328125
aF572.695068359375
aF566.518798828125
aF560.7346801757812
aF555.3426513671875
aF550.146728515625
aF545.08154296875
aF540.441162109375
aF535.4086303710938
aF532.5982666015625
aF530.6702270507812
aF529.4611206054688
aF529.0036010742188
aF528.938232421875
aF529.5591430664062
aF530.735595703125
aF532.9577026367188
aF534.8530883789062
aF536.8138427734375
aF538.9706420898438
aF541.2254638671875
aF543.6110229492188
aF545.9312133789062
aF548.2186889648438
aF551.29052734375
aF553.7413940429688
aF556.3230590820312
aF559.002685546875
aF561.6170043945312
aF564.0352172851562
aF566.1593627929688
aF568.9043579101562
aF571.2572021484375
aF574.034912109375
aF577.3027954101562
aF580.7340698242188
aF584.197998046875
aF587.5966186523438
aF591.0278930664062
aF595.9296875
aF599.7203979492188
aF603.6091918945312
aF607.628662109375
aF611.8768920898438
aF616.0924682617188
aF620.1119384765625
aF624.0333862304688
aF628.3796997070312
aF629.9155883789062
aF634.7520141601562
aF639.457763671875
aF643.7387084960938
aF647.7908325195312
aF652.1044311523438
aF657.136962890625
aF663.0518188476562
aF671.6790161132812
aF677.69189453125
aF682.3976440429688
aF685.7962646484375
aF688.6066284179688
aF691.5477294921875
aF694.8809204101562
aF698.5736083984375
aF704.031005859375
aF708.5079956054688
aF713.1156616210938
aF717.3312377929688
aF720.59912109375
aF722.5271606445312
aF723.3441162109375
aF723.5728759765625
aF723.5728759765625
aF723.474853515625
aF722.78857421875
aF721.1219482421875
aF717.8541259765625
aF712.854248046875
aF706.5799560546875
aF699.7174072265625
aF697.4298706054688
aF690.5673217773438
aF683.7701416015625
aF676.5155029296875
aF668.5418701171875
aF660.2088012695312
aF651.6142578125
aF642.6276245117188
aF633.3468627929688
aF624.5562744140625
aF616.909423828125
aF610.2102661132812
aF605.9620361328125
aF599.262939453125
aF592.171630859375
aF585.1783447265625
aF577.2374267578125
aF573.8715209960938
aF569.2311401367188
aF565.0155639648438
aF561.3882446289062
aF557.9896240234375
aF554.4930419921875
aF550.8983764648438
aF547.499755859375
aF544.6240234375
aF542.3365478515625
aF540.6045532226562
aF539.330078125
aF538.5457763671875
aF538.1536254882812
aF538.02294921875
aF538.1209716796875
aF538.7418823242188
aF539.8529663085938
aF541.4215087890625
aF542.6959838867188
aF543.3822631835938
aF544.8201293945312
aF547.0422973632812
aF549.068359375
aF550.9310302734375
aF552.6630249023438
aF554.39501953125
aF555.9635620117188
aF557.8262329101562
aF559.0680541992188
aF559.885009765625
aF561.1594848632812
aF562.5973510742188
aF564.2639770507812
aF566.1593627929688
aF568.283447265625
aF570.4402465820312
aF572.4990234375
aF574.263671875
aF575.6361694335938
aF576.7472534179688
aF577.6949462890625
aF578.6099243164062
aF579.59033203125
aF580.7013549804688
aF582.008544921875
aF583.4790649414062
aF585.8319702148438
aF587.98876953125
aF590.4396362304688
aF593.053955078125
aF595.6029052734375
aF598.1845092773438
aF600.6354370117188
aF603.641845703125
aF605.7659912109375
aF607.9881591796875
aF610.4063720703125
aF613.0859985351562
aF615.9617309570312
aF618.90283203125
aF620.9616088867188
aF624.1641235351562
aF628.9352416992188
aF632.7913208007812
aF636.7127685546875
aF640.6995849609375
aF644.6864013671875
aF648.6731567382812
aF652.8233642578125
aF657.2677001953125
aF662.0714721679688
aF667.332763671875
aF672.8881225585938
aF680.0447998046875
aF684.7178344726562
aF688.7373046875
aF692.3319702148438
aF695.7959594726562
aF699.129150390625
aF702.1029663085938
aF704.6192016601562
aF706.9393920898438
aF709.1288452148438
aF711.1876220703125
aF713.05029296875
aF714.5535278320312
aF715.4685668945312
aF715.8607177734375
aF715.926025390625
aF715.926025390625
aF715.8933715820312
aF715.8933715820312
aF715.6973266601562
aF715.1744384765625
aF714.161376953125
aF712.854248046875
aF711.4817504882812
aF710.1419067382812
aF708.7040405273438
aF706.7433471679688
aF704.259765625
aF702.2009887695312
aF700.7304077148438
aF697.822021484375
aF696.7763061523438
aF696.4495239257812
aF697.7566528320312
aF700.69775390625
aF704.880615234375
aF707.7890625
aF711.547119140625
aF714.2267456054688
aF715.8933715820312
aF716.9064331054688
aF717.4619750976562
aF717.6253662109375
aF716.8737182617188
aF714.6842651367188
aF710.8934936523438
aF705.56689453125
aF698.9657592773438
aF693.9985961914062
aF684.554443359375
aF670.3391723632812
aF655.2416381835938
aF643.0851440429688
aF631.3534545898438
aF620.1446533203125
aF610.7985229492188
aF605.7006225585938
aF602.4327392578125
aF595.04736328125
aF587.1390991210938
aF580.0477905273438
aF574.0022583007812
aF568.9043579101562
aF564.296630859375
aF559.885009765625
aF557.00927734375
aF552.9244384765625
aF549.1663818359375
aF545.9312133789062
aF543.120849609375
aF540.7352905273438
aF538.9379272460938
aF537.8268432617188
aF537.4674072265625
aF537.8595581054688
aF539.2320556640625
aF541.4542236328125
aF543.3495483398438
aF546.617431640625
aF550.2120971679688
aF554.0355224609375
aF557.695556640625
aF560.7346801757812
aF562.79345703125
aF563.5450439453125
aF564.06787109375
aF564.1005859375
aF563.9698486328125
aF563.7738037109375
aF563.67578125
aF563.5450439453125
aF563.447021484375
aF563.447021484375
aF563.447021484375
aF563.5450439453125
aF563.9044799804688
aF564.55810546875
aF565.6038208007812
aF567.1397094726562
aF569.3618774414062
aF572.3682861328125
aF576.224365234375
aF580.9954833984375
aF584.5574951171875
aF590.17822265625
aF595.8316650390625
aF601.3543701171875
aF606.3869018554688
aF610.7658081054688
aF613.4781494140625
aF617.56298828125
aF621.9746704101562
aF627.1705932617188
aF633.4775390625
aF640.56884765625
aF647.6928100585938
aF654.522705078125
aF661.0911254882812
aF667.3981323242188
aF673.5744018554688
aF679.3585205078125
aF684.4890747070312
aF689.0314331054688
aF691.87451171875
aF695.7959594726562
aF699.2925415039062
aF702.5277709960938
aF705.5341796875
aF708.2792358398438
aF710.7301025390625
aF713.0176391601562
aF715.043701171875
aF716.6776733398438
aF717.9521484375
aF719.0958862304688
aF719.8801879882812
aF721.0892944335938
aF722.135009765625
aF722.8539428710938
aF723.24609375
aF723.442138671875
aF723.3114624023438
aF722.6578979492188
aF722.0042724609375
aF721.6121215820312
aF720.2723388671875
aF719.1939086914062
aF717.3638916015625
aF715.30517578125
aF713.1810302734375
aF711.0242309570312
aF708.8347778320312
aF706.0897216796875
aF702.3970336914062
aF697.5606079101562
aF693.9332275390625
aF688.0183715820312
aF682.0054931640625
aF676.2867431640625
aF671.0254516601562
aF666.18896484375
aF661.6466674804688
aF657.136962890625
aF652.4639282226562
aF647.856201171875
aF643.444580078125
aF640.56884765625
aF636.2879638671875
aF632.0723876953125
aF627.987548828125
aF623.8699951171875
aF619.3930053710938
aF616.1578369140625
asg16
(lp38
F2708.091064453125
aF2708.31982421875
aF2708.31982421875
aF2708.614013671875
aF2708.81005859375
aF2709.30029296875
aF2710.14990234375
aF2710.444091796875
aF2711.42431640625
aF2712.600830078125
aF2714.006103515625
aF2715.738037109375
aF2717.7314453125
aF2719.855712890625
aF2721.260986328125
aF2721.91455078125
aF2723.15625
aF2725.01904296875
aF2727.012451171875
aF2729.300048828125
aF2731.979736328125
aF2734.88818359375
aF2737.9599609375
aF2741.1298828125
aF2744.1689453125
aF2747.665771484375
aF2749.691650390625
aF2751.227783203125
aF2752.24072265625
aF2752.894287109375
aF2753.417236328125
aF2754.234130859375
aF2755.541259765625
aF2758.0576171875
aF2760.2470703125
aF2762.53466796875
aF2765.181640625
aF2768.2861328125
aF2771.5869140625
aF2774.756591796875
aF2777.567138671875
aF2780.8349609375
aF2782.991943359375
aF2784.756591796875
aF2786.129150390625
aF2787.1748046875
aF2788.0244140625
aF2788.743408203125
aF2789.658447265625
aF2790.31201171875
aF2790.76953125
aF2791.031005859375
aF2791.12890625
aF2791.12890625
aF2791.031005859375
aF2790.638671875
aF2789.723876953125
aF2788.84130859375
aF2787.861083984375
aF2786.847900390625
aF2785.900390625
aF2785.115966796875
aF2784.46240234375
aF2783.841552734375
aF2783.18798828125
aF2782.959228515625
aF2782.27294921875
aF2781.84814453125
aF2781.488525390625
aF2781.194580078125
aF2780.769775390625
aF2780.181396484375
aF2779.364501953125
aF2778.18798828125
aF2777.534423828125
aF2777.175048828125
aF2777.044189453125
aF2777.044189453125
aF2777.076904296875
aF2777.33837890625
aF2777.926513671875
aF2779.10302734375
aF2780.214111328125
aF2781.42333984375
aF2782.534423828125
aF2783.416748046875
aF2783.97216796875
aF2784.200927734375
aF2784.266357421875
aF2784.266357421875
aF2784.266357421875
aF2784.4296875
aF2784.9853515625
aF2785.932861328125
aF2787.109375
aF2788.44921875
aF2789.82177734375
aF2790.279296875
aF2791.619140625
aF2792.92626953125
aF2794.070068359375
aF2795.083251953125
aF2795.900146484375
aF2796.58642578125
aF2797.109375
aF2797.46875
aF2797.79541015625
aF2798.220458984375
aF2798.612548828125
aF2798.77587890625
aF2798.8740234375
aF2798.84130859375
aF2798.80859375
aF2798.906494140625
aF2799.037353515625
aF2799.298828125
aF2799.7890625
aF2800.344482421875
aF2800.96533203125
aF2801.618896484375
aF2802.337890625
aF2803.089599609375
aF2803.77587890625
aF2804.396728515625
aF2804.886962890625
aF2805.344482421875
aF2805.736572265625
aF2806.128662109375
aF2806.717041015625
aF2807.599365234375
aF2808.9716796875
aF2810.997802734375
aF2813.6123046875
aF2815.70361328125
aF2816.880126953125
aF2819.559814453125
aF2824.069580078125
aF2828.448486328125
aF2832.206787109375
aF2835.637939453125
aF2838.938720703125
aF2841.912353515625
aF2845.441650390625
aF2847.860107421875
aF2849.33056640625
aF2851.389404296875
aF2853.3828125
aF2855.441650390625
aF2857.663818359375
aF2860.04931640625
aF2862.40234375
aF2864.363037109375
aF2865.83349609375
aF2866.912109375
aF2867.66357421875
aF2868.317138671875
aF2868.905517578125
aF2869.49365234375
aF2870.114501953125
aF2870.83349609375
aF2871.552490234375
aF2872.53271484375
aF2873.251708984375
aF2873.93798828125
aF2874.558837890625
aF2875.016357421875
aF2875.441162109375
aF2875.80078125
aF2876.291015625
aF2876.55224609375
aF2876.846435546875
aF2877.10791015625
aF2877.336669921875
aF2877.5654296875
aF2877.859619140625
aF2878.0556640625
aF2878.317138671875
aF2878.48046875
aF2878.51318359375
aF2878.4150390625
aF2878.153564453125
aF2877.663330078125
aF2876.977294921875
aF2876.029541015625
aF2874.8203125
aF2873.251708984375
aF2871.421630859375
aF2869.4609375
aF2866.81396484375
aF2865.04931640625
aF2863.546142578125
aF2862.206298828125
aF2860.89892578125
aF2859.72265625
aF2858.84033203125
aF2858.251953125
aF2857.76171875
aF2857.206298828125
aF2856.6181640625
aF2856.02978515625
aF2855.5068359375
aF2855.11474609375
aF2854.82080078125
aF2854.68994140625
aF2854.559326171875
aF2854.461181640625
aF2854.461181640625
aF2854.33056640625
aF2854.232421875
aF2854.134521484375
aF2854.036376953125
aF2853.938232421875
aF2853.8076171875
aF2853.611572265625
aF2853.252197265625
aF2874.558837890625
aF2872.10791015625
aF2870.931640625
aF2868.970703125
aF2868.382568359375
aF2867.892333984375
aF2867.630859375
aF2867.500244140625
aF2867.6962890625
aF2868.12109375
aF2869.00341796875
aF2869.951171875
aF2870.8662109375
aF2871.81396484375
aF2872.72900390625
aF2873.807373046875
aF2875.21240234375
aF2876.879150390625
aF2878.611083984375
aF2880.21240234375
aF2881.650390625
aF2882.4345703125
aF2883.44775390625
aF2884.101318359375
aF2883.970458984375
aF2883.38232421875
aF2882.82666015625
aF2882.271240234375
aF2881.813720703125
aF2881.682861328125
aF2881.682861328125
aF2881.879150390625
aF2882.696044921875
aF2884.003173828125
aF2885.57177734375
aF2887.46728515625
aF2889.754638671875
aF2892.6630859375
aF2894.88525390625
aF2898.578125
aF2902.336181640625
aF2905.73486328125
aF2908.610595703125
aF2910.99609375
aF2912.85888671875
aF2914.362060546875
aF2915.701904296875
aF2917.36865234375
aF2919.721435546875
aF2922.6953125
aF2924.884765625
aF2928.381591796875
aF2932.1396484375
aF2936.25732421875
aF2940.6689453125
aF2944.851806640625
aF2948.2177734375
aF2950.01513671875
aF2952.302734375
aF2954.328857421875
aF2955.8974609375
aF2956.84521484375
aF2957.367919921875
aF2957.858154296875
aF2958.4462890625
aF2959.132568359375
aF2959.9169921875
aF2960.570556640625
aF2961.681640625
aF2963.0869140625
aF2964.81884765625
aF2967.041015625
aF2970.047607421875
aF2973.903564453125
aF2978.511474609375
aF2983.870849609375
aF2987.759521484375
aF2993.576416015625
aF2998.641845703125
aF3002.82470703125
aF3006.3212890625
aF3009.229736328125
aF3010.92919921875
aF3013.216796875
aF3015.30810546875
aF3017.13818359375
aF3018.54345703125
aF3019.262451171875
aF3019.39306640625
aF3019.066162109375
aF3018.151123046875
aF3016.582763671875
aF3014.262451171875
aF3011.451904296875
aF3008.54345703125
aF3005.798583984375
aF3004.06640625
aF3001.84423828125
aF3000.1123046875
aF2998.837890625
aF2997.89013671875
aF2997.236572265625
aF2996.746337890625
aF2996.4521484375
aF2996.321533203125
aF2996.354248046875
aF2996.713623046875
aF2997.269287109375
aF2997.759521484375
aF2998.641845703125
aF2999.7529296875
aF3001.12548828125
aF3002.82470703125
aF3004.72021484375
aF3006.84423828125
aF3009.16455078125
aF3010.79833984375
aF3011.648193359375
aF3014.262451171875
aF3016.125244140625
aF3019.32763671875
aF3023.34716796875
aF3028.085693359375
aF3033.314453125
aF3039.00048828125
aF3045.177001953125
aF3051.353271484375
aF3056.97412109375
aF3060.1767578125
aF3064.261474609375
aF3067.33349609375
aF3069.4248046875
aF3070.535888671875
aF3070.993408203125
aF3071.124267578125
aF3071.156982421875
aF3071.189453125
aF3071.3203125
aF3071.614501953125
aF3071.973876953125
aF3072.69287109375
aF3073.5751953125
aF3074.52294921875
aF3075.437744140625
aF3076.385498046875
aF3077.00634765625
assg18
(lp39
ssS'l'
p40
(dp41
g3
I1
sg4
(dp42
g6
(lp43
I12
aI12
aI12
aI12
aI12
aI12
aI12
aI11
aI11
aI11
aI11
aI11
aI11
aI11
aI11
aI10
aI9
aI9
aI8
aI8
aI7
aI6
aI5
aI5
aI4
aI4
aI3
aI3
aI3
aI3
aI3
aI3
aI3
aI3
aI3
aI3
aI3
aI2
aI2
aI2
aI2
aI2
aI2
aI1
aI1
aI1
aI1
aI1
aI1
aI1
aI1
aI1
aI1
aI1
aI1
aI1
aI2
aI3
aI3
aI3
aI4
aI4
aI5
aI5
aI5
aI5
aI5
aI6
aI7
aI7
aI9
aI10
aI10
aI11
aI12
aI13
aI14
aI14
aI14
aI14
aI15
aI15
aI16
aI17
aI18
aI18
aI18
aI19
aI19
aI19
aI19
aI19
aI20
aI20
aI20
aI21
aI21
aI21
aI21
aI21
aI21
aI21
aI21
aI21
aI21
aI21
aI21
aI21
aI21
aI21
aI21
aI21
aI21
aI21
aI22
aI22
aI22
aI23
aI23
aI24
aI24
aI24
aI25
aI25
aI25
aI25
aI25
aI25
aI25
aI25
aI25
aI25
aI25
aI25
aI25
aI25
aI25
aI26
aI26
aI27
aI27
aI28
aI28
aI28
aI29
aI29
aI30
aI30
aI30
aI30
aI30
aI30
aI30
aI30
aI30
aI30
aI30
aI30
aI31
aI31
aI32
aI32
aI33
aI33
aI34
aI34
aI35
aI35
aI35
aI35
aI35
aI35
aI35
aI35
aI35
aI36
aI36
aI36
aI36
aI36
aI36
aI36
aI36
aI36
aI36
aI36
aI36
aI36
aI36
aI36
aI37
aI37
aI37
aI37
aI37
aI38
aI38
aI38
aI38
aI37
aI37
aI37
aI37
aI37
aI37
aI36
aI36
aI35
aI35
aI35
aI35
aI35
aI35
aI35
aI35
aI35
aI35
aI35
aI35
aI35
aI35
aI35
aI35
aI35
aI35
aI35
aI35
aI35
aI35
aI35
aI35
aI35
aI35
aI35
aI35
aI35
aI35
aI35
aI35
aI35
aI35
aI35
aI35
aI34
aI33
aI33
aI32
aI32
aI31
aI31
aI31
aI30
aI30
aI30
aI29
aI28
aI27
aI26
aI26
aI25
aI24
aI24
aI23
aI23
aI22
aI21
aI20
aI20
aI19
aI18
aI17
aI17
aI17
aI17
aI16
aI16
aI15
aI14
aI13
aI13
aI12
aI11
aI11
aI11
aI11
aI10
aI10
aI9
aI8
aI7
aI7
aI6
aI5
aI4
aI3
aI3
aI3
aI2
aI1
aI0
aI0
aI0
aI-1
aI-1
aI-2
aI-2
aI-2
aI-3
aI-3
aI-3
aI-3
aI-3
aI-3
aI-3
aI-3
aI-3
aI-2
aI-2
aI3
aI3
aI3
aI3
aI3
aI3
aI3
aI3
aI2
aI2
aI2
aI2
aI2
aI2
aI2
aI2
aI3
aI4
aI5
aI5
aI5
aI5
aI5
aI6
aI6
aI6
aI6
aI6
aI6
aI6
aI6
aI7
aI7
aI7
aI8
aI8
aI9
aI9
aI9
aI10
aI10
aI11
aI11
aI12
aI12
asg8
(lp44
F0.29443359375
aF0.2998046875
aF0.30517578125
aF0.3173828125
aF0.32861328125
aF0.35498046875
aF0.4013671875
aF0.43115234375
aF0.45947265625
aF0.49267578125
aF0.52294921875
aF0.54638671875
aF0.57373046875
aF0.59521484375
aF0.61376953125
aF0.62890625
aF0.63818359375
aF0.64208984375
aF0.65673828125
aF0.67041015625
aF0.68505859375
aF0.69482421875
aF0.7021484375
aF0.70703125
aF0.712890625
aF0.720703125
aF0.72412109375
aF0.72607421875
aF0.72509765625
aF0.728515625
aF0.7294921875
aF0.73046875
aF0.7333984375
aF0.73291015625
aF0.732421875
aF0.73291015625
aF0.7333984375
aF0.7333984375
aF0.736328125
aF0.73828125
aF0.73828125
aF0.74169921875
aF0.74609375
aF0.75048828125
aF0.75146484375
aF0.751953125
aF0.75439453125
aF0.75439453125
aF0.75439453125
aF0.75439453125
aF0.75439453125
aF0.75341796875
aF0.75146484375
aF0.75048828125
aF0.74951171875
aF0.748046875
aF0.74609375
aF0.740234375
aF0.73828125
aF0.73583984375
aF0.7294921875
aF0.7255859375
aF0.71923828125
aF0.7158203125
aF0.71337890625
aF0.7099609375
aF0.708984375
aF0.70654296875
aF0.7041015625
aF0.7021484375
aF0.6982421875
aF0.6943359375
aF0.68994140625
aF0.6826171875
aF0.677734375
aF0.67822265625
aF0.6787109375
aF0.6826171875
aF0.68603515625
aF0.68701171875
aF0.68310546875
aF0.67822265625
aF0.6748046875
aF0.6748046875
aF0.6728515625
aF0.6689453125
aF0.6669921875
aF0.6650390625
aF0.66259765625
aF0.65966796875
aF0.6572265625
aF0.65625
aF0.654296875
aF0.6533203125
aF0.65283203125
aF0.650390625
aF0.6494140625
aF0.64892578125
aF0.64892578125
aF0.6494140625
aF0.650390625
aF0.650390625
aF0.65234375
aF0.65283203125
aF0.65625
aF0.658203125
aF0.66064453125
aF0.6630859375
aF0.6640625
aF0.66552734375
aF0.66748046875
aF0.66748046875
aF0.6669921875
aF0.66357421875
aF0.66162109375
aF0.6591796875
aF0.6591796875
aF0.65869140625
aF0.65869140625
aF0.658203125
aF0.658203125
aF0.658203125
aF0.658203125
aF0.65771484375
aF0.6572265625
aF0.6572265625
aF0.65478515625
aF0.654296875
aF0.654296875
aF0.65771484375
aF0.65771484375
aF0.66015625
aF0.6630859375
aF0.66455078125
aF0.6640625
aF0.662109375
aF0.65966796875
aF0.65576171875
aF0.65283203125
aF0.64990234375
aF0.64794921875
aF0.64599609375
aF0.64599609375
aF0.6455078125
aF0.64111328125
aF0.63916015625
aF0.63623046875
aF0.63623046875
aF0.6357421875
aF0.6357421875
aF0.63525390625
aF0.63525390625
aF0.63427734375
aF0.63427734375
aF0.63427734375
aF0.6337890625
aF0.63427734375
aF0.634765625
aF0.63720703125
aF0.6396484375
aF0.64111328125
aF0.640625
aF0.63720703125
aF0.6357421875
aF0.6357421875
aF0.6357421875
aF0.63525390625
aF0.63525390625
aF0.634765625
aF0.63330078125
aF0.63134765625
aF0.630859375
aF0.62646484375
aF0.62548828125
aF0.62451171875
aF0.62353515625
aF0.6240234375
aF0.62548828125
aF0.625
aF0.623046875
aF0.62158203125
aF0.62255859375
aF0.623046875
aF0.61962890625
aF0.6181640625
aF0.61474609375
aF0.61376953125
aF0.61328125
aF0.611328125
aF0.61181640625
aF0.611328125
aF0.61474609375
aF0.615234375
aF0.61767578125
aF0.61767578125
aF0.6181640625
aF0.61865234375
aF0.61865234375
aF0.62158203125
aF0.61962890625
aF0.619140625
aF0.61669921875
aF0.61376953125
aF0.61328125
aF0.61328125
aF0.611328125
aF0.609375
aF0.607421875
aF0.60546875
aF0.59033203125
aF0.56103515625
aF0.55322265625
aF0.5498046875
aF0.54541015625
aF0.54345703125
aF0.5419921875
aF0.54150390625
aF0.53759765625
aF0.5302734375
aF0.5234375
aF0.517578125
aF0.51171875
aF0.50732421875
aF0.5029296875
aF0.5029296875
aF0.50244140625
aF0.50341796875
aF0.5078125
aF0.50732421875
aF0.50439453125
aF0.50048828125
aF0.49853515625
aF0.498046875
aF0.49755859375
aF0.498046875
aF0.4990234375
aF0.4990234375
aF0.4990234375
aF0.49951171875
aF0.4990234375
aF0.49853515625
aF0.49609375
aF0.498046875
aF0.49755859375
aF0.498046875
aF0.50048828125
aF0.50439453125
aF0.5068359375
aF0.51220703125
aF0.51708984375
aF0.52294921875
aF0.529296875
aF0.5400390625
aF0.55029296875
aF0.55810546875
aF0.56201171875
aF0.5625
aF0.56494140625
aF0.57080078125
aF0.5771484375
aF0.58447265625
aF0.58984375
aF0.59619140625
aF0.603515625
aF0.60986328125
aF0.61376953125
aF0.619140625
aF0.62353515625
aF0.6259765625
aF0.62890625
aF0.6337890625
aF0.6376953125
aF0.6416015625
aF0.64453125
aF0.6455078125
aF0.64892578125
aF0.65234375
aF0.65625
aF0.6591796875
aF0.66064453125
aF0.6640625
aF0.66650390625
aF0.66845703125
aF0.671875
aF0.673828125
aF0.6767578125
aF0.68115234375
aF0.68408203125
aF0.6865234375
aF0.68994140625
aF0.69189453125
aF0.6923828125
aF0.6953125
aF0.69873046875
aF0.70166015625
aF0.70361328125
aF0.70556640625
aF0.70556640625
aF0.70751953125
aF0.71044921875
aF0.7119140625
aF0.71240234375
aF0.71435546875
aF0.71484375
aF0.71484375
aF0.71533203125
aF0.71533203125
aF0.71533203125
aF0.71435546875
aF0.71044921875
aF0.7080078125
aF0.70166015625
aF0.68212890625
aF0.65283203125
aF0.60107421875
aF0.47509765625
aF0.28125
aF0.15234375
aF0.1728515625
aF0.20556640625
aF0.25390625
aF0.30419921875
aF0.34375
aF0.37548828125
aF0.42333984375
aF0.45654296875
aF0.46728515625
aF0.4873046875
aF0.50244140625
aF0.525390625
aF0.5546875
aF0.56787109375
aF0.57666015625
aF0.58642578125
aF0.5947265625
aF0.60302734375
aF0.61474609375
aF0.62255859375
aF0.62646484375
aF0.6279296875
aF0.63232421875
aF0.6337890625
aF0.63720703125
aF0.63916015625
aF0.63916015625
aF0.63916015625
aF0.64208984375
aF0.640625
aF0.6416015625
aF0.6455078125
aF0.6455078125
aF0.6474609375
aF0.64794921875
aF0.6474609375
aF0.6474609375
aF0.6484375
aF0.6484375
aF0.64306640625
aF0.62451171875
aF0.58251953125
aF0.47802734375
aF0.3916015625
aF0.0
asg10
(lp45
I24
aI24
aI24
aI24
aI24
aI24
aI24
aI24
aI24
aI24
aI24
aI24
aI24
aI24
aI24
aI24
aI24
aI24
aI24
aI24
aI24
aI24
aI24
aI24
aI24
aI24
aI24
aI24
aI24
aI24
aI24
aI24
aI24
aI24
aI25
aI25
aI25
aI25
aI25
aI25
aI25
aI25
aI25
aI25
aI25
aI25
aI25
aI26
aI26
aI27
aI27
aI27
aI28
aI28
aI28
aI28
aI28
aI28
aI28
aI29
aI29
aI29
aI29
aI29
aI29
aI29
aI29
aI29
aI29
aI30
aI31
aI31
aI32
aI32
aI32
aI32
aI32
aI32
aI32
aI32
aI32
aI32
aI32
aI32
aI32
aI32
aI32
aI32
aI32
aI32
aI32
aI32
aI32
aI32
aI32
aI32
aI32
aI32
aI32
aI32
aI32
aI32
aI31
aI31
aI31
aI31
aI31
aI31
aI31
aI31
aI31
aI31
aI31
aI31
aI31
aI31
aI31
aI31
aI31
aI31
aI31
aI31
aI31
aI31
aI31
aI31
aI31
aI31
aI32
aI32
aI32
aI32
aI32
aI31
aI31
aI31
aI31
aI31
aI31
aI31
aI31
aI31
aI31
aI30
aI30
aI30
aI30
aI30
aI29
aI29
aI29
aI29
aI29
aI28
aI28
aI28
aI28
aI28
aI28
aI28
aI28
aI28
aI28
aI28
aI28
aI28
aI28
aI28
aI28
aI28
aI28
aI28
aI27
aI27
aI27
aI27
aI27
aI28
aI28
aI28
aI29
aI29
aI29
aI29
aI29
aI29
aI29
aI29
aI29
aI28
aI28
aI27
aI27
aI27
aI27
aI27
aI27
aI27
aI27
aI27
aI28
aI28
aI29
aI29
aI29
aI29
aI29
aI29
aI29
aI29
aI29
aI29
aI29
aI29
aI29
aI29
aI29
aI29
aI29
aI28
aI28
aI28
aI28
aI28
aI28
aI28
aI28
aI28
aI28
aI28
aI28
aI28
aI28
aI28
aI28
aI28
aI28
aI28
aI28
aI28
aI28
aI29
aI29
aI30
aI30
aI30
aI30
aI30
aI30
aI30
aI30
aI30
aI30
aI30
aI30
aI30
aI30
aI30
aI30
aI30
aI30
aI30
aI30
aI30
aI30
aI30
aI30
aI30
aI30
aI30
aI30
aI30
aI30
aI30
aI30
aI30
aI30
aI30
aI30
aI30
aI30
aI30
aI30
aI30
aI30
aI30
aI30
aI30
aI30
aI30
aI30
aI30
aI30
aI30
aI30
aI30
aI30
aI30
aI30
aI30
aI30
aI30
aI30
aI30
aI30
aI30
aI30
aI30
aI30
aI30
aI30
aI30
aI30
aI30
aI30
aI30
aI30
aI30
aI27
aI27
aI27
aI27
aI27
aI27
aI27
aI27
aI27
aI27
aI27
aI27
aI27
aI27
aI27
aI27
aI26
aI26
aI26
aI26
aI26
aI26
aI26
aI26
aI26
aI26
aI26
aI26
aI26
aI26
aI26
aI26
aI26
aI26
aI26
aI26
aI26
aI26
aI26
aI26
aI26
aI26
aI26
aI26
aI26
asg12
(lp46
I3049
aI3068
aI3086
aI3102
aI3119
aI3136
aI3152
aI3169
aI3185
aI3202
aI3219
aI3235
aI3252
aI3268
aI3285
aI3301
aI3318
aI3335
aI3335
aI3351
aI3368
aI3384
aI3401
aI3417
aI3434
aI3450
aI3467
aI3484
aI3501
aI3517
aI3533
aI3550
aI3567
aI3583
aI3600
aI3616
aI3633
aI3649
aI3666
aI3682
aI3700
aI3717
aI3735
aI3752
aI3769
aI3786
aI3804
aI3821
aI3838
aI3855
aI3855
aI3872
aI3889
aI3906
aI3925
aI3942
aI3960
aI3978
aI3995
aI4012
aI4029
aI4046
aI4063
aI4080
aI4098
aI4115
aI4132
aI4149
aI4166
aI4183
aI4200
aI4216
aI4233
aI4250
aI4267
aI4284
aI4301
aI4319
aI4336
aI4352
aI4369
aI4386
aI4403
aI4420
aI4437
aI4454
aI4470
aI4487
aI4504
aI4521
aI4538
aI4555
aI4572
aI4589
aI4607
aI4625
aI4642
aI4660
aI4678
aI4695
aI4712
aI4729
aI4729
aI4746
aI4763
aI4780
aI4797
aI4814
aI4832
aI4849
aI4866
aI4883
aI4900
aI4917
aI4934
aI4950
aI4967
aI4985
aI5002
aI5002
aI5019
aI5036
aI5053
aI5070
aI5087
aI5104
aI5104
aI5121
aI5137
aI5154
aI5171
aI5188
aI5206
aI5223
aI5241
aI5258
aI5276
aI5294
aI5311
aI5329
aI5346
aI5363
aI5380
aI5397
aI5414
aI5431
aI5448
aI5465
aI5482
aI5499
aI5516
aI5533
aI5550
aI5567
aI5585
aI5602
aI5619
aI5636
aI5653
aI5670
aI5687
aI5704
aI5721
aI5738
aI5754
aI5771
aI5788
aI5806
aI5823
aI5841
aI5859
aI5876
aI5894
aI5911
aI5928
aI5946
aI5963
aI5980
aI5997
aI6014
aI6031
aI6048
aI6065
aI6082
aI6100
aI6117
aI6134
aI6151
aI6168
aI6185
aI6202
aI6219
aI6236
aI6253
aI6270
aI6287
aI6304
aI6321
aI6338
aI6355
aI6372
aI6389
aI6406
aI6424
aI6442
aI6460
aI6478
aI6495
aI6512
aI6529
aI6546
aI6564
aI6581
aI6598
aI6615
aI6632
aI6632
aI6649
aI6666
aI6683
aI6701
aI6718
aI6735
aI6752
aI6769
aI6786
aI6803
aI6820
aI6837
aI6854
aI6871
aI6888
aI6904
aI6921
aI6938
aI6956
aI6973
aI6990
aI7008
aI7008
aI7026
aI7043
aI7061
aI7078
aI7095
aI7113
aI7130
aI7147
aI7147
aI7164
aI7181
aI7199
aI7216
aI7233
aI7250
aI7267
aI7284
aI7301
aI7318
aI7336
aI7353
aI7370
aI7387
aI7404
aI7421
aI7438
aI7455
aI7472
aI7489
aI7507
aI7525
aI7543
aI7560
aI7578
aI7595
aI7612
aI7629
aI7647
aI7664
aI7681
aI7698
aI7715
aI7732
aI7749
aI7766
aI7783
aI7800
aI7817
aI7834
aI7851
aI7868
aI7885
aI7902
aI7919
aI7936
aI7952
aI7969
aI7986
aI8003
aI8020
aI8038
aI8054
aI8071
aI8089
aI8106
aI8123
aI8141
aI8158
aI8176
aI8194
aI8211
aI8228
aI8246
aI8263
aI8280
aI8297
aI8314
aI8314
aI8909
aI8947
aI8966
aI8982
aI8998
aI9014
aI9031
aI9047
aI9063
aI9063
aI9080
aI9096
aI9112
aI9128
aI9144
aI9160
aI9177
aI9194
aI9210
aI9227
aI9243
aI9260
aI9277
aI9293
aI9311
aI9327
aI9344
aI9360
aI9377
aI9394
aI9411
aI9427
aI9444
aI9460
aI9460
aI9477
aI9494
aI9511
aI9527
aI9544
aI9561
aI9577
aI9594
aI9611
aI9611
asg14
(lp47
F742.1017456054688
aF742.1671142578125
aF742.26513671875
aF742.26513671875
aF742.1343994140625
aF741.611572265625
aF741.0886840820312
aF741.121337890625
aF741.6768798828125
aF742.461181640625
aF743.2781372070312
aF744.258544921875
aF745.565673828125
aF747.4937133789062
aF750.0753173828125
aF753.1144409179688
aF756.3169555664062
aF757.3627319335938
aF760.6305541992188
aF764.2252197265625
aF768.2120361328125
aF772.2642211914062
aF775.826171875
aF778.701904296875
aF780.956787109375
aF782.7867431640625
aF784.3553466796875
aF785.6624755859375
aF787.0676879882812
aF787.7212524414062
aF788.1787719726562
aF788.440185546875
aF788.7015991210938
aF788.9630737304688
aF789.2244873046875
aF789.4859008789062
aF789.747314453125
aF790.0087890625
aF790.3028564453125
aF790.5643310546875
aF790.662353515625
aF790.5969848632812
aF790.2702026367188
aF789.5186157226562
aF788.864990234375
aF788.1134033203125
aF787.2637329101562
aF786.218017578125
aF784.910888671875
aF784.453369140625
aF782.8521118164062
aF781.0220947265625
aF778.9306640625
aF776.5451049804688
aF773.2445678710938
aF770.9243774414062
aF768.9636840820312
aF766.8721923828125
aF765.6304321289062
aF764.4866943359375
aF763.244873046875
aF761.6436157226562
aF758.6371459960938
aF755.728759765625
aF752.2974853515625
aF748.44140625
aF744.2911987304688
aF740.04296875
aF734.3241577148438
aF730.0432739257812
aF725.9584350585938
aF722.1676635742188
aF718.7037353515625
aF715.5665893554688
aF711.4817504882812
aF708.0831298828125
aF704.4884643554688
aF701.12255859375
aF698.05078125
aF695.2730712890625
aF691.7437744140625
aF689.3255615234375
aF687.0380249023438
aF684.8812255859375
aF683.1165771484375
aF681.9728393554688
aF681.1885375976562
aF680.0774536132812
aF679.1951293945312
aF678.3128051757812
aF677.463134765625
aF676.5481567382812
aF675.50244140625
aF673.9011840820312
aF672.5286865234375
aF671.05810546875
aF669.097412109375
aF667.6268310546875
aF666.1563110351562
aF664.685791015625
aF663.2805786132812
aF662.7904052734375
aF661.3851928710938
aF659.9800415039062
aF658.5094604492188
aF656.8755493164062
aF655.0128784179688
aF652.4639282226562
aF650.8626708984375
aF649.653564453125
aF648.54248046875
aF647.3006591796875
aF645.9281616210938
aF643.9347534179688
aF642.3662109375
aF640.7649536132812
aF639.1309814453125
aF637.3989868164062
aF636.810791015625
aF634.8827514648438
aF632.823974609375
aF630.6671752929688
aF628.5430908203125
aF626.4843139648438
aF624.5562744140625
aF623.968017578125
aF622.3014526367188
aF620.6348266601562
aF618.9682006835938
aF617.3015747070312
aF615.6676635742188
aF614.06640625
aF612.0076293945312
aF610.537109375
aF608.9358520507812
aF607.1384887695312
aF604.556884765625
aF602.8576049804688
aF601.452392578125
aF599.7857666015625
aF598.5440063476562
aF597.1714477539062
aF595.5375366210938
aF593.6748657226562
aF591.6814575195312
aF589.1325073242188
aF587.302490234375
aF585.3744506835938
aF583.4790649414062
aF581.6490478515625
aF579.361572265625
aF577.6622314453125
aF575.9629516601562
aF574.1656494140625
aF572.3029174804688
aF570.2442016601562
aF566.74755859375
aF563.64306640625
aF560.4732666015625
aF557.5975341796875
aF555.1138916015625
aF553.0878295898438
aF550.8330078125
aF549.2317504882812
aF547.5978393554688
aF545.8004760742188
aF543.9050903320312
aF542.1077880859375
aF539.983642578125
aF538.676513671875
aF537.4674072265625
aF535.8661499023438
aF534.689697265625
aF533.611328125
aF532.5656127929688
aF531.0950317382812
aF529.853271484375
aF528.4480590820312
aF526.9121704101562
aF525.2455444335938
aF522.99072265625
aF521.3894653320312
aF520.0169677734375
aF518.9058837890625
aF517.892822265625
aF516.4876098632812
aF515.3438720703125
aF514.2327880859375
aF513.1544189453125
aF511.97796630859375
aF510.3440246582031
aF509.265625
aF508.3506164550781
aF507.4356384277344
aF506.35723876953125
aF505.01739501953125
aF502.92596435546875
aF501.16131591796875
aF498.9718322753906
aF495.8673400878906
aF491.815185546875
aF486.9787292480469
aF479.59332275390625
aF473.4823913574219
aF467.044677734375
aF458.05804443359375
aF451.587646484375
aF445.9668884277344
aF441.7513427734375
aF438.94097900390625
aF438.5815124511719
aF438.71221923828125
aF439.4638366699219
aF440.37884521484375
aF441.19580078125
aF441.4572448730469
aF442.0454406738281
aF442.6009826660156
aF443.2218933105469
aF444.071533203125
aF445.01922607421875
aF446.48974609375
aF447.7315368652344
aF449.0386962890625
aF450.21514892578125
aF451.2281799316406
aF452.012451171875
aF452.8294372558594
aF453.3849792480469
aF453.97320556640625
aF454.8228454589844
aF455.9012451171875
aF457.0776672363281
aF458.4175109863281
aF459.0710754394531
aF459.59393310546875
aF460.21484375
aF461.03179931640625
aF461.35858154296875
aF462.404296875
aF463.58074951171875
aF464.7571716308594
aF466.619873046875
aF468.2864685058594
aF470.21453857421875
aF472.371337890625
aF474.78955078125
aF475.6391906738281
aF478.31884765625
aF481.16192626953125
aF484.2663879394531
aF487.89373779296875
aF493.7759094238281
aF498.9064636230469
aF504.3965148925781
aF509.72314453125
aF514.4615478515625
aF519.8208618164062
aF523.4808959960938
aF527.3043212890625
aF531.4218139648438
aF535.6700439453125
aF541.2908325195312
aF545.3756713867188
aF549.264404296875
aF552.8917846679688
aF556.3883666992188
aF559.8196411132812
aF564.4927368164062
aF568.0220336914062
aF571.6820678710938
aF575.4401245117188
aF580.668701171875
aF584.655517578125
aF588.609619140625
aF593.511474609375
aF596.7793579101562
aF599.7857666015625
aF602.5961303710938
aF605.5045776367188
aF608.5763549804688
aF612.7592163085938
aF615.9290771484375
aF619.1642456054688
aF622.46484375
aF625.8307495117188
aF630.3731079101562
aF633.8696899414062
aF637.3989868164062
aF640.9609985351562
aF644.5230102539062
aF648.0523071289062
aF651.5488891601562
aF656.3200073242188
aF660.1760864257812
aF664.2936401367188
aF668.5745239257812
aF672.6920776367188
aF676.4174194335938
aF680.6656494140625
aF683.443359375
aF685.7308959960938
aF687.4628295898438
aF688.8680419921875
aF690.3712768554688
aF691.2536010742188
aF691.8091430664062
aF692.1685791015625
aF692.528076171875
aF692.6914672851562
aF692.9202270507812
aF693.1162719726562
aF693.3450317382812
aF693.4430541992188
aF693.5410766601562
aF693.5410766601562
aF693.2796630859375
aF692.985595703125
aF754.61767578125
aF755.1405639648438
aF755.1405639648438
aF755.1405639648438
aF755.1405639648438
aF755.1732177734375
aF754.9771728515625
aF754.0621337890625
aF753.539306640625
aF751.2844848632812
aF749.127685546875
aF745.108154296875
aF739.3240356445312
aF735.3045654296875
aF731.873291015625
aF728.8668212890625
aF726.2198486328125
aF723.899658203125
aF722.0369873046875
aF720.3049926757812
aF718.2135620117188
aF715.6646118164062
aF712.6908569335938
aF709.6517333984375
aF705.9263305664062
aF703.4427490234375
aF701.1552734375
aF698.9984741210938
aF696.9070434570312
aF694.9136352539062
aF692.9202270507812
aF690.9268188476562
aF688.966064453125
aF688.34521484375
aF686.4171142578125
aF684.5217895507812
aF682.7571411132812
aF681.25390625
aF679.7833251953125
aF678.0186767578125
aF675.698486328125
aF672.85546875
aF669.947021484375
aF669.0320434570312
aF666.9406127929688
asg16
(lp48
F2951.42041015625
aF2951.322265625
aF2951.2568359375
aF2951.2568359375
aF2951.224365234375
aF2951.224365234375
aF2951.191650390625
aF2951.060791015625
aF2950.635986328125
aF2950.145751953125
aF2949.753662109375
aF2949.394287109375
aF2949.002197265625
aF2948.479248046875
aF2947.82568359375
aF2947.008544921875
aF2945.99560546875
aF2945.57080078125
aF2944.1328125
aF2942.3681640625
aF2940.440185546875
aF2938.610107421875
aF2937.10693359375
aF2936.028564453125
aF2935.113525390625
aF2934.36181640625
aF2933.642822265625
aF2932.923828125
aF2931.812744140625
aF2930.963134765625
aF2930.048095703125
aF2929.00244140625
aF2927.825927734375
aF2926.551513671875
aF2925.113525390625
aF2923.544921875
aF2921.9111328125
aF2920.0810546875
aF2917.989501953125
aF2915.63671875
aF2912.5322265625
aF2910.473388671875
aF2908.545166015625
aF2905.963623046875
aF2903.97021484375
aF2901.878662109375
aF2899.787353515625
aF2897.793701171875
aF2895.93115234375
aF2895.3427734375
aF2893.578125
aF2891.682861328125
aF2889.55859375
aF2887.074951171875
aF2883.055419921875
aF2879.656982421875
aF2876.2255859375
aF2872.271484375
aF2870.0166015625
aF2868.251953125
aF2866.650634765625
aF2865.11474609375
aF2863.15380859375
aF2861.78125
aF2860.572265625
aF2859.428466796875
aF2858.35009765625
aF2857.239013671875
aF2855.60498046875
aF2854.069091796875
aF2852.4677734375
aF2850.997314453125
aF2849.88623046875
aF2849.2978515625
aF2849.36328125
aF2850.212890625
aF2851.356689453125
aF2852.337158203125
aF2852.9580078125
aF2853.121337890625
aF2852.92529296875
aF2852.40234375
aF2851.65087890625
aF2850.73583984375
aF2849.853515625
aF2849.134521484375
aF2848.513671875
aF2847.761962890625
aF2847.337158203125
aF2846.977783203125
aF2846.68359375
aF2846.520263671875
aF2846.454833984375
aF2846.65087890625
aF2847.14111328125
aF2847.827392578125
aF2849.069091796875
aF2850.212890625
aF2851.4873046875
aF2852.85986328125
aF2854.26513671875
aF2854.72265625
aF2856.09521484375
aF2857.36962890625
aF2858.77490234375
aF2860.376220703125
aF2862.108154296875
aF2864.264892578125
aF2865.5068359375
aF2866.3564453125
aF2867.010009765625
aF2867.630859375
aF2868.1865234375
aF2868.774658203125
aF2869.3955078125
aF2870.049072265625
aF2870.931640625
aF2871.81396484375
aF2872.140625
aF2873.15380859375
aF2874.36279296875
aF2875.637451171875
aF2876.944580078125
aF2878.4150390625
aF2879.918212890625
aF2880.408447265625
aF2881.879150390625
aF2883.44775390625
aF2885.1142578125
aF2886.84619140625
aF2888.480224609375
aF2889.950927734375
aF2891.617431640625
aF2892.565185546875
aF2893.447509765625
aF2894.1337890625
aF2895.01611328125
aF2895.571533203125
aF2896.061767578125
aF2896.650146484375
aF2897.074951171875
aF2897.532470703125
aF2898.087890625
aF2898.61083984375
aF2899.068359375
aF2899.55859375
aF2899.95068359375
aF2900.37548828125
aF2900.8330078125
aF2901.127197265625
aF2901.486572265625
aF2901.71533203125
aF2901.976806640625
aF2902.303466796875
aF2902.69580078125
aF2903.185791015625
aF2904.231689453125
aF2905.31005859375
aF2906.421142578125
aF2907.336181640625
aF2907.95703125
aF2908.283935546875
aF2908.47998046875
aF2908.447265625
aF2908.34912109375
aF2908.218505859375
aF2908.120361328125
aF2907.92431640625
aF2907.662841796875
aF2907.43408203125
aF2907.238037109375
aF2906.878662109375
aF2906.355712890625
aF2905.63671875
aF2904.591064453125
aF2902.891845703125
aF2901.421142578125
aF2899.81982421875
aF2898.21875
aF2896.78076171875
aF2895.310302734375
aF2894.4931640625
aF2894.0029296875
aF2893.806884765625
aF2893.872314453125
aF2894.6240234375
aF2895.50634765625
aF2896.519287109375
aF2897.63037109375
aF2898.839599609375
aF2900.44091796875
aF2901.29052734375
aF2901.748046875
aF2901.845947265625
aF2901.813232421875
aF2901.64990234375
aF2901.3232421875
aF2900.8984375
aF2900.212158203125
aF2899.0029296875
aF2897.1728515625
aF2894.689208984375
aF2890.50634765625
aF2886.91162109375
aF2883.186279296875
aF2878.611083984375
aF2875.865966796875
aF2873.774658203125
aF2872.500244140625
aF2871.81396484375
aF2871.7158203125
aF2871.650390625
aF2871.61767578125
aF2871.585205078125
aF2871.454345703125
aF2871.388916015625
aF2871.19287109375
aF2870.931640625
aF2870.539306640625
aF2869.91845703125
aF2869.13427734375
aF2867.925048828125
aF2866.912109375
aF2865.8662109375
aF2864.885986328125
aF2863.970947265625
aF2863.251953125
aF2862.532958984375
aF2861.9775390625
aF2861.3564453125
aF2860.6376953125
aF2859.918701171875
aF2859.26513671875
aF2858.6767578125
aF2858.3173828125
aF2858.023193359375
aF2857.663818359375
aF2857.108154296875
aF2856.912109375
aF2856.225830078125
aF2855.474365234375
aF2854.68994140625
aF2853.77490234375
aF2853.186767578125
aF2852.631103515625
aF2852.206298828125
aF2851.9775390625
aF2851.94482421875
aF2851.814208984375
aF2851.781494140625
aF2851.781494140625
aF2851.814208984375
aF2851.9775390625
aF2852.1083984375
aF2852.206298828125
aF2852.271728515625
aF2852.40234375
aF2852.85986328125
aF2853.513427734375
aF2854.26513671875
aF2854.885986328125
aF2855.376220703125
aF2855.768310546875
aF2855.931884765625
aF2855.931884765625
aF2855.703125
aF2855.376220703125
aF2855.016845703125
aF2854.6572265625
aF2854.461181640625
aF2854.19970703125
aF2853.90576171875
aF2853.3828125
aF2852.9580078125
aF2852.663818359375
aF2852.239013671875
aF2851.94482421875
aF2851.716064453125
aF2851.454833984375
aF2851.16064453125
aF2850.833740234375
aF2850.474365234375
aF2850.34375
aF2850.34375
aF2850.34375
aF2850.34375
aF2850.408935546875
aF2850.474365234375
aF2850.474365234375
aF2850.474365234375
aF2850.441650390625
aF2850.441650390625
aF2850.441650390625
aF2850.441650390625
aF2850.441650390625
aF2850.408935546875
aF2850.34375
aF2850.31103515625
aF2850.31103515625
aF2850.31103515625
aF2850.31103515625
aF2850.31103515625
aF2850.31103515625
aF2850.31103515625
aF2850.24560546875
aF2850.212890625
aF2850.1474609375
aF2850.082275390625
aF2850.016845703125
aF2849.984130859375
aF2849.951416015625
aF2849.88623046875
aF2849.853515625
aF2849.7880859375
aF2849.68994140625
aF2849.46142578125
aF2849.36328125
aF2849.36328125
aF2812.23974609375
aF2811.7822265625
aF2811.7822265625
aF2811.7822265625
aF2811.7822265625
aF2811.880126953125
aF2812.30517578125
aF2813.252685546875
aF2813.710205078125
aF2815.507568359375
aF2817.010986328125
aF2819.4619140625
aF2822.56640625
aF2824.559814453125
aF2826.12841796875
aF2827.3701171875
aF2828.3505859375
aF2829.102294921875
aF2829.65771484375
aF2830.1806640625
aF2830.768798828125
aF2831.585693359375
aF2832.566162109375
aF2833.67724609375
aF2835.147705078125
aF2836.128173828125
aF2837.075927734375
aF2837.892822265625
aF2838.54638671875
aF2839.199951171875
aF2839.853515625
aF2840.50732421875
aF2841.22607421875
aF2841.487548828125
aF2842.2392578125
aF2843.0888671875
aF2843.90576171875
aF2844.559326171875
aF2845.212890625
aF2845.997314453125
aF2846.945068359375
aF2847.892822265625
aF2848.611572265625
aF2848.742431640625
aF2848.873046875
assg18
(lp49
ssS'o'
p50
(dp51
g3
I0
sg4
(dp52
g6
(lp53
I9
aI9
aI9
aI9
aI8
aI8
aI7
aI7
aI6
aI6
aI6
aI6
aI6
aI6
aI6
aI6
aI6
aI6
aI6
aI7
aI7
aI7
aI7
aI8
aI9
aI9
aI10
aI11
aI11
aI12
aI12
aI12
aI12
aI13
aI14
aI15
aI16
aI16
aI17
aI17
aI17
aI17
aI17
aI17
aI17
aI17
aI17
aI17
aI16
aI16
aI15
aI13
aI12
aI11
aI10
aI10
aI10
aI9
aI8
aI7
aI6
aI4
aI4
aI4
aI4
aI3
aI3
aI3
aI3
aI3
aI3
aI3
aI3
aI3
aI3
aI3
aI9
aI9
aI9
aI9
aI9
aI9
aI8
aI8
aI7
aI6
aI5
aI5
aI5
aI5
aI5
aI5
aI5
aI5
aI5
aI5
aI5
aI5
aI6
aI6
aI6
aI7
aI7
aI7
aI8
aI8
aI8
aI9
aI9
aI10
aI10
aI11
aI11
aI12
aI12
aI13
aI13
aI14
aI14
aI14
aI15
aI15
aI15
aI15
aI15
aI15
aI16
aI16
aI16
aI16
aI17
aI17
aI17
aI17
aI17
aI17
aI17
aI17
aI18
aI18
aI18
aI18
aI18
aI18
aI18
aI18
aI18
aI18
aI18
aI18
aI18
aI19
aI19
aI19
aI19
aI19
aI19
aI19
aI19
aI19
aI19
aI19
aI19
aI19
aI19
aI19
aI19
aI19
aI19
aI20
aI20
aI20
aI20
aI20
aI20
aI20
aI20
aI20
aI20
aI20
aI20
aI20
aI20
aI20
aI21
aI21
aI21
aI21
aI21
aI21
aI21
aI21
aI21
aI21
aI21
aI20
aI20
aI20
aI20
aI19
aI19
aI19
aI19
aI19
aI19
aI19
aI19
aI19
aI19
aI19
aI19
aI19
aI19
aI19
aI19
aI19
aI19
aI19
aI19
aI19
aI19
aI19
aI19
aI19
aI19
aI19
aI19
aI19
aI19
aI19
aI18
aI18
aI17
aI17
aI16
aI15
aI15
aI14
aI14
aI13
aI13
aI13
aI12
aI11
aI11
aI10
aI9
aI8
aI8
aI7
aI6
aI6
aI5
aI5
aI5
aI5
aI5
aI4
aI4
aI3
aI2
aI1
aI1
aI0
aI0
aI0
aI-1
aI-1
aI-1
aI-1
aI-2
aI-2
aI-2
aI-2
aI-2
aI-2
aI-2
aI-2
aI-3
aI-3
aI-3
aI-4
aI-4
aI-4
aI-5
aI-5
aI-5
aI-5
aI-5
aI-6
aI-6
aI-6
aI-6
aI-6
aI-6
aI-6
aI-6
aI-6
aI-7
aI-7
aI-7
aI-7
aI-7
aI-7
aI-7
aI-8
aI-8
aI-8
aI-8
aI-8
aI-8
aI-8
aI-8
aI-8
aI-7
aI-6
aI-5
aI-5
aI-5
aI-4
aI-3
aI-2
aI-2
aI-1
aI0
aI0
aI0
aI0
aI1
aI1
aI1
aI2
aI2
aI2
aI3
aI4
aI5
aI5
aI6
aI7
aI7
aI7
aI8
asg8
(lp54
F0.50634765625
aF0.59228515625
aF0.6513671875
aF0.69091796875
aF0.732421875
aF0.74951171875
aF0.76318359375
aF0.77587890625
aF0.78369140625
aF0.787109375
aF0.78515625
aF0.779296875
aF0.77880859375
aF0.7744140625
aF0.771484375
aF0.76611328125
aF0.763671875
aF0.755859375
aF0.74267578125
aF0.7392578125
aF0.7373046875
aF0.73046875
aF0.72216796875
aF0.71728515625
aF0.71240234375
aF0.7138671875
aF0.71533203125
aF0.71044921875
aF0.6953125
aF0.68310546875
aF0.66552734375
aF0.6552734375
aF0.6552734375
aF0.65869140625
aF0.6572265625
aF0.65283203125
aF0.6591796875
aF0.6630859375
aF0.6669921875
aF0.666015625
aF0.66259765625
aF0.66162109375
aF0.65966796875
aF0.65869140625
aF0.6591796875
aF0.6591796875
aF0.66162109375
aF0.67138671875
aF0.677734375
aF0.68505859375
aF0.68994140625
aF0.69775390625
aF0.70947265625
aF0.7197265625
aF0.72802734375
aF0.7373046875
aF0.74609375
aF0.759765625
aF0.763671875
aF0.77001953125
aF0.77685546875
aF0.78076171875
aF0.77978515625
aF0.7783203125
aF0.7783203125
aF0.78173828125
aF0.783203125
aF0.7841796875
aF0.7880859375
aF0.7890625
aF0.79052734375
aF0.791015625
aF0.78955078125
aF0.7734375
aF0.6923828125
aF0.326171875
aF0.1162109375
aF0.28076171875
aF0.326171875
aF0.3701171875
aF0.41015625
aF0.4609375
aF0.51708984375
aF0.5595703125
aF0.58447265625
aF0.60107421875
aF0.619140625
aF0.638671875
aF0.6533203125
aF0.6611328125
aF0.6689453125
aF0.6767578125
aF0.68896484375
aF0.69921875
aF0.70556640625
aF0.708984375
aF0.71435546875
aF0.71533203125
aF0.71728515625
aF0.716796875
aF0.716796875
aF0.71923828125
aF0.71923828125
aF0.716796875
aF0.712890625
aF0.7119140625
aF0.71142578125
aF0.71142578125
aF0.7099609375
aF0.70458984375
aF0.701171875
aF0.69775390625
aF0.6923828125
aF0.685546875
aF0.681640625
aF0.67822265625
aF0.6787109375
aF0.67822265625
aF0.67529296875
aF0.67529296875
aF0.67578125
aF0.67724609375
aF0.677734375
aF0.67919921875
aF0.6796875
aF0.67529296875
aF0.6669921875
aF0.66064453125
aF0.65576171875
aF0.65185546875
aF0.64599609375
aF0.64453125
aF0.6435546875
aF0.64306640625
aF0.64306640625
aF0.64111328125
aF0.64013671875
aF0.64013671875
aF0.6396484375
aF0.63671875
aF0.63037109375
aF0.62646484375
aF0.62158203125
aF0.61767578125
aF0.61572265625
aF0.61376953125
aF0.61328125
aF0.61279296875
aF0.609375
aF0.60546875
aF0.6025390625
aF0.60009765625
aF0.599609375
aF0.599609375
aF0.6015625
aF0.603515625
aF0.6044921875
aF0.60546875
aF0.60546875
aF0.60546875
aF0.60546875
aF0.60546875
aF0.60595703125
aF0.60888671875
aF0.60888671875
aF0.609375
aF0.609375
aF0.609375
aF0.60888671875
aF0.60888671875
aF0.60986328125
aF0.61181640625
aF0.6162109375
aF0.6162109375
aF0.6162109375
aF0.61669921875
aF0.6171875
aF0.6181640625
aF0.61865234375
aF0.6181640625
aF0.61572265625
aF0.61376953125
aF0.61376953125
aF0.61328125
aF0.60986328125
aF0.607421875
aF0.607421875
aF0.60595703125
aF0.607421875
aF0.609375
aF0.61181640625
aF0.61279296875
aF0.611328125
aF0.61083984375
aF0.6083984375
aF0.60791015625
aF0.609375
aF0.609375
aF0.6064453125
aF0.60791015625
aF0.6064453125
aF0.60791015625
aF0.6064453125
aF0.607421875
aF0.607421875
aF0.60693359375
aF0.60693359375
aF0.6083984375
aF0.607421875
aF0.60693359375
aF0.60693359375
aF0.607421875
aF0.607421875
aF0.60791015625
aF0.607421875
aF0.60791015625
aF0.6083984375
aF0.60888671875
aF0.609375
aF0.609375
aF0.6103515625
aF0.61083984375
aF0.61181640625
aF0.6123046875
aF0.61328125
aF0.61376953125
aF0.615234375
aF0.61669921875
aF0.61767578125
aF0.62158203125
aF0.62255859375
aF0.62548828125
aF0.62646484375
aF0.62841796875
aF0.63134765625
aF0.6337890625
aF0.63623046875
aF0.63623046875
aF0.6376953125
aF0.64208984375
aF0.646484375
aF0.6533203125
aF0.66259765625
aF0.6650390625
aF0.67236328125
aF0.67529296875
aF0.6806640625
aF0.6875
aF0.6962890625
aF0.70166015625
aF0.708984375
aF0.71826171875
aF0.73095703125
aF0.74365234375
aF0.7548828125
aF0.76220703125
aF0.77978515625
aF0.7900390625
aF0.796875
aF0.80322265625
aF0.81005859375
aF0.81591796875
aF0.81982421875
aF0.82373046875
aF0.82861328125
aF0.8349609375
aF0.837890625
aF0.83984375
aF0.84326171875
aF0.85009765625
aF0.85693359375
aF0.86083984375
aF0.86572265625
aF0.86572265625
aF0.8681640625
aF0.86962890625
aF0.8701171875
aF0.87548828125
aF0.88232421875
aF0.88671875
aF0.89013671875
aF0.89404296875
aF0.89697265625
aF0.89697265625
aF0.89892578125
aF0.8994140625
aF0.90087890625
aF0.90087890625
aF0.9013671875
aF0.90185546875
aF0.90283203125
aF0.90283203125
aF0.90380859375
aF0.908203125
aF0.90869140625
aF0.9091796875
aF0.91162109375
aF0.912109375
aF0.912109375
aF0.91259765625
aF0.9150390625
aF0.91455078125
aF0.91552734375
aF0.91552734375
aF0.91552734375
aF0.91552734375
aF0.9150390625
aF0.91748046875
aF0.91650390625
aF0.91162109375
aF0.9111328125
aF0.91064453125
aF0.90673828125
aF0.9052734375
aF0.8984375
aF0.89404296875
aF0.8896484375
aF0.8837890625
aF0.8779296875
aF0.875
aF0.875
aF0.8701171875
aF0.87060546875
aF0.86865234375
aF0.865234375
aF0.86328125
aF0.86328125
aF0.8603515625
aF0.86083984375
aF0.86083984375
aF0.8603515625
aF0.85986328125
aF0.85595703125
aF0.85107421875
aF0.8466796875
aF0.8408203125
aF0.83642578125
aF0.83349609375
aF0.8232421875
aF0.8115234375
aF0.7841796875
aF0.716796875
aF0.5146484375
asg10
(lp55
I15
aI15
aI15
aI15
aI15
aI14
aI14
aI14
aI14
aI15
aI15
aI15
aI15
aI15
aI16
aI17
aI18
aI19
aI19
aI19
aI19
aI19
aI19
aI19
aI19
aI19
aI20
aI21
aI22
aI22
aI22
aI23
aI23
aI23
aI24
aI24
aI24
aI24
aI24
aI24
aI24
aI24
aI24
aI24
aI23
aI23
aI22
aI22
aI22
aI22
aI22
aI22
aI22
aI22
aI21
aI21
aI20
aI20
aI20
aI19
aI19
aI19
aI18
aI18
aI18
aI17
aI17
aI17
aI17
aI17
aI16
aI16
aI16
aI16
aI16
aI16
aI19
aI18
aI18
aI18
aI18
aI18
aI18
aI18
aI18
aI18
aI18
aI18
aI18
aI18
aI18
aI17
aI17
aI17
aI17
aI17
aI17
aI17
aI17
aI17
aI17
aI17
aI17
aI17
aI17
aI17
aI17
aI17
aI18
aI18
aI19
aI19
aI19
aI19
aI19
aI19
aI19
aI19
aI19
aI20
aI20
aI20
aI20
aI20
aI20
aI20
aI20
aI20
aI20
aI20
aI20
aI20
aI20
aI20
aI20
aI20
aI19
aI19
aI19
aI19
aI19
aI19
aI20
aI20
aI20
aI21
aI21
aI21
aI21
aI21
aI21
aI21
aI21
aI22
aI22
aI22
aI22
aI22
aI22
aI22
aI22
aI22
aI22
aI22
aI22
aI22
aI22
aI22
aI21
aI21
aI21
aI21
aI21
aI21
aI21
aI21
aI21
aI21
aI21
aI21
aI22
aI22
aI23
aI23
aI23
aI23
aI23
aI23
aI23
aI23
aI24
aI24
aI24
aI24
aI24
aI24
aI24
aI24
aI24
aI24
aI24
aI24
aI24
aI24
aI24
aI24
aI24
aI24
aI24
aI24
aI24
aI24
aI24
aI25
aI25
aI25
aI25
aI25
aI25
aI25
aI25
aI25
aI25
aI25
aI25
aI25
aI25
aI25
aI25
aI25
aI25
aI25
aI25
aI25
aI25
aI25
aI25
aI25
aI25
aI25
aI25
aI25
aI25
aI25
aI25
aI25
aI25
aI25
aI25
aI25
aI24
aI24
aI24
aI23
aI23
aI22
aI22
aI21
aI21
aI21
aI20
aI20
aI20
aI19
aI19
aI19
aI19
aI18
aI18
aI18
aI18
aI17
aI17
aI17
aI17
aI16
aI16
aI15
aI14
aI13
aI13
aI12
aI12
aI12
aI11
aI11
aI11
aI11
aI10
aI10
aI10
aI9
aI8
aI7
aI6
aI6
aI5
aI5
aI5
aI5
aI5
aI4
aI4
aI4
aI3
aI2
aI2
aI2
aI1
aI1
aI1
aI1
aI1
aI1
aI1
aI1
aI1
aI1
aI2
aI2
aI2
aI3
aI3
aI3
aI4
aI4
aI4
aI4
aI4
aI5
aI5
aI5
aI5
aI5
aI5
aI5
aI6
aI6
aI7
aI7
aI8
aI9
aI9
asg12
(lp56
I25299
aI25342
aI25385
aI25427
aI25470
aI25513
aI25555
aI25598
aI25641
aI25683
aI25726
aI25769
aI25812
aI25855
aI25897
aI25940
aI25983
aI26026
aI26068
aI26111
aI26154
aI26196
aI26239
aI26281
aI26324
aI26366
aI26366
aI26408
aI26452
aI26495
aI26537
aI26581
aI26623
aI26666
aI26709
aI26752
aI26794
aI26837
aI26879
aI26922
aI26964
aI27007
aI27049
aI27091
aI27134
aI27177
aI27177
aI27219
aI27261
aI27304
aI27346
aI27388
aI27432
aI27474
aI27517
aI27560
aI27602
aI27643
aI27685
aI27727
aI27768
aI27809
aI27850
aI27890
aI27932
aI27973
aI28013
aI28054
aI28095
aI28136
aI28177
aI28218
aI28259
aI28300
aI28341
aI28382
aI28888
aI28958
aI28974
aI28989
aI29006
aI29022
aI29038
aI29054
aI29070
aI29086
aI29102
aI29119
aI29135
aI29152
aI29168
aI29185
aI29202
aI29219
aI29236
aI29253
aI29270
aI29287
aI29304
aI29321
aI29321
aI29338
aI29355
aI29372
aI29389
aI29406
aI29423
aI29440
aI29457
aI29474
aI29491
aI29508
aI29525
aI29542
aI29559
aI29576
aI29593
aI29611
aI29629
aI29647
aI29664
aI29680
aI29680
aI29697
aI29714
aI29730
aI29747
aI29764
aI29780
aI29797
aI29813
aI29830
aI29847
aI29863
aI29880
aI29897
aI29914
aI29930
aI29947
aI29964
aI29980
aI29997
aI30013
aI30030
aI30046
aI30063
aI30079
aI30096
aI30113
aI30130
aI30146
aI30163
aI30180
aI30180
aI30196
aI30213
aI30230
aI30246
aI30263
aI30280
aI30296
aI30313
aI30330
aI30330
aI30346
aI30363
aI30380
aI30396
aI30413
aI30430
aI30446
aI30463
aI30480
aI30496
aI30513
aI30530
aI30546
aI30563
aI30580
aI30596
aI30613
aI30629
aI30646
aI30663
aI30680
aI30696
aI30713
aI30730
aI30746
aI30763
aI30779
aI30796
aI30813
aI30830
aI30846
aI30863
aI30880
aI30896
aI30913
aI30930
aI30946
aI30963
aI30980
aI30997
aI31013
aI31030
aI31046
aI31063
aI31080
aI31097
aI31113
aI31130
aI31146
aI31163
aI31180
aI31196
aI31213
aI31230
aI31246
aI31263
aI31280
aI31296
aI31313
aI31330
aI31346
aI31363
aI31379
aI31379
aI31396
aI31413
aI31430
aI31446
aI31463
aI31480
aI31496
aI31513
aI31530
aI31547
aI31547
aI31563
aI31580
aI31596
aI31613
aI31630
aI31646
aI31663
aI31680
aI31696
aI31713
aI31730
aI31746
aI31763
aI31780
aI31796
aI31813
aI31829
aI31846
aI31862
aI31879
aI31896
aI31912
aI31929
aI31946
aI31963
aI31980
aI31996
aI32013
aI32030
aI32046
aI32063
aI32079
aI32096
aI32113
aI32129
aI32146
aI32162
aI32163
aI32179
aI32196
aI32212
aI32229
aI32246
aI32263
aI32279
aI32296
aI32313
aI32329
aI32346
aI32363
aI32379
aI32396
aI32413
aI32430
aI32447
aI32464
aI32480
aI32497
aI32513
aI32530
aI32547
aI32563
aI32580
aI32596
aI32597
aI32613
aI32630
aI32646
aI32663
aI32680
aI32696
aI32713
aI32730
aI32746
aI32763
aI32779
aI32796
aI32813
aI32829
aI32846
aI32863
aI32879
aI32896
aI32913
aI32929
aI32946
aI32963
aI32979
aI32996
aI33013
aI33029
aI33046
aI33063
aI33079
aI33096
aI33113
aI33129
aI33146
aI33163
aI33180
aI33197
aI33213
aI33230
aI33247
asg14
(lp57
F610.9945678710938
aF611.190673828125
aF612.3344116210938
aF613.5108642578125
aF615.0140991210938
aF616.4192504882812
aF618.1512451171875
aF620.5694580078125
aF622.5628662109375
aF623.8046264648438
aF624.2621459960938
aF623.314453125
aF619.9485473632812
aF615.569580078125
aF611.41943359375
aF608.543701171875
aF606.7136840820312
aF605.4718627929688
aF604.7202758789062
aF604.2301025390625
aF603.9033203125
aF603.3804321289062
aF602.4327392578125
aF600.4393310546875
aF597.9557495117188
aF597.5309448242188
aF594.4264526367188
aF591.3219604492188
aF588.2501831054688
aF584.4267578125
aF580.5706787109375
aF575.799560546875
aF570.27685546875
aF565.6038208007812
aF559.917724609375
aF554.6237182617188
aF551.486572265625
aF550.2120971679688
aF549.1010131835938
aF548.0226440429688
aF546.3560180664062
aF545.1795654296875
aF544.6893920898438
aF544.427978515625
aF544.852783203125
aF545.0488891601562
aF546.2579956054688
aF547.6631469726562
aF548.382080078125
aF549.721923828125
aF552.7610473632812
aF556.813232421875
aF560.800048828125
aF565.0155639648438
aF569.7213134765625
aF573.7734985351562
aF578.021728515625
aF583.1522827148438
aF588.1521606445312
aF594.13232421875
aF599.687744140625
aF605.0797119140625
aF608.6417236328125
aF610.8965454101562
aF611.84423828125
aF613.2167358398438
aF614.7526245117188
aF616.027099609375
aF617.4323120117188
aF618.7394409179688
aF619.8831787109375
aF620.9288940429688
aF621.4517822265625
aF621.6478271484375
aF621.353759765625
aF616.6480102539062
aF581.6817626953125
aF583.5117797851562
aF584.197998046875
aF585.2110595703125
aF586.6815795898438
aF588.8057250976562
aF591.5507202148438
aF594.9493408203125
aF598.57666015625
aF601.68115234375
aF603.5438232421875
aF604.0667114257812
aF604.1647338867188
aF604.0667114257812
aF604.0013427734375
aF603.674560546875
aF603.1843872070312
aF602.334716796875
aF601.7791748046875
aF601.2236328125
aF600.4066772460938
aF599.262939453125
aF597.465576171875
aF594.9819946289062
aF594.0016479492188
aF590.864501953125
aF587.6946411132812
aF584.622802734375
aF581.7144165039062
aF578.9694213867188
aF576.3878173828125
aF573.0545654296875
aF570.6690063476562
aF568.316162109375
aF565.9959716796875
aF563.67578125
aF560.767333984375
aF558.8719482421875
aF557.1400146484375
aF555.5060424804688
aF553.9375
aF551.911376953125
aF550.5715942382812
aF549.3624877929688
aF548.2514038085938
aF547.8592529296875
aF546.8135375976562
aF545.767822265625
aF544.7874145507812
aF543.8724365234375
aF543.0554809570312
aF542.3038330078125
aF541.6176147460938
aF540.9967041015625
aF540.5065307617188
aF540.0490112304688
aF539.78759765625
aF539.6242065429688
aF539.5261840820312
aF539.5261840820312
aF539.5261840820312
aF539.6895751953125
aF539.8856201171875
aF540.016357421875
aF540.1143798828125
aF540.016357421875
aF539.6895751953125
aF539.1993408203125
aF538.7091674804688
aF538.218994140625
aF537.7288208007812
aF537.336669921875
aF536.911865234375
aF536.6504516601562
aF536.5850830078125
aF536.7484741210938
aF536.879150390625
aF537.3040161132812
aF537.6961669921875
aF537.8922119140625
aF537.8595581054688
aF537.5654296875
aF537.1732788085938
aF536.8464965820312
aF536.5197143554688
aF536.2255859375
aF536.1275634765625
aF535.8334350585938
aF535.5393676757812
aF535.2452392578125
aF534.8858032226562
aF534.689697265625
aF534.6570434570312
aF534.7550659179688
aF535.0818481445312
aF535.604736328125
aF536.3236694335938
aF536.7811279296875
aF537.1732788085938
aF537.4346923828125
aF537.6634521484375
aF537.794189453125
aF537.9249267578125
aF538.218994140625
aF538.9052734375
aF540.2777709960938
aF541.4215087890625
aF542.4999389648438
aF543.4802856445312
aF544.427978515625
aF545.2449340820312
aF545.8658447265625
aF546.42138671875
aF546.9115600585938
aF547.6304931640625
aF548.414794921875
aF549.3297729492188
aF550.37548828125
aF551.3885498046875
aF552.4996337890625
aF553.6107177734375
aF554.7218017578125
aF556.126953125
aF557.3034057617188
aF558.545166015625
aF559.6235961914062
aF560.4405517578125
aF561.1594848632812
aF561.8457641601562
aF562.4993286132812
aF563.0548706054688
aF563.67578125
aF564.2313232421875
aF565.0809326171875
aF566.1266479492188
aF567.3684692382812
aF568.5775756835938
aF569.5252685546875
aF570.1134643554688
aF570.6363525390625
aF571.3225708007812
aF572.0088500976562
aF572.8258056640625
aF573.6754760742188
aF574.5250854492188
aF575.374755859375
aF576.3551025390625
aF577.6295776367188
aF579.1328125
aF580.86474609375
aF581.4856567382812
aF582.7928466796875
aF585.6685791015625
aF588.0540771484375
aF590.5050048828125
aF593.0213012695312
aF595.4395141601562
aF597.7269897460938
aF599.8837890625
aF602.0733032226562
aF604.4915161132812
aF605.3738403320312
aF608.2822265625
aF611.6481323242188
aF615.4715576171875
aF619.556396484375
aF623.6085815429688
aF627.530029296875
aF631.2554321289062
aF634.7193603515625
aF637.9545288085938
aF642.3008422851562
aF645.5360107421875
aF648.7058715820312
aF651.7122802734375
aF654.6533813476562
aF657.4310913085938
aF660.0780639648438
aF662.5942993164062
aF665.2086181640625
aF668.9993896484375
aF672.0385131835938
aF675.1429443359375
aF678.1820678710938
aF681.1231689453125
aF683.9335327148438
aF686.776611328125
aF689.5216064453125
aF692.070556640625
aF695.3057861328125
aF697.6586303710938
aF699.8807983398438
aF701.9068603515625
aF703.76953125
aF705.4035034179688
aF707.0047607421875
aF708.5406494140625
aF710.0765380859375
aF711.5797729492188
aF712.1026611328125
aF713.6712036132812
aF715.2724609375
aF716.808349609375
aF718.2789306640625
aF719.6514282226562
aF720.8932495117188
aF721.9716186523438
aF722.8539428710938
aF723.7362670898438
aF724.0630493164062
aF724.2591552734375
aF724.2591552734375
aF724.0303955078125
aF723.70361328125
aF723.24609375
aF722.78857421875
aF722.1676635742188
aF721.8735961914062
aF721.710205078125
aF721.5468139648438
aF721.2200317382812
aF720.6644897460938
aF719.912841796875
aF719.063232421875
aF718.0828247070312
aF717.0044555664062
aF716.5796508789062
aF715.30517578125
aF713.8019409179688
aF712.0372924804688
aF710.2726440429688
aF708.6060180664062
aF706.8086547851562
aF704.6192016601562
aF702.0702514648438
aF699.161865234375
aF696.0247192382812
aF692.6914672851562
aF687.5935668945312
aF682.9531860351562
aF677.8880004882812
aF672.9208374023438
aF667.986328125
aF662.888427734375
aF657.4964599609375
aF652.0391235351562
aF646.8432006835938
aF640.7322387695312
aF636.6800537109375
aF633.052734375
aF629.8502197265625
aF626.87646484375
aF623.8046264648438
aF620.5694580078125
aF617.5303344726562
aF614.94873046875
aF611.9096069335938
aF609.6874389648438
aF607.3672485351562
aF605.0470581054688
aF602.8576049804688
aF600.6680908203125
aF598.4132690429688
aF596.125732421875
aF593.3480834960938
aF591.5507202148438
aF589.6226806640625
asg16
(lp58
F2999.58935546875
aF2999.65478515625
aF2998.9033203125
aF2997.138427734375
aF2993.7724609375
aF2990.2431640625
aF2986.386962890625
aF2981.74658203125
aF2977.923095703125
aF2974.491943359375
aF2970.897216796875
aF2965.864501953125
aF2956.28955078125
aF2949.59033203125
aF2945.243896484375
aF2939.590576171875
aF2933.38134765625
aF2928.9697265625
aF2924.49267578125
aF2919.13330078125
aF2914.62353515625
aF2911.15966796875
aF2908.676025390625
aF2905.571533203125
aF2901.845947265625
aF2901.15966796875
aF2896.3232421875
aF2892.728515625
aF2890.6044921875
aF2888.25146484375
aF2886.12744140625
aF2885.865966796875
aF2886.87890625
aF2887.989990234375
aF2889.23193359375
aF2890.86572265625
aF2892.173095703125
aF2892.597900390625
aF2892.6630859375
aF2892.6630859375
aF2892.82666015625
aF2892.989990234375
aF2893.18603515625
aF2894.16650390625
aF2896.617431640625
aF2897.107666015625
aF2900.636962890625
aF2906.029052734375
aF2910.440673828125
aF2915.11376953125
aF2918.185546875
aF2920.309814453125
aF2922.107177734375
aF2925.4404296875
aF2930.113525390625
aF2935.113525390625
aF2938.38134765625
aF2939.949951171875
aF2940.57080078125
aF2940.864990234375
aF2941.55126953125
aF2942.989013671875
aF2944.917236328125
aF2947.172119140625
aF2948.969482421875
aF2950.93017578125
aF2952.890869140625
aF2954.786376953125
aF2957.07373046875
aF2958.96923828125
aF2960.2763671875
aF2961.2568359375
aF2961.877685546875
aF2962.07373046875
aF2961.877685546875
aF2959.557373046875
aF2946.55126953125
aF2952.20458984375
aF2953.413818359375
aF2954.263427734375
aF2954.622802734375
aF2954.4921875
aF2953.51171875
aF2951.84521484375
aF2949.819091796875
aF2948.15234375
aF2947.3681640625
aF2947.139404296875
aF2947.139404296875
aF2947.2373046875
aF2947.33544921875
aF2947.923583984375
aF2948.805908203125
aF2949.9169921875
aF2950.47265625
aF2950.86474609375
aF2951.093505859375
aF2951.191650390625
aF2951.0283203125
aF2950.4072265625
aF2950.11328125
aF2948.936767578125
aF2947.43359375
aF2945.701416015625
aF2943.87158203125
aF2942.106689453125
aF2940.5380859375
aF2938.675537109375
aF2937.40087890625
aF2936.19189453125
aF2935.048095703125
aF2933.9697265625
aF2932.760498046875
aF2931.976318359375
aF2931.12646484375
aF2930.211669921875
aF2929.133056640625
aF2927.433837890625
aF2926.126708984375
aF2924.91748046875
aF2923.67578125
aF2923.2509765625
aF2921.845703125
aF2920.309814453125
aF2918.839111328125
aF2917.564697265625
aF2916.38818359375
aF2915.277099609375
aF2914.13330078125
aF2912.8916015625
aF2911.64990234375
aF2910.17919921875
aF2909.2314453125
aF2908.41455078125
aF2907.59765625
aF2906.6826171875
aF2905.63671875
aF2904.39501953125
aF2903.0224609375
aF2901.64990234375
aF2899.81982421875
aF2898.349365234375
aF2896.748046875
aF2895.114013671875
aF2893.61083984375
aF2892.369140625
aF2891.35595703125
aF2890.44091796875
aF2889.362548828125
aF2888.120849609375
aF2886.715576171875
aF2885.1796875
aF2884.65673828125
aF2883.120849609375
aF2881.682861328125
aF2880.310546875
aF2878.7744140625
aF2877.271240234375
aF2875.964111328125
aF2874.983642578125
aF2874.166748046875
aF2873.317138671875
aF2873.0556640625
aF2872.140625
aF2871.029541015625
aF2869.820556640625
aF2868.611328125
aF2867.565673828125
aF2866.552490234375
aF2865.3759765625
aF2864.13427734375
aF2862.72900390625
aF2860.572265625
aF2859.1015625
aF2858.121337890625
aF2857.50048828125
aF2857.108154296875
aF2856.814208984375
aF2856.45458984375
aF2855.801025390625
aF2854.75537109375
aF2852.794677734375
aF2851.258544921875
aF2849.88623046875
aF2848.513671875
aF2847.07568359375
aF2845.7685546875
aF2844.9189453125
aF2844.265380859375
aF2843.61181640625
aF2842.468017578125
aF2841.193359375
aF2839.4287109375
aF2837.435302734375
aF2835.50732421875
aF2833.7099609375
aF2831.84716796875
aF2830.0498046875
aF2827.89306640625
aF2826.0302734375
aF2824.069580078125
aF2822.304931640625
aF2820.932373046875
aF2819.690673828125
aF2818.51416015625
aF2817.468505859375
aF2816.553466796875
aF2815.605712890625
aF2814.8212890625
aF2813.742919921875
aF2812.2724609375
aF2810.40966796875
aF2808.514404296875
aF2806.88037109375
aF2805.703857421875
aF2804.756103515625
aF2803.514404296875
aF2802.37060546875
aF2801.03076171875
aF2799.527587890625
aF2798.056884765625
aF2796.65185546875
aF2795.31201171875
aF2793.90673828125
aF2792.5341796875
aF2791.324951171875
aF2790.965576171875
aF2790.279296875
aF2789.233642578125
aF2788.54736328125
aF2787.828369140625
aF2786.978759765625
aF2786.16162109375
aF2785.41015625
aF2784.723876953125
aF2784.10302734375
aF2783.580078125
aF2783.449462890625
aF2783.1552734375
aF2783.253173828125
aF2784.0703125
aF2785.37744140625
aF2786.8154296875
aF2788.318603515625
aF2789.7890625
aF2791.1943359375
aF2792.56689453125
aF2794.462158203125
aF2796.09619140625
aF2797.730224609375
aF2799.396728515625
aF2801.194091796875
aF2803.15478515625
aF2805.11572265625
aF2807.010986328125
aF2808.873779296875
aF2811.357421875
aF2813.285400390625
aF2815.3115234375
aF2817.403076171875
aF2819.494384765625
aF2821.55322265625
aF2823.513916015625
aF2825.409423828125
aF2827.174072265625
aF2829.363525390625
aF2830.99755859375
aF2832.533447265625
aF2834.0693359375
aF2835.637939453125
aF2837.3046875
aF2839.10205078125
aF2841.030029296875
aF2843.05615234375
aF2845.24560546875
aF2846.030029296875
aF2848.513671875
aF2851.09521484375
aF2853.611572265625
aF2855.9970703125
aF2858.35009765625
aF2860.801025390625
aF2863.447998046875
aF2866.225830078125
aF2870.147216796875
aF2873.284423828125
aF2876.5849609375
aF2879.918212890625
aF2883.153564453125
aF2886.258056640625
aF2889.2646484375
aF2892.20556640625
aF2896.061767578125
aF2898.806884765625
aF2901.486572265625
aF2904.46044921875
aF2908.120361328125
aF2912.238037109375
aF2916.257568359375
aF2919.917724609375
aF2923.414306640625
aF2926.878173828125
aF2928.02197265625
aF2931.355224609375
aF2934.688720703125
aF2938.0546875
aF2941.1591796875
aF2943.969482421875
aF2946.714599609375
aF2949.59033203125
aF2952.564208984375
aF2955.47265625
aF2958.11962890625
aF2960.30908203125
aF2962.56396484375
aF2963.8056640625
aF2964.524658203125
aF2964.655517578125
aF2964.099853515625
aF2962.9560546875
aF2961.6162109375
aF2960.4072265625
aF2959.590087890625
aF2959.03466796875
aF2958.805908203125
aF2958.740478515625
aF2958.740478515625
aF2958.838623046875
aF2959.03466796875
aF2959.230712890625
aF2959.4267578125
aF2959.4921875
aF2959.03466796875
aF2958.021484375
aF2956.3876953125
aF2954.165283203125
aF2951.681884765625
aF2948.936767578125
aF2946.191650390625
aF2943.610107421875
aF2940.897705078125
aF2939.39453125
aF2938.152587890625
assg18
(lp59
ssS'n'
p60
(dp61
g3
I5
sg4
(dp62
g6
(lp63
I8
aI8
aI7
aI7
aI6
aI6
aI6
aI6
aI6
aI7
aI8
aI10
aI11
aI12
aI14
aI16
aI17
aI17
aI17
aI17
aI18
aI18
aI18
aI18
aI18
aI17
aI16
aI15
aI14
aI14
aI14
aI13
aI13
aI12
aI10
aI9
aI8
aI7
aI5
aI3
aI2
aI1
aI0
aI-2
aI-4
aI-6
aI-7
aI-7
aI-8
aI-9
aI-9
aI-9
aI-9
aI-9
aI-8
aI-6
aI-4
aI-3
aI-1
aI0
aI2
aI3
aI5
aI7
aI9
aI10
aI12
aI14
aI15
aI16
aI17
aI17
aI17
aI18
aI18
aI18
aI18
aI18
aI18
aI19
aI18
aI18
aI17
aI16
aI15
aI15
aI14
aI14
aI14
aI14
aI14
aI14
aI14
aI14
aI13
aI13
aI13
aI11
aI10
aI8
aI7
aI6
aI4
aI3
aI1
aI0
aI-1
aI-2
aI-4
aI-4
aI-5
aI-5
aI-6
aI-6
aI-6
aI-6
aI-6
aI-6
aI-6
aI-6
aI-6
aI-6
aI-6
aI-5
aI-3
aI-1
aI0
aI0
aI1
aI1
aI2
asg8
(lp64
F0.2490234375
aF0.3232421875
aF0.42041015625
aF0.48828125
aF0.53466796875
aF0.56494140625
aF0.5810546875
aF0.607421875
aF0.6103515625
aF0.626953125
aF0.6357421875
aF0.6474609375
aF0.64990234375
aF0.65185546875
aF0.654296875
aF0.6533203125
aF0.65283203125
aF0.654296875
aF0.6572265625
aF0.65576171875
aF0.6513671875
aF0.6533203125
aF0.65625
aF0.66259765625
aF0.66796875
aF0.685546875
aF0.70068359375
aF0.70947265625
aF0.7158203125
aF0.716796875
aF0.72216796875
aF0.73095703125
aF0.7451171875
aF0.75634765625
aF0.791015625
aF0.8173828125
aF0.822265625
aF0.82568359375
aF0.82470703125
aF0.82958984375
aF0.83984375
aF0.83984375
aF0.849609375
aF0.857421875
aF0.859375
aF0.85888671875
aF0.86279296875
aF0.857421875
aF0.8564453125
aF0.85595703125
aF0.8447265625
aF0.8359375
aF0.8359375
aF0.83349609375
aF0.83203125
aF0.82958984375
aF0.8251953125
aF0.8232421875
aF0.81982421875
aF0.81689453125
aF0.81689453125
aF0.81591796875
aF0.81201171875
aF0.80908203125
aF0.8037109375
aF0.802734375
aF0.79833984375
aF0.79248046875
aF0.79052734375
aF0.7900390625
aF0.791015625
aF0.79052734375
aF0.7890625
aF0.78515625
aF0.7861328125
aF0.787109375
aF0.79150390625
aF0.79345703125
aF0.7939453125
aF0.79150390625
aF0.79296875
aF0.79296875
aF0.794921875
aF0.80078125
aF0.81298828125
aF0.82470703125
aF0.82568359375
aF0.830078125
aF0.83544921875
aF0.84130859375
aF0.84423828125
aF0.84326171875
aF0.8466796875
aF0.8525390625
aF0.85107421875
aF0.85546875
aF0.8544921875
aF0.86083984375
aF0.861328125
aF0.86767578125
aF0.87060546875
aF0.8662109375
aF0.86279296875
aF0.86669921875
aF0.873046875
aF0.88720703125
aF0.89501953125
aF0.90185546875
aF0.90234375
aF0.9052734375
aF0.9052734375
aF0.90234375
aF0.904296875
aF0.90234375
aF0.9013671875
aF0.90234375
aF0.91015625
aF0.90869140625
aF0.9091796875
aF0.91015625
aF0.9150390625
aF0.91064453125
aF0.91015625
aF0.90234375
aF0.89306640625
aF0.88818359375
aF0.88134765625
aF0.87451171875
aF0.86181640625
aF0.83544921875
aF0.67431640625
asg10
(lp65
I33
aI33
aI33
aI33
aI33
aI33
aI32
aI32
aI32
aI32
aI32
aI32
aI32
aI32
aI32
aI32
aI31
aI30
aI29
aI29
aI28
aI28
aI27
aI26
aI25
aI25
aI25
aI25
aI25
aI25
aI25
aI25
aI25
aI25
aI24
aI24
aI24
aI24
aI24
aI23
aI23
aI23
aI23
aI23
aI22
aI22
aI22
aI21
aI21
aI21
aI21
aI21
aI21
aI21
aI21
aI21
aI21
aI21
aI22
aI22
aI23
aI23
aI23
aI23
aI23
aI24
aI24
aI24
aI24
aI24
aI22
aI21
aI21
aI21
aI21
aI20
aI20
aI20
aI19
aI19
aI18
aI17
aI15
aI15
aI15
aI15
aI15
aI15
aI15
aI15
aI15
aI15
aI15
aI15
aI15
aI14
aI14
aI14
aI14
aI14
aI14
aI14
aI14
aI14
aI13
aI13
aI13
aI12
aI12
aI12
aI12
aI12
aI12
aI12
aI12
aI12
aI12
aI12
aI12
aI11
aI11
aI11
aI11
aI9
aI9
aI8
aI8
aI8
aI8
aI8
aI7
asg12
(lp66
I1481
aI1519
aI1552
aI1584
aI1616
aI1648
aI1679
aI1711
aI1746
aI1746
aI1781
aI1817
aI1852
aI1886
aI1921
aI1955
aI1990
aI2024
aI2059
aI2092
aI2127
aI2162
aI2197
aI2229
aI2264
aI2298
aI2332
aI2366
aI2401
aI2436
aI2471
aI2505
aI2540
aI2575
aI2610
aI2645
aI2682
aI2716
aI2751
aI2786
aI2821
aI2857
aI2857
aI2892
aI2926
aI2962
aI2996
aI3031
aI3066
aI3099
aI3134
aI3169
aI3204
aI3204
aI3238
aI3272
aI3307
aI3340
aI3374
aI3409
aI3444
aI3479
aI3513
aI3548
aI3583
aI3618
aI3653
aI3688
aI3722
aI3757
aI3791
aI3826
aI3860
aI3894
aI3929
aI3964
aI3999
aI4034
aI4068
aI4101
aI4135
aI4170
aI4205
aI4240
aI4275
aI4310
aI4342
aI4377
aI4412
aI4447
aI4482
aI4514
aI4551
aI4585
aI4620
aI4654
aI4689
aI4724
aI4759
aI4794
aI4829
aI4862
aI4897
aI4932
aI4966
aI5002
aI5036
aI5071
aI5106
aI5141
aI5176
aI5210
aI5245
aI5279
aI5314
aI5347
aI5381
aI5416
aI5451
aI5486
aI5520
aI5556
aI5591
aI5625
aI5660
aI5695
aI5730
aI5765
aI5798
aI5831
aI5866
asg14
(lp67
F625.0137939453125
aF626.45166015625
aF626.4843139648438
aF625.1444702148438
aF622.0399780273438
aF618.8048095703125
aF614.06640625
aF609.0011596679688
aF607.9227905273438
aF600.8641967773438
aF590.9951782226562
aF581.322265625
aF570.4402465820312
aF562.6300048828125
aF555.4407348632812
aF550.8330078125
aF547.2383422851562
aF543.74169921875
aF540.1797485351562
aF538.1209716796875
aF537.336669921875
aF539.2647094726562
aF542.4019165039062
aF545.2449340820312
aF549.1010131835938
aF553.8394775390625
aF558.9373168945312
aF564.7214965820312
aF568.93701171875
aF573.8388671875
aF578.67529296875
aF584.5901489257812
aF589.3939208984375
aF595.5048828125
aF601.6157836914062
aF609.5894165039062
aF618.5760498046875
aF626.7784423828125
aF637.03955078125
aF648.0195922851562
aF662.6270141601562
aF665.110595703125
aF677.8880004882812
aF688.8680419921875
aF697.364501953125
aF706.0570678710938
aF712.8215942382812
aF719.488037109375
aF723.1153564453125
aF724.9780883789062
aF725.3701782226562
aF725.2721557617188
aF725.1087646484375
aF721.6121215820312
aF710.174560546875
aF691.4823608398438
aF676.4174194335938
aF661.581298828125
aF647.2352905273438
aF636.1572265625
aF623.8046264648438
aF611.6808471679688
aF596.9427490234375
aF586.0933837890625
aF574.034912109375
aF564.7214965820312
aF557.466796875
aF553.5453491210938
aF549.52587890625
aF545.8331298828125
aF542.0424194335938
aF539.4608154296875
aF537.794189453125
aF536.7484741210938
aF536.487060546875
aF537.369384765625
aF538.9379272460938
aF541.0620727539062
aF542.7613525390625
aF545.5390625
aF549.721923828125
aF553.4473266601562
aF558.0877075195312
aF561.87841796875
aF565.40771484375
aF567.4664916992188
aF569.198486328125
aF572.1722412109375
aF575.0479736328125
aF577.4988403320312
aF579.8517456054688
aF581.6490478515625
aF584.1326293945312
aF586.420166015625
aF588.5115966796875
aF591.714111328125
aF595.6355590820312
aF601.027587890625
aF606.5829467773438
aF614.6546020507812
aF622.9223022460938
aF631.8762817382812
aF642.75830078125
aF652.5946044921875
aF664.653076171875
aF673.2476196289062
aF679.9140625
aF684.0642700195312
aF687.6915893554688
aF690.1425170898438
aF693.0509033203125
aF695.2730712890625
aF697.16845703125
aF698.7697143554688
aF700.7304077148438
aF702.8545532226562
aF705.8283081054688
aF709.2269287109375
aF711.089599609375
aF712.4620971679688
aF712.7888793945312
aF711.3510131835938
aF707.75634765625
aF701.9068603515625
aF694.717529296875
aF685.5347900390625
aF679.45654296875
aF674.0645751953125
aF670.5679321289062
aF667.2673950195312
aF661.581298828125
asg16
(lp68
F2719.986328125
aF2719.822998046875
aF2721.522216796875
aF2723.319580078125
aF2725.50927734375
aF2727.2412109375
aF2729.9208984375
aF2732.6005859375
aF2733.0908203125
aF2735.901123046875
aF2739.463134765625
aF2742.50244140625
aF2745.737548828125
aF2748.71142578125
aF2752.79638671875
aF2756.65234375
aF2760.7373046875
aF2766.03125
aF2772.7958984375
aF2778.416748046875
aF2783.67822265625
aF2791.6845703125
aF2798.906494140625
aF2805.11572265625
aF2813.252685546875
aF2819.265625
aF2821.880126953125
aF2822.239501953125
aF2822.239501953125
aF2822.5009765625
aF2822.827880859375
aF2823.285400390625
aF2823.677490234375
aF2823.971435546875
aF2823.775390625
aF2823.219970703125
aF2822.89306640625
aF2822.46826171875
aF2821.324462890625
aF2820.050048828125
aF2819.135009765625
aF2819.069580078125
aF2818.710205078125
aF2818.154541015625
aF2817.795166015625
aF2817.827880859375
aF2818.252685546875
aF2818.775634765625
aF2819.200439453125
aF2819.657958984375
aF2819.78857421875
aF2819.984619140625
aF2820.115478515625
aF2821.97802734375
aF2825.21337890625
aF2828.612060546875
aF2829.72314453125
aF2829.951904296875
aF2830.343994140625
aF2831.3896484375
aF2832.990966796875
aF2834.363525390625
aF2835.8994140625
aF2837.3046875
aF2838.7099609375
aF2840.0498046875
aF2841.78173828125
aF2843.4482421875
aF2846.58544921875
aF2850.474365234375
aF2854.885986328125
aF2858.28466796875
aF2861.193115234375
aF2864.722412109375
aF2869.49365234375
aF2875.7353515625
aF2879.8203125
aF2885.2451171875
aF2887.205810546875
aF2889.329833984375
aF2893.12060546875
aF2896.35595703125
aF2900.146728515625
aF2903.05517578125
aF2905.048583984375
aF2906.453857421875
aF2907.760986328125
aF2910.375244140625
aF2913.31640625
aF2916.224853515625
aF2919.329345703125
aF2921.94384765625
aF2925.04833984375
aF2927.2705078125
aF2928.708251953125
aF2930.244140625
aF2931.32275390625
aF2931.910888671875
aF2931.812744140625
aF2930.34228515625
aF2928.381591796875
aF2926.32275390625
aF2924.62353515625
aF2925.211669921875
aF2928.740966796875
aF2931.224609375
aF2932.1396484375
aF2932.53173828125
aF2932.793212890625
aF2932.825927734375
aF2932.695068359375
aF2932.4990234375
aF2932.46630859375
aF2932.53173828125
aF2932.95654296875
aF2933.87158203125
aF2935.864990234375
aF2939.8193359375
aF2944.034912109375
aF2949.819091796875
aF2955.86474609375
aF2964.4267578125
aF2973.1845703125
aF2982.3349609375
aF2989.78564453125
aF2997.04052734375
aF3001.02734375
aF3004.2626953125
aF3006.48486328125
aF3008.903076171875
aF3013.0205078125
assg18
(lp69
ssS'u'
p70
(dp71
g3
I7
sg4
(dp72
g6
(lp73
I19
aI19
aI19
aI19
aI19
aI19
aI19
aI19
aI19
aI19
aI19
aI19
aI19
aI19
aI19
aI19
aI19
aI19
aI19
aI19
aI19
aI19
aI19
aI18
aI18
aI18
aI18
aI18
aI18
aI18
aI19
aI20
aI20
aI21
aI21
aI21
aI21
aI21
aI21
aI21
aI22
aI23
aI23
aI24
aI25
aI25
aI26
aI26
aI26
aI26
aI26
aI26
aI26
aI26
aI26
aI27
aI27
aI28
aI28
aI29
aI29
aI30
aI31
aI31
aI31
aI31
aI31
aI31
aI31
aI31
aI31
aI31
aI31
aI31
aI31
aI31
aI31
aI31
aI31
aI31
aI31
aI31
aI31
aI31
aI31
aI31
aI31
aI31
aI31
aI31
aI31
aI31
aI32
aI32
aI32
aI32
aI32
aI32
aI32
aI32
aI32
aI32
aI32
aI32
aI32
aI32
aI32
aI32
aI32
aI32
aI31
aI30
aI29
aI29
aI28
aI28
aI27
aI27
aI27
aI27
aI27
aI26
aI25
aI24
aI23
aI23
aI22
aI21
aI20
aI19
aI17
aI17
aI16
aI16
aI15
aI14
aI14
aI13
aI13
aI12
aI11
aI11
aI11
aI11
aI11
aI11
aI11
aI11
aI11
aI11
aI11
aI11
aI11
aI11
aI11
aI11
aI11
aI11
aI11
aI11
aI11
aI11
aI11
aI11
aI11
aI11
aI11
aI11
aI11
aI11
aI11
aI11
aI11
aI11
aI11
aI11
aI11
aI11
aI11
aI11
aI11
aI11
aI11
aI11
aI11
aI11
aI11
aI11
aI11
aI11
aI11
aI11
aI11
aI11
aI12
aI12
aI12
aI12
aI12
aI12
aI12
aI12
aI13
aI13
aI13
aI13
aI13
aI14
aI15
aI15
aI15
aI15
aI16
aI16
aI16
aI17
aI18
aI18
aI19
aI20
aI21
aI21
aI22
aI22
aI22
aI23
aI24
aI24
aI24
aI25
aI26
aI26
aI26
aI27
aI27
aI27
aI27
aI27
aI28
aI29
aI29
aI30
aI30
aI30
aI30
aI31
aI31
aI31
aI31
aI30
aI27
aI27
aI27
aI27
aI27
aI27
aI27
aI27
aI27
aI27
aI27
aI27
aI27
aI27
aI26
aI26
aI26
aI26
aI26
aI26
aI26
aI26
aI26
aI26
aI26
aI26
aI25
aI24
aI23
aI23
aI22
aI21
aI21
aI20
aI20
aI20
aI20
aI19
aI19
aI18
aI17
aI17
aI17
aI16
aI16
aI16
aI15
aI15
aI15
aI14
aI14
aI14
aI14
aI13
aI13
aI13
aI12
aI12
aI12
aI11
aI11
aI11
aI11
aI10
aI10
aI10
aI9
aI9
aI9
aI9
aI9
aI9
aI8
aI8
aI8
aI8
aI8
aI8
aI8
aI8
aI8
aI8
aI8
aI8
aI8
aI8
aI9
aI9
aI10
aI11
aI12
aI12
aI13
aI13
aI13
aI14
aI14
aI15
aI16
aI16
aI17
asg8
(lp74
F0.064453125
aF0.080078125
aF0.08203125
aF0.11083984375
aF0.1201171875
aF0.14306640625
aF0.1689453125
aF0.19287109375
aF0.2490234375
aF0.283203125
aF0.3125
aF0.34326171875
aF0.37451171875
aF0.38525390625
aF0.41015625
aF0.4287109375
aF0.453125
aF0.47314453125
aF0.48388671875
aF0.50244140625
aF0.51953125
aF0.5361328125
aF0.55615234375
aF0.5751953125
aF0.58984375
aF0.59912109375
aF0.6005859375
aF0.6064453125
aF0.61376953125
aF0.62109375
aF0.62646484375
aF0.6279296875
aF0.62890625
aF0.6298828125
aF0.63134765625
aF0.63427734375
aF0.63623046875
aF0.63720703125
aF0.6376953125
aF0.63623046875
aF0.634765625
aF0.6357421875
aF0.63427734375
aF0.63330078125
aF0.6318359375
aF0.6337890625
aF0.63525390625
aF0.63525390625
aF0.6357421875
aF0.63623046875
aF0.6376953125
aF0.63525390625
aF0.63525390625
aF0.634765625
aF0.6298828125
aF0.62890625
aF0.62744140625
aF0.62744140625
aF0.6259765625
aF0.6240234375
aF0.623046875
aF0.623046875
aF0.62353515625
aF0.6259765625
aF0.6259765625
aF0.62744140625
aF0.6259765625
aF0.62841796875
aF0.6259765625
aF0.6259765625
aF0.6259765625
aF0.623046875
aF0.62451171875
aF0.623046875
aF0.6240234375
aF0.62109375
aF0.61865234375
aF0.61865234375
aF0.61865234375
aF0.619140625
aF0.61767578125
aF0.6201171875
aF0.62060546875
aF0.62158203125
aF0.6181640625
aF0.61962890625
aF0.6181640625
aF0.6162109375
aF0.61572265625
aF0.61083984375
aF0.6083984375
aF0.603515625
aF0.599609375
aF0.59033203125
aF0.58447265625
aF0.58251953125
aF0.58251953125
aF0.578125
aF0.57763671875
aF0.57763671875
aF0.57666015625
aF0.57568359375
aF0.5732421875
aF0.5732421875
aF0.5732421875
aF0.57470703125
aF0.5791015625
aF0.58349609375
aF0.5888671875
aF0.59521484375
aF0.60107421875
aF0.6083984375
aF0.61279296875
aF0.6201171875
aF0.6259765625
aF0.63330078125
aF0.63916015625
aF0.64892578125
aF0.6591796875
aF0.66650390625
aF0.671875
aF0.68310546875
aF0.69384765625
aF0.697265625
aF0.703125
aF0.70556640625
aF0.71484375
aF0.7294921875
aF0.736328125
aF0.73876953125
aF0.7412109375
aF0.7412109375
aF0.7412109375
aF0.7412109375
aF0.7412109375
aF0.74072265625
aF0.7431640625
aF0.7470703125
aF0.74853515625
aF0.7470703125
aF0.751953125
aF0.7548828125
aF0.755859375
aF0.75732421875
aF0.76123046875
aF0.7646484375
aF0.76904296875
aF0.7685546875
aF0.7744140625
aF0.77685546875
aF0.77685546875
aF0.77490234375
aF0.77978515625
aF0.78076171875
aF0.7802734375
aF0.78271484375
aF0.783203125
aF0.78369140625
aF0.78369140625
aF0.78125
aF0.7841796875
aF0.78515625
aF0.78564453125
aF0.78662109375
aF0.78759765625
aF0.7890625
aF0.7900390625
aF0.79052734375
aF0.791015625
aF0.79150390625
aF0.79296875
aF0.79345703125
aF0.7939453125
aF0.7958984375
aF0.7939453125
aF0.79833984375
aF0.798828125
aF0.7998046875
aF0.80126953125
aF0.80078125
aF0.80126953125
aF0.8017578125
aF0.80224609375
aF0.8056640625
aF0.80859375
aF0.80712890625
aF0.80908203125
aF0.810546875
aF0.81103515625
aF0.81103515625
aF0.81005859375
aF0.810546875
aF0.810546875
aF0.81103515625
aF0.810546875
aF0.81103515625
aF0.8125
aF0.81298828125
aF0.81201171875
aF0.8154296875
aF0.818359375
aF0.82177734375
aF0.83984375
aF0.84521484375
aF0.84765625
aF0.84765625
aF0.84423828125
aF0.8466796875
aF0.8466796875
aF0.8466796875
aF0.84423828125
aF0.84521484375
aF0.845703125
aF0.84521484375
aF0.8447265625
aF0.8427734375
aF0.83349609375
aF0.83251953125
aF0.82861328125
aF0.8251953125
aF0.8212890625
aF0.8212890625
aF0.81787109375
aF0.8173828125
aF0.81103515625
aF0.81201171875
aF0.80712890625
aF0.80517578125
aF0.80322265625
aF0.80322265625
aF0.80078125
aF0.7998046875
aF0.79736328125
aF0.7958984375
aF0.7939453125
aF0.791015625
aF0.7890625
aF0.787109375
aF0.7822265625
aF0.7763671875
aF0.77490234375
aF0.7666015625
aF0.76171875
aF0.7568359375
aF0.74365234375
aF0.70947265625
aF0.65869140625
aF0.53466796875
aF0.36572265625
aF0.0263671875
aF0.1396484375
aF0.2294921875
aF0.3076171875
aF0.33935546875
aF0.3720703125
aF0.404296875
aF0.4365234375
aF0.45166015625
aF0.4697265625
aF0.49365234375
aF0.5224609375
aF0.54638671875
aF0.5625
aF0.57568359375
aF0.5888671875
aF0.615234375
aF0.626953125
aF0.64013671875
aF0.65185546875
aF0.65771484375
aF0.669921875
aF0.6953125
aF0.71728515625
aF0.73876953125
aF0.75390625
aF0.759765625
aF0.765625
aF0.7685546875
aF0.7724609375
aF0.77685546875
aF0.78076171875
aF0.78369140625
aF0.79833984375
aF0.8046875
aF0.80615234375
aF0.8095703125
aF0.8115234375
aF0.81884765625
aF0.82275390625
aF0.82470703125
aF0.828125
aF0.83203125
aF0.845703125
aF0.8515625
aF0.85595703125
aF0.85791015625
aF0.86181640625
aF0.86962890625
aF0.87890625
aF0.87939453125
aF0.88134765625
aF0.88134765625
aF0.88330078125
aF0.8837890625
aF0.88330078125
aF0.8837890625
aF0.88427734375
aF0.88427734375
aF0.8837890625
aF0.88525390625
aF0.88623046875
aF0.888671875
aF0.89111328125
aF0.892578125
aF0.896484375
aF0.900390625
aF0.90234375
aF0.9052734375
aF0.90576171875
aF0.908203125
aF0.91015625
aF0.91259765625
aF0.9150390625
aF0.916015625
aF0.91845703125
aF0.9189453125
aF0.91943359375
aF0.91796875
aF0.91796875
aF0.91650390625
aF0.9130859375
aF0.91015625
aF0.9072265625
aF0.9052734375
aF0.896484375
aF0.89013671875
aF0.884765625
aF0.8779296875
aF0.86767578125
aF0.85791015625
aF0.84765625
aF0.84423828125
aF0.83935546875
aF0.830078125
aF0.8271484375
aF0.81787109375
aF0.8037109375
aF0.79296875
aF0.76318359375
aF0.71044921875
aF0.54541015625
asg10
(lp75
I33
aI33
aI33
aI33
aI34
aI34
aI34
aI34
aI34
aI34
aI34
aI34
aI34
aI34
aI34
aI34
aI34
aI34
aI34
aI34
aI34
aI34
aI34
aI33
aI33
aI33
aI33
aI33
aI33
aI33
aI33
aI33
aI33
aI33
aI33
aI33
aI33
aI33
aI33
aI33
aI33
aI33
aI33
aI33
aI33
aI33
aI33
aI33
aI33
aI33
aI33
aI33
aI33
aI33
aI34
aI34
aI34
aI34
aI34
aI33
aI33
aI33
aI33
aI32
aI32
aI32
aI32
aI32
aI32
aI32
aI32
aI32
aI32
aI32
aI32
aI32
aI32
aI32
aI32
aI32
aI32
aI32
aI32
aI32
aI32
aI32
aI32
aI32
aI32
aI32
aI32
aI32
aI32
aI32
aI32
aI32
aI32
aI32
aI32
aI32
aI32
aI32
aI33
aI33
aI34
aI34
aI34
aI34
aI34
aI34
aI34
aI34
aI34
aI33
aI33
aI33
aI33
aI33
aI33
aI33
aI33
aI33
aI33
aI33
aI33
aI33
aI32
aI32
aI32
aI31
aI31
aI30
aI30
aI29
aI28
aI28
aI27
aI27
aI27
aI26
aI26
aI25
aI25
aI25
aI25
aI24
aI24
aI24
aI24
aI24
aI24
aI24
aI24
aI24
aI24
aI24
aI24
aI24
aI24
aI23
aI23
aI23
aI23
aI23
aI22
aI22
aI22
aI21
aI21
aI21
aI20
aI20
aI20
aI20
aI20
aI20
aI20
aI19
aI19
aI19
aI19
aI19
aI19
aI19
aI18
aI18
aI18
aI18
aI18
aI18
aI18
aI18
aI17
aI17
aI17
aI17
aI16
aI16
aI16
aI15
aI15
aI15
aI15
aI15
aI15
aI15
aI15
aI15
aI15
aI15
aI15
aI15
aI15
aI15
aI15
aI15
aI15
aI14
aI14
aI13
aI12
aI12
aI11
aI11
aI11
aI11
aI11
aI11
aI11
aI11
aI11
aI11
aI11
aI11
aI11
aI11
aI11
aI12
aI12
aI12
aI13
aI13
aI13
aI13
aI14
aI14
aI15
aI16
aI16
aI17
aI25
aI25
aI25
aI25
aI25
aI25
aI25
aI25
aI24
aI23
aI23
aI22
aI22
aI21
aI20
aI19
aI19
aI19
aI19
aI18
aI18
aI17
aI17
aI16
aI16
aI16
aI16
aI16
aI16
aI16
aI16
aI16
aI16
aI16
aI16
aI16
aI15
aI15
aI14
aI14
aI14
aI14
aI14
aI13
aI13
aI12
aI12
aI11
aI11
aI11
aI11
aI11
aI11
aI11
aI11
aI11
aI11
aI11
aI11
aI10
aI10
aI10
aI9
aI9
aI8
aI8
aI8
aI8
aI7
aI7
aI7
aI7
aI7
aI7
aI7
aI7
aI6
aI6
aI5
aI4
aI4
aI4
aI4
aI3
aI3
aI3
aI3
aI2
aI2
aI2
aI2
aI2
aI1
aI1
aI1
aI1
aI1
aI1
aI1
aI1
aI1
asg12
(lp76
I1864
aI1882
aI1899
aI1917
aI1932
aI1932
aI1948
aI1964
aI1980
aI1997
aI2013
aI2029
aI2046
aI2062
aI2062
aI2078
aI2094
aI2110
aI2125
aI2141
aI2157
aI2172
aI2188
aI2203
aI2218
aI2234
aI2249
aI2265
aI2281
aI2297
aI2313
aI2329
aI2345
aI2360
aI2376
aI2392
aI2407
aI2422
aI2438
aI2453
aI2468
aI2484
aI2499
aI2515
aI2532
aI2548
aI2564
aI2580
aI2596
aI2612
aI2629
aI2645
aI2660
aI2676
aI2691
aI2706
aI2722
aI2736
aI2752
aI2767
aI2782
aI2798
aI2814
aI2830
aI2846
aI2862
aI2877
aI2892
aI2907
aI2923
aI2938
aI2954
aI2969
aI2984
aI2999
aI3015
aI3031
aI3047
aI3062
aI3079
aI3095
aI3110
aI3125
aI3141
aI3156
aI3173
aI3188
aI3203
aI3218
aI3233
aI3248
aI3264
aI3280
aI3296
aI3312
aI3327
aI3342
aI3357
aI3373
aI3388
aI3403
aI3419
aI3434
aI3449
aI3465
aI3481
aI3497
aI3514
aI3530
aI3546
aI3562
aI3577
aI3592
aI3607
aI3624
aI3640
aI3656
aI3672
aI3688
aI3704
aI3720
aI3736
aI3752
aI3767
aI3783
aI3798
aI3815
aI3832
aI3848
aI3865
aI3881
aI3898
aI3914
aI3931
aI3947
aI3964
aI3980
aI3997
aI3997
aI4013
aI4030
aI4047
aI4063
aI4080
aI4096
aI4112
aI4129
aI4145
aI4162
aI4179
aI4194
aI4194
aI4210
aI4226
aI4242
aI4258
aI4274
aI4290
aI4306
aI4322
aI4338
aI4353
aI4369
aI4384
aI4400
aI4417
aI4434
aI4450
aI4467
aI4483
aI4500
aI4517
aI4517
aI4534
aI4551
aI4568
aI4584
aI4601
aI4618
aI4635
aI4652
aI4670
aI4686
aI4703
aI4720
aI4737
aI4754
aI4754
aI4771
aI4788
aI4804
aI4821
aI4838
aI4855
aI4872
aI4889
aI4905
aI4922
aI4939
aI4955
aI4972
aI4989
aI5006
aI5023
aI5040
aI5057
aI5073
aI5090
aI5107
aI5124
aI5141
aI5158
aI5174
aI5191
aI5207
aI5224
aI5241
aI5259
aI5276
aI5293
aI5310
aI5326
aI5343
aI5360
aI5378
aI5395
aI5412
aI5428
aI5428
aI5445
aI5462
aI5479
aI5496
aI5514
aI5531
aI5549
aI5566
aI5583
aI5599
aI5616
aI5633
aI5650
aI5667
aI5684
aI5701
aI5718
aI5735
aI5752
aI5769
aI5786
aI6577
aI6596
aI6614
aI6633
aI6650
aI6666
aI6683
aI6700
aI6716
aI6733
aI6750
aI6766
aI6783
aI6800
aI6816
aI6833
aI6849
aI6866
aI6883
aI6900
aI6916
aI6933
aI6950
aI6966
aI6983
aI7000
aI7016
aI7033
aI7050
aI7066
aI7083
aI7100
aI7116
aI7133
aI7149
aI7167
aI7184
aI7201
aI7217
aI7234
aI7251
aI7267
aI7267
aI7284
aI7300
aI7316
aI7333
aI7349
aI7366
aI7383
aI7399
aI7416
aI7432
aI7449
aI7465
aI7483
aI7499
aI7516
aI7533
aI7549
aI7566
aI7583
aI7599
aI7616
aI7633
aI7650
aI7666
aI7682
aI7699
aI7716
aI7732
aI7749
aI7766
aI7783
aI7799
aI7816
aI7833
aI7849
aI7866
aI7883
aI7899
aI7916
aI7932
aI7949
aI7965
aI7982
aI7999
aI8016
aI8033
aI8050
aI8066
aI8083
aI8099
aI8116
aI8133
aI8150
aI8166
aI8183
aI8200
aI8217
aI8233
asg14
(lp77
F652.6599731445312
aF652.300537109375
aF652.49658203125
aF653.2155151367188
aF653.4769287109375
aF653.9671630859375
aF654.4246215820312
aF654.6207275390625
aF654.71875
aF655.17626953125
aF655.6990966796875
aF656.287353515625
aF656.8755493164062
aF657.0715942382812
aF657.594482421875
aF657.9212646484375
aF658.2153930664062
aF658.476806640625
aF658.6728515625
aF658.934326171875
aF659.0977172851562
aF658.9996948242188
aF658.4441528320312
aF657.36572265625
aF655.6664428710938
aF653.2808837890625
aF650.535888671875
aF648.6731567382812
aF645.7647705078125
aF642.6602783203125
aF639.3270874023438
aF635.8630981445312
aF632.3338012695312
aF628.7064819335938
aF625.0791015625
aF621.58251953125
aF618.1838989257812
aF614.719970703125
aF611.2886962890625
aF608.1188354492188
aF606.1581420898438
aF603.3477783203125
aF600.6027221679688
aF597.8250732421875
aF594.818603515625
aF591.51806640625
aF588.184814453125
aF585.0476684570312
aF582.2373046875
aF579.6229858398438
aF577.1067504882812
aF574.5904541015625
aF571.9434814453125
aF569.165771484375
aF566.4534301757812
aF563.7410888671875
aF561.0614624023438
aF559.2640991210938
aF556.7478637695312
aF554.4603271484375
aF552.4669189453125
aF550.5388793945312
aF548.5781860351562
aF546.388671875
aF544.003173828125
aF541.5848999023438
aF539.330078125
aF537.9575805664062
aF536.1275634765625
aF534.7877197265625
aF534.0361328125
aF533.5132446289062
aF532.925048828125
aF532.0753784179688
aF531.4218139648438
aF530.2454223632812
aF529.0689697265625
aF527.9578857421875
aF527.0101928710938
aF526.1605224609375
aF525.5069580078125
aF525.0821533203125
aF524.951416015625
aF524.8533935546875
aF524.75537109375
aF524.6573486328125
aF524.5592651367188
aF524.4285888671875
aF524.1998291015625
aF524.069091796875
aF523.9057006835938
aF523.873046875
aF523.84033203125
aF523.84033203125
aF524.0364379882812
aF524.5592651367188
aF525.0494995117188
aF526.0625
aF527.2716064453125
aF528.70947265625
aF530.3107299804688
aF532.0753784179688
aF533.8727416992188
aF535.0818481445312
aF536.8464965820312
aF538.6111450195312
aF540.5065307617188
aF542.4999389648438
aF544.65673828125
aF547.0095825195312
aF549.5911865234375
aF552.5322875976562
aF555.7675170898438
aF559.1007080078125
aF562.4013061523438
aF565.7018432617188
aF569.198486328125
aF572.8911743164062
aF576.9760131835938
aF581.3876342773438
aF585.995361328125
aF590.6357421875
aF595.2107543945312
aF599.8837890625
aF604.8836669921875
aF608.4783325195312
aF616.6806640625
aF623.9353637695312
aF631.8762817382812
aF639.5557861328125
aF646.6144409179688
aF653.150146484375
aF659.6859130859375
aF666.18896484375
aF672.2672119140625
aF677.3651123046875
aF681.482666015625
aF684.8812255859375
aF685.894287109375
aF688.7373046875
aF691.2536010742188
aF693.4757690429688
aF695.37109375
aF696.8089599609375
aF697.8546752929688
aF698.5409545898438
aF699.1945190429688
aF699.9461669921875
aF700.7304077148438
aF701.5147094726562
aF701.6781005859375
aF702.0702514648438
aF702.3970336914062
aF702.691162109375
aF702.9852905273438
aF703.4100952148438
aF703.80224609375
aF704.259765625
aF704.7499389648438
aF705.338134765625
aF705.8936767578125
aF706.4818725585938
aF707.1681518554688
aF707.8543701171875
aF708.5733032226562
aF709.3903198242188
aF710.0765380859375
aF710.7301025390625
aF711.2529907226562
aF711.5797729492188
aF711.8411865234375
aF712.0045776367188
aF712.0372924804688
aF712.0372924804688
aF711.9392700195312
aF711.6777954101562
aF711.318359375
aF710.7954711914062
aF710.207275390625
aF709.1942138671875
aF708.3446044921875
aF707.4295654296875
aF706.4818725585938
aF705.4361572265625
aF704.3250732421875
aF703.0179443359375
aF702.5277709960938
aF701.0571899414062
aF699.6520385742188
aF698.279541015625
aF696.9723510742188
aF695.7305908203125
aF694.5541381835938
aF693.181640625
aF692.2666625976562
aF691.4496459960938
aF690.730712890625
aF690.0444946289062
aF689.3909301757812
aF688.7373046875
aF688.0183715820312
aF687.0707397460938
aF686.2210693359375
aF685.24072265625
aF683.90087890625
aF682.0708618164062
aF679.8160400390625
aF677.26708984375
aF673.4763793945312
aF670.2738647460938
aF666.7445068359375
aF662.9864501953125
aF659.0977172851562
aF655.2089233398438
aF651.385498046875
aF647.398681640625
aF641.6472778320312
aF636.9415283203125
aF632.0396728515625
aF627.072509765625
aF622.236083984375
aF617.791748046875
aF612.497802734375
aF609.0011596679688
aF605.6026000976562
aF602.2366943359375
aF598.8380737304688
aF597.6943359375
aF595.4067993164062
aF590.7991333007812
aF587.4332275390625
aF584.197998046875
aF581.0608520507812
aF576.8126220703125
aF573.4467163085938
aF569.8847045898438
aF566.32275390625
aF562.8914794921875
aF559.7543334960938
aF556.15966796875
aF553.90478515625
aF552.0421142578125
aF550.5388793945312
aF549.264404296875
aF548.2186889648438
aF547.3037109375
aF546.9769287109375
aF546.84619140625
aF547.2383422851562
aF548.839599609375
aF553.9375
aF553.6107177734375
aF553.6433715820312
aF553.8394775390625
aF554.1989135742188
aF554.7218017578125
aF555.66943359375
aF556.58447265625
aF557.5321655273438
aF558.34912109375
aF559.035400390625
aF559.68896484375
aF560.309814453125
aF561.0614624023438
aF561.9764404296875
aF563.3816528320312
aF564.6234130859375
aF565.9959716796875
aF567.4664916992188
aF569.0677490234375
aF570.8323974609375
aF572.727783203125
aF574.72119140625
aF576.7799072265625
aF579.8190307617188
aF582.662109375
aF586.19140625
aF590.1128540039062
aF594.0670166015625
aF597.6616821289062
aF600.9295043945312
aF603.9686279296875
aF607.1058349609375
aF611.5828247070312
aF614.94873046875
aF617.9878540039062
aF620.7982177734375
aF623.7066040039062
aF626.9418334960938
aF630.5037841796875
aF634.0984497070312
aF635.27490234375
aF638.7388305664062
aF642.1701049804688
aF645.634033203125
aF649.1633911132812
aF652.725341796875
aF656.1566162109375
aF659.3264770507812
aF662.038818359375
aF664.3262939453125
aF666.2543334960938
aF668.0516967773438
aF669.7836303710938
aF671.4829711914062
aF673.6070556640625
aF674.9795532226562
aF676.2213745117188
aF677.3978271484375
aF678.7049560546875
aF680.1754760742188
aF681.907470703125
aF683.9335327148438
aF686.97265625
aF689.2928466796875
aF691.5477294921875
aF693.6718139648438
aF695.6978759765625
aF697.6259765625
aF699.3252563476562
aF700.7957763671875
aF702.0048828125
aF703.2793579101562
aF703.998291015625
aF704.5538330078125
aF704.9459838867188
aF705.2401123046875
aF705.4035034179688
aF705.4361572265625
aF705.2401123046875
aF704.5211791992188
aF702.7565307617188
aF700.7631225585938
aF698.279541015625
aF695.37109375
aF692.0379028320312
aF688.4105224609375
aF684.587158203125
aF680.567626953125
aF676.3193969726562
aF670.404541015625
aF665.992919921875
aF661.6139526367188
aF657.2349853515625
aF652.9214477539062
aF648.8692626953125
aF645.1765747070312
aF641.7779541015625
aF637.921875
aF635.69970703125
aF633.9677734375
asg16
(lp78
F2726.685546875
aF2725.7705078125
aF2725.01904296875
aF2723.809814453125
aF2723.385009765625
aF2722.69873046875
aF2722.110595703125
aF2721.91455078125
aF2721.91455078125
aF2721.78369140625
aF2721.522216796875
aF2721.326171875
aF2721.228271484375
aF2721.228271484375
aF2721.260986328125
aF2721.620361328125
aF2722.045166015625
aF2722.600830078125
aF2723.05810546875
aF2723.97314453125
aF2725.182373046875
aF2726.554931640625
aF2728.025390625
aF2729.52880859375
aF2731.097412109375
aF2732.862060546875
aF2734.75732421875
aF2736.031982421875
aF2738.025390625
aF2740.018798828125
aF2742.110107421875
aF2744.071044921875
aF2745.93359375
aF2747.665771484375
aF2749.234130859375
aF2750.606689453125
aF2751.7177734375
aF2752.6982421875
aF2753.482666015625
aF2754.0380859375
aF2754.299560546875
aF2754.691650390625
aF2755.214599609375
aF2755.90087890625
aF2756.848388671875
aF2757.894287109375
aF2758.87451171875
aF2759.691650390625
aF2760.3779296875
aF2760.998779296875
aF2761.423583984375
aF2761.7177734375
aF2762.01171875
aF2762.240478515625
aF2762.5673828125
aF2763.09033203125
aF2763.711181640625
aF2764.135986328125
aF2764.822265625
aF2765.541259765625
aF2766.358154296875
aF2767.305908203125
aF2768.31884765625
aF2769.397216796875
aF2770.377685546875
aF2771.194580078125
aF2771.84814453125
aF2772.175048828125
aF2772.501708984375
aF2772.632568359375
aF2772.632568359375
aF2772.599853515625
aF2772.534423828125
aF2772.46923828125
aF2772.40380859375
aF2772.3056640625
aF2772.3056640625
aF2772.3056640625
aF2772.37109375
aF2772.46923828125
aF2772.534423828125
aF2772.567138671875
aF2772.567138671875
aF2772.567138671875
aF2772.534423828125
aF2772.46923828125
aF2772.37109375
aF2772.273193359375
aF2771.97900390625
aF2771.84814453125
aF2771.652099609375
aF2771.55419921875
aF2771.260009765625
aF2770.99853515625
aF2770.57373046875
aF2769.952880859375
aF2769.495361328125
aF2768.7109375
aF2767.861328125
aF2767.10986328125
aF2766.390869140625
aF2765.63916015625
aF2765.051025390625
aF2764.69140625
aF2764.29931640625
aF2763.97265625
aF2763.80908203125
aF2763.80908203125
aF2764.070556640625
aF2764.593505859375
aF2765.2470703125
aF2766.06396484375
aF2766.91357421875
aF2767.599853515625
aF2768.220947265625
aF2768.613037109375
aF2768.87451171875
aF2769.135986328125
aF2769.23388671875
aF2769.2666015625
aF2769.29931640625
aF2769.201171875
aF2768.9072265625
aF2768.44970703125
aF2767.9267578125
aF2767.599853515625
aF2766.9462890625
aF2766.48876953125
aF2766.0966796875
aF2765.835205078125
aF2765.7373046875
aF2765.802490234375
aF2766.2275390625
aF2766.97900390625
aF2768.188232421875
aF2769.952880859375
aF2772.273193359375
aF2774.9853515625
aF2775.900390625
aF2778.6455078125
aF2781.194580078125
aF2783.318603515625
aF2785.01806640625
aF2786.259765625
aF2787.240234375
aF2788.12255859375
aF2789.03759765625
aF2790.017822265625
aF2791.09619140625
aF2792.1748046875
aF2792.5341796875
aF2793.253173828125
aF2794.2333984375
aF2795.11572265625
aF2795.965576171875
aF2796.782470703125
aF2797.632080078125
aF2798.514404296875
aF2799.494873046875
aF2800.5078125
aF2801.717041015625
aF2803.089599609375
aF2804.56005859375
aF2806.063232421875
aF2807.501220703125
aF2808.841064453125
aF2810.0830078125
aF2811.194091796875
aF2812.2724609375
aF2813.416259765625
aF2814.690673828125
aF2816.19384765625
aF2816.74951171875
aF2818.51416015625
aF2820.34423828125
aF2822.206787109375
aF2824.069580078125
aF2825.99755859375
aF2828.023681640625
aF2830.866943359375
aF2832.958251953125
aF2834.95166015625
aF2836.84716796875
aF2838.5791015625
aF2840.245849609375
aF2841.879638671875
aF2842.435302734375
aF2844.0693359375
aF2845.703125
aF2847.271728515625
aF2848.775146484375
aF2850.18017578125
aF2851.422119140625
aF2853.055908203125
aF2854.2978515625
aF2855.53955078125
aF2856.748779296875
aF2857.9580078125
aF2859.26513671875
aF2860.60498046875
aF2861.87939453125
aF2863.447998046875
aF2864.49365234375
aF2865.53955078125
aF2866.650634765625
aF2867.957763671875
aF2869.4609375
aF2871.160400390625
aF2873.676513671875
aF2875.80078125
aF2878.08837890625
aF2880.441162109375
aF2882.696044921875
aF2884.7548828125
aF2886.55224609375
aF2888.18603515625
aF2890.244873046875
aF2891.78076171875
aF2893.414794921875
aF2895.01611328125
aF2896.584716796875
aF2898.0224609375
aF2899.656494140625
aF2900.636962890625
aF2901.6171875
aF2902.467041015625
aF2903.087890625
aF2903.218505859375
aF2903.447265625
aF2903.676025390625
aF2903.676025390625
aF2903.610595703125
aF2903.5126953125
aF2903.349365234375
aF2903.251220703125
aF2903.1533203125
aF2903.12060546875
aF2903.12060546875
aF2903.12060546875
aF2903.12060546875
aF2903.0224609375
aF2902.760986328125
aF2902.434326171875
aF2902.107421875
aF2901.813232421875
aF2901.388427734375
aF2901.094482421875
aF2900.80029296875
aF2900.571533203125
aF2900.408203125
aF2891.84619140625
aF2890.6044921875
aF2890.179443359375
aF2889.885498046875
aF2889.787353515625
aF2890.212158203125
aF2891.388671875
aF2892.630615234375
aF2894.1337890625
aF2895.571533203125
aF2896.748046875
aF2897.6630859375
aF2898.5126953125
aF2899.297119140625
aF2900.179443359375
aF2901.2578125
aF2902.07470703125
aF2902.826416015625
aF2903.643310546875
aF2904.3623046875
aF2905.24462890625
aF2906.1923828125
aF2907.14013671875
aF2907.92431640625
aF2908.41455078125
aF2908.185791015625
aF2907.238037109375
aF2905.767578125
aF2904.0029296875
aF2902.303466796875
aF2900.963623046875
aF2899.9833984375
aF2899.231689453125
aF2898.414794921875
aF2898.05517578125
aF2897.957275390625
aF2898.447509765625
aF2899.52587890625
aF2901.29052734375
aF2903.610595703125
aF2906.355712890625
aF2907.336181640625
aF2910.66943359375
aF2914.5908203125
aF2919.002685546875
aF2923.544921875
aF2927.72802734375
aF2931.093994140625
aF2933.51220703125
aF2935.015380859375
aF2935.7998046875
aF2936.09375
aF2936.1591796875
aF2936.1591796875
aF2936.09375
aF2935.864990234375
aF2935.76708984375
aF2935.734375
aF2935.76708984375
aF2936.19189453125
aF2936.845458984375
aF2937.825927734375
aF2939.1982421875
aF2941.845458984375
aF2944.361572265625
aF2947.008544921875
aF2949.5576171875
aF2952.20458984375
aF2955.113037109375
aF2958.15234375
aF2960.995361328125
aF2963.47900390625
aF2966.6162109375
aF2968.968994140625
aF2971.322021484375
aF2973.609619140625
aF2975.864501953125
aF2978.021240234375
aF2980.243408203125
aF2982.6943359375
aF2985.700927734375
aF2990.570068359375
aF2994.7529296875
aF2999.001220703125
aF3003.118896484375
aF3006.9423828125
aF3010.37353515625
aF3013.314697265625
aF3015.896484375
aF3018.0859375
aF3020.536865234375
aF3022.07275390625
aF3023.3798828125
aF3024.523681640625
aF3025.60205078125
aF3026.51708984375
aF3027.268798828125
aF3028.052978515625
aF3029.13134765625
aF3029.817626953125
aF3030.17724609375
assg18
(lp79
ssg14
(dp80
g3
I2
sg4
(dp81
g6
(lp82
I4
aI4
aI4
aI4
aI4
aI4
aI4
aI4
aI4
aI4
aI4
aI4
aI4
aI4
aI4
aI5
aI5
aI6
aI6
aI7
aI7
aI8
aI8
aI8
aI8
aI8
aI8
aI8
aI8
aI8
aI8
aI8
aI8
aI8
aI8
aI8
aI8
aI8
aI8
aI8
aI8
aI8
aI9
aI9
aI9
aI9
aI9
aI10
aI10
aI10
aI10
aI10
aI10
aI10
aI10
aI10
aI10
aI10
aI10
aI10
aI10
aI10
aI10
aI10
aI10
aI10
aI10
aI10
aI9
aI9
aI8
aI8
aI8
aI7
aI7
aI7
aI7
aI7
aI6
aI6
aI6
aI6
aI5
aI5
aI5
aI5
aI4
aI4
aI3
aI3
aI2
aI2
aI1
aI1
aI1
aI1
aI1
aI0
aI0
aI0
aI0
aI0
aI0
aI0
aI-1
aI-1
aI-1
aI-1
aI-1
aI-1
aI-1
aI-1
aI-1
aI-2
aI-2
aI-2
aI-2
aI-2
aI-2
aI-2
aI-2
aI-2
aI-2
aI-2
aI-2
aI-2
aI-2
aI-2
aI-2
aI-2
aI-2
aI-2
aI-2
aI-2
aI-2
aI-2
aI-2
aI-2
aI-3
aI-3
aI-3
aI-3
aI-3
aI-3
aI-3
aI-3
aI-3
aI-3
aI-3
aI-2
aI-2
aI-2
aI-2
aI-1
aI-1
aI-1
aI-1
aI-1
aI-1
aI-1
aI-1
aI-1
aI-1
aI-1
aI-1
aI-1
aI-1
aI-1
aI0
aI0
aI0
aI0
aI0
aI1
aI1
aI2
aI2
aI2
aI3
aI3
aI3
aI3
aI3
aI3
aI3
aI3
aI3
aI4
aI4
aI4
aI4
aI4
aI4
aI4
aI4
aI4
aI5
aI5
aI5
aI15
aI15
aI15
aI15
aI15
aI15
aI15
aI15
aI15
aI14
aI14
aI14
aI14
aI14
aI14
aI14
aI14
aI14
aI14
aI14
aI14
aI14
aI14
aI15
aI15
aI15
aI15
aI15
aI15
aI15
aI15
aI15
aI15
aI15
aI15
aI14
aI14
aI14
aI14
aI14
aI14
aI14
aI14
aI14
aI13
aI13
aI13
aI13
aI13
aI13
aI13
aI13
aI13
aI13
aI13
aI13
aI13
aI13
aI13
aI13
aI13
aI13
aI12
aI12
aI12
aI12
aI12
aI12
aI11
aI11
aI10
aI10
aI9
aI9
aI9
aI9
aI8
aI8
aI8
aI8
aI8
aI8
aI8
aI8
aI8
aI8
aI8
aI8
aI8
aI7
aI7
aI7
aI7
aI6
aI6
aI6
aI5
aI5
aI4
aI4
aI4
aI3
aI3
aI3
aI3
aI3
aI2
aI2
aI2
aI2
aI2
aI2
aI2
aI2
aI2
aI2
aI1
aI1
aI1
aI1
aI1
aI1
aI1
aI0
aI0
aI0
aI-1
aI-2
aI-2
aI-3
aI-4
aI-4
aI-4
aI-5
aI-5
aI-5
aI-5
aI-5
aI-6
aI-7
aI-8
aI-9
aI-9
aI-10
aI-10
aI-11
aI-11
aI-12
aI-12
aI-12
aI-12
aI-12
aI-12
aI-13
aI-13
aI-13
aI-14
aI-15
aI-15
aI-15
aI-16
aI-16
aI-16
aI-17
aI-17
aI-17
aI-17
aI-17
aI-17
aI-17
aI-17
aI-17
aI-17
aI-17
aI-17
aI-17
aI-18
aI-18
aI-18
aI-18
aI-18
aI-18
aI-18
aI-18
aI-18
aI-18
aI-18
aI-18
aI-18
aI-18
aI-18
aI-18
aI-18
aI-18
aI-18
aI-18
aI-18
aI-18
aI-18
aI-18
aI-18
aI-18
aI-18
aI-17
aI-17
aI-17
aI-16
aI-16
aI-16
aI-15
aI-15
aI-15
aI-15
aI-15
aI-15
aI-15
aI-14
aI-14
aI-13
aI-13
aI-12
aI-12
aI-11
aI-10
aI-10
aI-10
aI-9
aI-9
aI-9
aI-9
aI-9
aI-8
aI-8
aI-8
aI-7
aI-6
aI-6
aI-5
aI-4
aI-4
aI-4
aI-4
aI-3
aI-3
aI-3
aI-3
aI-2
aI-2
aI-1
aI-1
aI0
aI0
aI1
aI1
aI1
aI2
aI2
aI2
aI2
aI3
aI3
aI4
aI5
aI6
aI7
aI7
aI8
aI8
aI8
aI9
aI9
aI9
aI10
aI10
aI11
aI12
asg8
(lp83
F0.22314453125
aF0.27783203125
aF0.27783203125
aF0.28125
aF0.3330078125
aF0.4013671875
aF0.4560546875
aF0.48974609375
aF0.52001953125
aF0.552734375
aF0.58544921875
aF0.61181640625
aF0.6396484375
aF0.65869140625
aF0.6748046875
aF0.68994140625
aF0.70703125
aF0.71728515625
aF0.72119140625
aF0.7294921875
aF0.740234375
aF0.75
aF0.75146484375
aF0.75439453125
aF0.7607421875
aF0.7666015625
aF0.76904296875
aF0.7724609375
aF0.7724609375
aF0.77392578125
aF0.77490234375
aF0.7763671875
aF0.7802734375
aF0.78076171875
aF0.78369140625
aF0.7841796875
aF0.7841796875
aF0.7861328125
aF0.7900390625
aF0.78955078125
aF0.7900390625
aF0.7900390625
aF0.79296875
aF0.794921875
aF0.794921875
aF0.79638671875
aF0.79638671875
aF0.7958984375
aF0.7958984375
aF0.794921875
aF0.794921875
aF0.794921875
aF0.79638671875
aF0.79541015625
aF0.79541015625
aF0.79443359375
aF0.79443359375
aF0.79541015625
aF0.80126953125
aF0.8115234375
aF0.82421875
aF0.83251953125
aF0.83935546875
aF0.8427734375
aF0.849609375
aF0.849609375
aF0.849609375
aF0.85107421875
aF0.85302734375
aF0.853515625
aF0.85400390625
aF0.85498046875
aF0.85791015625
aF0.8583984375
aF0.8583984375
aF0.8583984375
aF0.86181640625
aF0.8603515625
aF0.8642578125
aF0.8662109375
aF0.865234375
aF0.865234375
aF0.8671875
aF0.8671875
aF0.86767578125
aF0.86767578125
aF0.86962890625
aF0.8701171875
aF0.87060546875
aF0.8740234375
aF0.87890625
aF0.8818359375
aF0.8837890625
aF0.88427734375
aF0.884765625
aF0.88623046875
aF0.88916015625
aF0.88720703125
aF0.8876953125
aF0.88916015625
aF0.88916015625
aF0.8896484375
aF0.8896484375
aF0.89111328125
aF0.89404296875
aF0.89404296875
aF0.8935546875
aF0.89208984375
aF0.89111328125
aF0.89111328125
aF0.88671875
aF0.88525390625
aF0.88525390625
aF0.884765625
aF0.88525390625
aF0.8857421875
aF0.88671875
aF0.88623046875
aF0.88623046875
aF0.88623046875
aF0.8857421875
aF0.8857421875
aF0.88525390625
aF0.884765625
aF0.884765625
aF0.884765625
aF0.88623046875
aF0.8857421875
aF0.88525390625
aF0.8876953125
aF0.8876953125
aF0.88818359375
aF0.888671875
aF0.89111328125
aF0.89111328125
aF0.8916015625
aF0.89404296875
aF0.8984375
aF0.900390625
aF0.89892578125
aF0.900390625
aF0.9013671875
aF0.9033203125
aF0.9033203125
aF0.9033203125
aF0.9033203125
aF0.90625
aF0.90673828125
aF0.90625
aF0.90185546875
aF0.9013671875
aF0.900390625
aF0.896484375
aF0.89599609375
aF0.89501953125
aF0.892578125
aF0.89404296875
aF0.896484375
aF0.89794921875
aF0.89892578125
aF0.89892578125
aF0.89794921875
aF0.89794921875
aF0.8974609375
aF0.90234375
aF0.90283203125
aF0.89990234375
aF0.8974609375
aF0.89794921875
aF0.89697265625
aF0.89599609375
aF0.89599609375
aF0.89599609375
aF0.89453125
aF0.89453125
aF0.8935546875
aF0.89404296875
aF0.892578125
aF0.892578125
aF0.89306640625
aF0.892578125
aF0.892578125
aF0.892578125
aF0.8955078125
aF0.8916015625
aF0.8916015625
aF0.8896484375
aF0.8876953125
aF0.88720703125
aF0.8818359375
aF0.876953125
aF0.86865234375
aF0.8603515625
aF0.84912109375
aF0.83447265625
aF0.80810546875
aF0.74462890625
aF0.56103515625
aF0.2177734375
aF0.10498046875
aF0.158203125
aF0.22021484375
aF0.2685546875
aF0.3193359375
aF0.3681640625
aF0.4072265625
aF0.4365234375
aF0.45556640625
aF0.4697265625
aF0.474609375
aF0.48046875
aF0.48095703125
aF0.486328125
aF0.49853515625
aF0.51416015625
aF0.521484375
aF0.5244140625
aF0.5263671875
aF0.52685546875
aF0.52685546875
aF0.52685546875
aF0.5244140625
aF0.5224609375
aF0.521484375
aF0.5302734375
aF0.537109375
aF0.54296875
aF0.544921875
aF0.55224609375
aF0.55810546875
aF0.5703125
aF0.57861328125
aF0.58544921875
aF0.5927734375
aF0.60302734375
aF0.611328125
aF0.61865234375
aF0.62353515625
aF0.62939453125
aF0.63427734375
aF0.63916015625
aF0.6474609375
aF0.65380859375
aF0.65869140625
aF0.662109375
aF0.662109375
aF0.6650390625
aF0.66748046875
aF0.66796875
aF0.66845703125
aF0.66943359375
aF0.669921875
aF0.67236328125
aF0.67041015625
aF0.671875
aF0.6708984375
aF0.67333984375
aF0.67333984375
aF0.67333984375
aF0.6708984375
aF0.669921875
aF0.66943359375
aF0.66943359375
aF0.66943359375
aF0.66943359375
aF0.67333984375
aF0.67578125
aF0.67724609375
aF0.6767578125
aF0.6767578125
aF0.6767578125
aF0.67724609375
aF0.677734375
aF0.68115234375
aF0.68310546875
aF0.6865234375
aF0.69189453125
aF0.6943359375
aF0.69677734375
aF0.69677734375
aF0.69873046875
aF0.69873046875
aF0.69873046875
aF0.6982421875
aF0.6982421875
aF0.69873046875
aF0.70263671875
aF0.705078125
aF0.70703125
aF0.70703125
aF0.70849609375
aF0.708984375
aF0.71240234375
aF0.71484375
aF0.71728515625
aF0.72119140625
aF0.7255859375
aF0.72900390625
aF0.732421875
aF0.73291015625
aF0.73388671875
aF0.734375
aF0.734375
aF0.734375
aF0.73486328125
aF0.73388671875
aF0.73388671875
aF0.7333984375
aF0.7333984375
aF0.73388671875
aF0.73388671875
aF0.73388671875
aF0.73388671875
aF0.7333984375
aF0.7333984375
aF0.73388671875
aF0.73388671875
aF0.7353515625
aF0.7373046875
aF0.73681640625
aF0.7373046875
aF0.73779296875
aF0.740234375
aF0.74169921875
aF0.74169921875
aF0.74169921875
aF0.74169921875
aF0.7421875
aF0.7421875
aF0.7421875
aF0.7451171875
aF0.7451171875
aF0.74658203125
aF0.7490234375
aF0.751953125
aF0.755859375
aF0.76123046875
aF0.7646484375
aF0.767578125
aF0.7705078125
aF0.7734375
aF0.77490234375
aF0.77490234375
aF0.77587890625
aF0.7763671875
aF0.7783203125
aF0.77880859375
aF0.78076171875
aF0.78125
aF0.7841796875
aF0.78466796875
aF0.78857421875
aF0.79345703125
aF0.798828125
aF0.80078125
aF0.80126953125
aF0.80224609375
aF0.80419921875
aF0.80517578125
aF0.80712890625
aF0.81005859375
aF0.810546875
aF0.8134765625
aF0.81591796875
aF0.818359375
aF0.8212890625
aF0.8232421875
aF0.8251953125
aF0.82568359375
aF0.8271484375
aF0.828125
aF0.82861328125
aF0.8291015625
aF0.830078125
aF0.82958984375
aF0.82958984375
aF0.82763671875
aF0.8232421875
aF0.82177734375
aF0.8232421875
aF0.8251953125
aF0.826171875
aF0.82861328125
aF0.8310546875
aF0.83056640625
aF0.82958984375
aF0.8291015625
aF0.8291015625
aF0.82958984375
aF0.82958984375
aF0.83154296875
aF0.83203125
aF0.83203125
aF0.83154296875
aF0.8330078125
aF0.83251953125
aF0.83251953125
aF0.83251953125
aF0.8330078125
aF0.8330078125
aF0.83251953125
aF0.83447265625
aF0.83447265625
aF0.8349609375
aF0.83642578125
aF0.8408203125
aF0.84130859375
aF0.84130859375
aF0.84228515625
aF0.84423828125
aF0.84521484375
aF0.8447265625
aF0.8447265625
aF0.84521484375
aF0.84521484375
aF0.84814453125
aF0.84912109375
aF0.84912109375
aF0.8505859375
aF0.85107421875
aF0.85205078125
aF0.853515625
aF0.85302734375
aF0.853515625
aF0.85595703125
aF0.85888671875
aF0.85986328125
aF0.861328125
aF0.861328125
aF0.8623046875
aF0.861328125
aF0.86083984375
aF0.8623046875
aF0.86083984375
aF0.8603515625
aF0.8603515625
aF0.8603515625
aF0.861328125
aF0.86181640625
aF0.86279296875
aF0.86328125
aF0.8671875
aF0.86572265625
aF0.86767578125
aF0.8701171875
aF0.86962890625
aF0.869140625
aF0.86865234375
aF0.8681640625
aF0.86865234375
aF0.8681640625
aF0.8681640625
aF0.86767578125
aF0.86767578125
aF0.86669921875
aF0.86572265625
aF0.86572265625
aF0.865234375
aF0.86474609375
aF0.86279296875
aF0.86083984375
aF0.85888671875
aF0.8564453125
aF0.85498046875
aF0.85205078125
aF0.84716796875
aF0.8427734375
aF0.8408203125
aF0.83349609375
aF0.82421875
aF0.81201171875
aF0.7861328125
aF0.73876953125
aF0.56787109375
aF0.02734375
asg10
(lp84
I24
aI24
aI24
aI24
aI24
aI24
aI24
aI24
aI24
aI24
aI23
aI23
aI23
aI23
aI23
aI23
aI23
aI23
aI22
aI22
aI22
aI22
aI22
aI22
aI22
aI22
aI22
aI22
aI22
aI21
aI21
aI21
aI21
aI21
aI20
aI20
aI20
aI20
aI20
aI20
aI20
aI19
aI19
aI19
aI19
aI19
aI19
aI19
aI19
aI19
aI19
aI19
aI18
aI18
aI18
aI18
aI17
aI17
aI16
aI16
aI16
aI16
aI16
aI16
aI16
aI16
aI16
aI16
aI16
aI16
aI15
aI15
aI15
aI15
aI15
aI15
aI15
aI15
aI15
aI15
aI15
aI15
aI15
aI15
aI14
aI14
aI14
aI14
aI14
aI14
aI14
aI13
aI13
aI12
aI12
aI12
aI12
aI12
aI12
aI12
aI12
aI12
aI12
aI12
aI11
aI11
aI11
aI11
aI11
aI11
aI11
aI11
aI11
aI11
aI10
aI10
aI10
aI10
aI10
aI10
aI10
aI10
aI10
aI10
aI10
aI10
aI10
aI9
aI9
aI8
aI8
aI8
aI8
aI8
aI7
aI7
aI7
aI7
aI7
aI7
aI7
aI7
aI7
aI7
aI7
aI7
aI7
aI7
aI7
aI7
aI7
aI7
aI7
aI7
aI7
aI8
aI9
aI9
aI9
aI9
aI9
aI9
aI9
aI9
aI9
aI10
aI10
aI10
aI10
aI10
aI10
aI10
aI10
aI10
aI10
aI10
aI10
aI10
aI10
aI10
aI11
aI11
aI11
aI11
aI11
aI11
aI11
aI11
aI11
aI12
aI12
aI12
aI12
aI12
aI12
aI12
aI13
aI13
aI13
aI20
aI20
aI20
aI20
aI20
aI20
aI20
aI20
aI20
aI21
aI21
aI21
aI21
aI21
aI21
aI21
aI21
aI21
aI21
aI21
aI21
aI21
aI21
aI21
aI21
aI21
aI21
aI21
aI21
aI21
aI21
aI21
aI21
aI21
aI21
aI21
aI21
aI21
aI21
aI21
aI21
aI21
aI21
aI21
aI21
aI21
aI21
aI21
aI21
aI21
aI21
aI21
aI21
aI21
aI21
aI21
aI21
aI21
aI21
aI22
aI22
aI22
aI22
aI22
aI22
aI22
aI22
aI22
aI22
aI23
aI23
aI23
aI23
aI23
aI23
aI23
aI23
aI23
aI23
aI22
aI22
aI22
aI22
aI22
aI22
aI22
aI22
aI22
aI22
aI23
aI23
aI23
aI23
aI23
aI23
aI23
aI23
aI23
aI23
aI23
aI24
aI24
aI24
aI24
aI24
aI24
aI24
aI24
aI24
aI24
aI24
aI24
aI24
aI24
aI24
aI24
aI24
aI24
aI24
aI24
aI24
aI24
aI24
aI24
aI24
aI24
aI24
aI24
aI24
aI24
aI24
aI24
aI24
aI24
aI24
aI24
aI24
aI24
aI24
aI24
aI24
aI24
aI24
aI24
aI23
aI23
aI23
aI23
aI23
aI23
aI23
aI23
aI22
aI22
aI22
aI21
aI21
aI21
aI21
aI21
aI21
aI21
aI20
aI20
aI20
aI20
aI20
aI20
aI20
aI20
aI20
aI20
aI20
aI19
aI19
aI19
aI19
aI19
aI19
aI19
aI19
aI19
aI18
aI17
aI17
aI17
aI16
aI16
aI15
aI15
aI14
aI14
aI14
aI14
aI14
aI14
aI14
aI13
aI13
aI13
aI13
aI13
aI13
aI13
aI13
aI13
aI13
aI13
aI13
aI13
aI13
aI13
aI13
aI13
aI13
aI13
aI13
aI13
aI13
aI13
aI13
aI13
aI13
aI13
aI13
aI13
aI13
aI13
aI13
aI13
aI13
aI13
aI14
aI14
aI14
aI14
aI14
aI15
aI15
aI15
aI15
aI15
aI15
aI15
aI15
aI15
aI15
aI15
aI15
aI15
aI15
aI15
aI15
aI15
aI15
aI16
aI16
aI16
aI16
aI16
aI16
aI16
aI16
aI16
aI16
aI16
aI16
aI16
aI16
aI16
aI16
aI16
aI17
aI17
aI18
aI18
asg12
(lp85
I2095
aI2113
aI2131
aI2149
aI2149
aI2165
aI2181
aI2197
aI2213
aI2230
aI2246
aI2262
aI2279
aI2295
aI2311
aI2327
aI2344
aI2361
aI2377
aI2394
aI2411
aI2428
aI2444
aI2461
aI2478
aI2494
aI2511
aI2528
aI2544
aI2561
aI2578
aI2594
aI2611
aI2627
aI2644
aI2661
aI2677
aI2694
aI2710
aI2727
aI2744
aI2761
aI2778
aI2794
aI2811
aI2827
aI2844
aI2861
aI2878
aI2894
aI2911
aI2927
aI2944
aI2961
aI2977
aI2994
aI3010
aI3028
aI3044
aI3061
aI3077
aI3094
aI3111
aI3127
aI3144
aI3161
aI3177
aI3177
aI3194
aI3211
aI3227
aI3244
aI3261
aI3277
aI3294
aI3311
aI3327
aI3344
aI3361
aI3377
aI3394
aI3411
aI3427
aI3444
aI3461
aI3477
aI3477
aI3494
aI3511
aI3527
aI3544
aI3561
aI3577
aI3594
aI3611
aI3628
aI3628
aI3644
aI3661
aI3678
aI3694
aI3711
aI3727
aI3744
aI3761
aI3777
aI3777
aI3794
aI3811
aI3827
aI3844
aI3861
aI3877
aI3894
aI3911
aI3927
aI3927
aI3944
aI3961
aI3977
aI3994
aI4011
aI4032
aI4044
aI4061
aI4077
aI4094
aI4111
aI4128
aI4144
aI4161
aI4177
aI4194
aI4211
aI4227
aI4227
aI4244
aI4261
aI4277
aI4294
aI4311
aI4327
aI4344
aI4361
aI4377
aI4377
aI4394
aI4411
aI4428
aI4444
aI4461
aI4477
aI4494
aI4511
aI4527
aI4544
aI4561
aI4577
aI4594
aI4611
aI4627
aI4644
aI4661
aI4677
aI4694
aI4711
aI4728
aI4744
aI4761
aI4778
aI4794
aI4811
aI4827
aI4844
aI4861
aI4877
aI4894
aI4911
aI4927
aI4944
aI4961
aI4977
aI4994
aI5011
aI5028
aI5044
aI5061
aI5077
aI5094
aI5111
aI5127
aI5144
aI5161
aI5177
aI5194
aI5211
aI5227
aI5244
aI5261
aI6078
aI6096
aI6114
aI6132
aI6148
aI6164
aI6180
aI6196
aI6212
aI6228
aI6244
aI6261
aI6277
aI6294
aI6311
aI6327
aI6344
aI6360
aI6377
aI6394
aI6394
aI6410
aI6427
aI6444
aI6461
aI6477
aI6494
aI6511
aI6527
aI6544
aI6561
aI6577
aI6594
aI6611
aI6628
aI6644
aI6661
aI6677
aI6694
aI6711
aI6727
aI6744
aI6761
aI6778
aI6794
aI6811
aI6827
aI6827
aI6844
aI6861
aI6877
aI6894
aI6911
aI6927
aI6944
aI6961
aI6977
aI6994
aI7011
aI7028
aI7044
aI7061
aI7078
aI7094
aI7111
aI7127
aI7144
aI7161
aI7178
aI7194
aI7211
aI7228
aI7244
aI7261
aI7277
aI7294
aI7311
aI7327
aI7344
aI7361
aI7377
aI7394
aI7411
aI7427
aI7444
aI7444
aI7461
aI7477
aI7494
aI7511
aI7528
aI7544
aI7561
aI7577
aI7594
aI7611
aI7628
aI7644
aI7661
aI7677
aI7694
aI7711
aI7729
aI7745
aI7761
aI7777
aI7794
aI7811
aI7827
aI7844
aI7861
aI7877
aI7894
aI7911
aI7927
aI7944
aI7961
aI7977
aI7994
aI8011
aI8028
aI8044
aI8061
aI8078
aI8094
aI8111
aI8127
aI8144
aI8161
aI8177
aI8194
aI8211
aI8228
aI8228
aI8244
aI8261
aI8277
aI8294
aI8311
aI8327
aI8344
aI8361
aI8377
aI8394
aI8411
aI8427
aI8444
aI8461
aI8477
aI8494
aI8511
aI8527
aI8544
aI8561
aI8577
aI8594
aI8611
aI8628
aI8644
aI8661
aI8677
aI8694
aI8711
aI8727
aI8744
aI8761
aI8777
aI8794
aI8811
aI8828
aI8828
aI8844
aI8861
aI8877
aI8894
aI8911
aI8927
aI8944
aI8961
aI8977
aI8994
aI9011
aI9028
aI9044
aI9061
aI9077
aI9094
aI9111
aI9128
aI9144
aI9161
aI9178
aI9194
aI9211
aI9228
aI9244
aI9261
aI9277
aI9294
aI9311
aI9328
aI9344
aI9361
aI9377
aI9394
aI9411
aI9427
aI9444
aI9461
aI9461
aI9478
aI9494
aI9511
aI9528
aI9544
aI9561
aI9577
aI9594
aI9611
aI9628
aI9644
aI9661
aI9677
aI9694
aI9711
aI9727
aI9744
aI9761
aI9777
aI9794
aI9811
aI9827
aI9844
aI9861
aI9877
aI9894
aI9911
aI9927
aI9944
aI9961
aI9977
aI9994
aI10011
aI10027
aI10044
aI10061
aI10077
aI10094
aI10111
aI10127
aI10144
aI10161
aI10177
aI10194
aI10211
aI10211
aI10227
aI10244
aI10261
aI10277
aI10294
aI10311
aI10327
aI10344
aI10361
aI10377
aI10394
aI10411
aI10427
aI10444
aI10461
aI10478
aI10494
aI10511
aI10527
aI10544
asg14
(lp86
F552.8590698242188
aF553.47998046875
aF553.8721313476562
aF554.0355224609375
aF554.5256958007812
aF554.7544555664062
aF554.5584106445312
aF553.47998046875
aF551.1924438476562
aF547.76123046875
aF543.512939453125
aF538.87255859375
aF534.264892578125
aF530.1473388671875
aF526.8141479492188
aF524.1344604492188
aF521.8142700195312
aF519.657470703125
aF517.5006713867188
aF515.245849609375
aF512.0433349609375
aF509.3963623046875
aF506.4879455566406
aF503.6122131347656
aF500.9652404785156
aF498.677734375
aF496.9784240722656
aF495.83465576171875
aF494.6582336425781
aF493.80859375
aF492.9589538574219
aF492.1092834472656
aF491.1289367675781
aF489.98516845703125
aF488.8087463378906
aF487.66497802734375
aF486.5865783691406
aF485.2140808105469
aF484.0376281738281
aF482.7304992675781
aF481.35797119140625
aF480.1815490722656
aF479.201171875
aF478.3515319824219
aF477.665283203125
aF477.27313232421875
aF476.9790344238281
aF476.9790344238281
aF477.1097412109375
aF477.4692077636719
aF478.1227722167969
aF479.03778076171875
aF480.2142333984375
aF481.7174377441406
aF483.4494323730469
aF485.9656982421875
aF487.24017333984375
aF489.75640869140625
aF491.58642578125
aF493.31842041015625
aF495.08306884765625
aF496.9130554199219
aF498.9064636230469
aF501.1286315917969
aF503.7756042480469
aF506.9781188964844
aF508.1872253417969
aF511.9126281738281
aF515.670654296875
aF519.199951171875
aF522.2717895507812
aF524.8861083984375
aF527.173583984375
aF529.4284057617188
aF531.8793334960938
aF534.5263061523438
aF538.1536254882812
aF540.8006591796875
aF543.31689453125
aF545.5717163085938
aF547.5978393554688
aF549.4605102539062
aF551.2578125
aF552.9571533203125
aF554.6890869140625
aF555.3099975585938
aF557.2706909179688
aF559.2640991210938
aF561.1594848632812
aF563.21826171875
aF565.636474609375
aF568.4141845703125
aF571.387939453125
aF574.4270629882812
aF577.33544921875
aF578.25048828125
aF580.7340698242188
aF582.8255004882812
aF584.5901489257812
aF586.0933837890625
aF587.49853515625
aF588.87109375
aF590.0802001953125
aF591.1259155273438
aF592.0082397460938
aF592.2042846679688
aF592.8251953125
aF593.3480834960938
aF593.70751953125
aF593.936279296875
aF594.0016479492188
aF593.936279296875
aF593.70751953125
aF593.3480834960938
aF593.0213012695312
aF592.9232177734375
aF592.7271728515625
aF592.596435546875
aF592.5310668945312
aF592.5310668945312
aF592.5310668945312
aF592.5310668945312
aF592.5310668945312
aF592.5310668945312
aF592.5310668945312
aF592.5310668945312
aF592.5310668945312
aF592.4984130859375
aF592.36767578125
aF592.1062622070312
aF591.7794799804688
aF591.4526977539062
aF591.1585693359375
aF590.9298095703125
aF590.831787109375
aF590.60302734375
aF590.2762451171875
aF589.8187255859375
aF589.1325073242188
aF588.2828369140625
aF587.302490234375
aF586.1587524414062
aF584.8189086914062
aF583.2830200195312
aF582.7274780273438
aF581.6163940429688
aF579.10009765625
aF576.9760131835938
aF574.5250854492188
aF571.812744140625
aF569.1004028320312
aF566.5841674804688
aF564.296630859375
aF562.0745239257812
aF559.885009765625
aF557.2053833007812
aF555.3753662109375
aF553.6760864257812
aF552.0747680664062
aF550.4408569335938
aF548.7742309570312
aF547.1403198242188
aF545.50634765625
aF543.9050903320312
aF541.6502685546875
aF539.78759765625
aF537.6307983398438
aF535.2778930664062
aF532.8923950195312
aF530.6702270507812
aF528.480712890625
aF526.2586059570312
aF524.069091796875
aF521.454833984375
aF519.5594482421875
aF517.6314086914062
aF515.6380004882812
aF513.5465698242188
aF511.3897399902344
aF509.33099365234375
aF507.5009765625
aF505.8670349121094
aF503.7756042480469
aF502.0763244628906
aF500.27899169921875
aF498.3182678222656
aF496.29217529296875
aF494.462158203125
aF492.92626953125
aF491.65179443359375
aF490.475341796875
aF489.0701599121094
aF488.12249755859375
aF487.43621826171875
aF486.8807067871094
aF486.521240234375
aF486.22711181640625
aF486.0964050292969
aF486.6519470214844
aF570.1134643554688
aF569.5906372070312
aF568.9697265625
aF567.825927734375
aF567.2704467773438
aF566.9109497070312
aF566.7802124023438
aF566.551513671875
aF566.3880615234375
aF565.9306030273438
aF565.40771484375
aF564.8848876953125
aF564.329345703125
aF563.7410888671875
aF563.1202392578125
aF562.3685913085938
aF561.5842895507812
aF560.800048828125
aF560.0811157226562
aF559.8523559570312
aF559.1660766601562
aF558.545166015625
aF557.8589477539062
aF557.1072998046875
aF556.355712890625
aF555.7021484375
aF555.4080200195312
aF555.4080200195312
aF555.7675170898438
aF556.4210815429688
aF557.466796875
aF558.7085571289062
aF560.1464233398438
aF561.5189819335938
aF562.8261108398438
aF563.9371948242188
aF565.0155639648438
aF566.3880615234375
aF567.3357543945312
aF568.2180786132812
aF569.1331176757812
aF570.1461181640625
aF571.2572021484375
aF572.3356323242188
aF573.4793701171875
aF574.6558227539062
aF575.0479736328125
aF576.224365234375
aF577.3681640625
aF578.3811645507812
aF579.2308349609375
aF579.982421875
aF580.668701171875
aF581.35498046875
aF582.2373046875
aF583.2176513671875
aF584.4594116210938
aF586.4855346679688
aF588.2501831054688
aF590.0148315429688
aF591.51806640625
aF592.6944580078125
aF593.6094970703125
aF594.361083984375
aF595.04736328125
aF595.7335815429688
aF596.6812744140625
aF597.465576171875
aF598.4132690429688
aF599.5897216796875
aF601.0602416992188
aF602.6941528320312
aF604.2627563476562
aF605.63525390625
aF606.6809692382812
aF607.6940307617188
aF608.3803100585938
aF609.0011596679688
aF609.7528076171875
aF610.6024169921875
aF611.5828247070312
aF612.6939086914062
aF613.9356689453125
aF615.3081665039062
aF616.909423828125
aF617.4976806640625
aF619.4257202148438
aF621.6478271484375
aF624.1314697265625
aF626.6150512695312
aF628.8045043945312
aF630.6671752929688
aF632.3665161132812
aF634.0004272460938
aF636.0592041015625
aF637.5623779296875
aF639.0656127929688
aF640.6015014648438
aF642.0720825195312
aF643.5099487304688
aF644.8497924804688
aF646.0261840820312
aF647.3333740234375
aF648.2483520507812
aF649.1633911132812
aF650.0457153320312
aF650.9933471679688
aF652.1371459960938
aF653.41162109375
aF654.7514038085938
aF656.05859375
aF657.2677001953125
aF658.7382202148438
aF659.9146728515625
aF661.2545166015625
aF662.65966796875
aF664.0321655273438
aF665.5027465820312
aF667.10400390625
aF668.9340209960938
aF670.8947143554688
aF673.5744018554688
aF674.9468994140625
aF677.8226318359375
aF680.1754760742188
aF682.6590576171875
aF685.3387451171875
aF688.2144775390625
aF691.1228637695312
aF694.06396484375
aF697.1030883789062
aF700.27294921875
aF701.384033203125
aF704.913330078125
aF708.5079956054688
aF712.16796875
aF715.7953491210938
aF719.1939086914062
aF722.2984008789062
aF725.1414794921875
aF727.8538208007812
aF731.3831176757812
aF734.0300903320312
aF736.6116943359375
aF739.16064453125
aF741.6768798828125
aF744.1931762695312
aF746.6767578125
aF749.0296020507812
aF751.2844848632812
aF754.1275024414062
aF756.153564453125
aF758.2123413085938
aF760.4998779296875
aF762.9180908203125
aF765.2056274414062
aF767.2970581054688
aF769.0943603515625
aF770.6302490234375
aF772.32958984375
aF773.3753051757812
aF774.2576293945312
aF774.94384765625
aF775.4993896484375
aF775.9569091796875
aF776.3817138671875
aF776.7412109375
aF777.1333618164062
aF777.5255126953125
aF777.6561889648438
aF778.0810546875
aF778.5712280273438
aF779.0940551757812
aF779.4208374023438
aF779.7803344726562
aF780.074462890625
aF780.3358764648438
aF780.6299438476562
aF780.8914184570312
aF781.2182006835938
aF781.4142456054688
aF781.6103515625
aF781.8717651367188
aF782.3292846679688
aF782.8521118164062
aF783.4076538085938
aF783.9305419921875
aF784.3880004882812
aF784.7474975585938
aF784.9762573242188
aF785.1396484375
aF785.2376708984375
aF785.2703857421875
aF785.2376708984375
aF785.1396484375
aF784.8782348632812
aF784.3880004882812
aF783.4076538085938
aF782.49267578125
aF781.4469604492188
aF780.3031616210938
aF779.0940551757812
aF777.8849487304688
aF776.70849609375
aF775.4993896484375
aF774.2576293945312
aF772.9177856445312
aF771.41455078125
aF770.8590087890625
aF769.0617065429688
aF767.0029296875
aF764.8134765625
aF762.4279174804688
aF759.7482299804688
aF756.7744750976562
aF753.7026977539062
aF750.5982055664062
aF746.21923828125
aF742.5592041015625
aF738.8338623046875
aF735.2064819335938
aF731.9386596679688
aF729.0629272460938
aF726.5139770507812
aF724.0630493164062
aF721.5140991210938
aF717.9521484375
aF715.2070922851562
aF712.396728515625
aF709.4883422851562
aF706.5799560546875
aF703.6715087890625
aF700.7631225585938
aF697.8873901367188
aF695.0770263671875
aF691.1228637695312
aF687.9530639648438
aF684.6198120117188
aF681.1558837890625
aF677.7572631835938
aF674.5547485351562
aF671.4176025390625
aF668.0843505859375
aF664.685791015625
aF660.1107177734375
aF656.5487670898438
aF653.1174926757812
aF650.078369140625
aF647.3006591796875
aF644.5883178710938
aF641.6145629882812
aF638.2160034179688
aF634.5232543945312
aF631.059326171875
aF629.98095703125
aF626.9418334960938
aF624.1314697265625
aF621.353759765625
aF618.3800048828125
aF614.94873046875
aF611.2560424804688
aF607.661376953125
aF604.4261474609375
aF600.7008056640625
aF598.0864868164062
aF595.3741455078125
aF592.629150390625
aF589.982177734375
aF587.6292724609375
aF585.4724731445312
aF583.315673828125
aF580.9628295898438
aF577.4335327148438
aF574.5904541015625
aF571.4205932617188
aF567.7606201171875
asg16
(lp87
F2771.97900390625
aF2770.410400390625
aF2770.14892578125
aF2770.08349609375
aF2770.018310546875
aF2770.2470703125
aF2770.9658203125
aF2771.97900390625
aF2773.2861328125
aF2774.854736328125
aF2776.48876953125
aF2778.1552734375
aF2779.691162109375
aF2780.9658203125
aF2782.044189453125
aF2782.959228515625
aF2783.939453125
aF2784.9853515625
aF2786.259765625
aF2787.795654296875
aF2790.475341796875
aF2793.089599609375
aF2796.226806640625
aF2799.364013671875
aF2802.01123046875
aF2804.004638671875
aF2805.344482421875
aF2806.063232421875
aF2806.586181640625
aF2807.043701171875
aF2807.501220703125
aF2808.056884765625
aF2808.841064453125
aF2809.690673828125
aF2810.572998046875
aF2811.488037109375
aF2812.403076171875
aF2813.677490234375
aF2814.91943359375
aF2816.553466796875
aF2818.51416015625
aF2820.442138671875
aF2822.304931640625
aF2824.167724609375
aF2825.965087890625
aF2827.5009765625
aF2828.971435546875
aF2829.65771484375
aF2830.21337890625
aF2830.768798828125
aF2831.55322265625
aF2832.598876953125
aF2833.775390625
aF2835.147705078125
aF2836.683837890625
aF2838.97119140625
aF2840.213134765625
aF2842.6640625
aF2844.36328125
aF2845.7685546875
aF2846.912353515625
aF2847.794677734375
aF2848.4482421875
aF2848.9384765625
aF2849.33056640625
aF2849.592041015625
aF2849.68994140625
aF2849.951416015625
aF2850.114990234375
aF2850.212890625
aF2850.24560546875
aF2850.24560546875
aF2850.212890625
aF2850.082275390625
aF2849.918701171875
aF2849.68994140625
aF2849.493896484375
aF2849.4287109375
aF2849.4287109375
aF2849.4287109375
aF2849.4287109375
aF2849.4287109375
aF2849.46142578125
aF2849.559326171875
aF2849.72265625
aF2849.82080078125
aF2850.1474609375
aF2850.539794921875
aF2850.997314453125
aF2851.52001953125
aF2852.1083984375
aF2852.9580078125
aF2854.003662109375
aF2855.376220703125
aF2856.9775390625
aF2857.532958984375
aF2859.2978515625
aF2861.160400390625
aF2862.990478515625
aF2864.885986328125
aF2866.944580078125
aF2869.13427734375
aF2871.388916015625
aF2873.5458984375
aF2875.506591796875
aF2876.0947265625
aF2877.794189453125
aF2879.42822265625
aF2881.06201171875
aF2882.859375
aF2884.820068359375
aF2886.91162109375
aF2888.905029296875
aF2890.636962890625
aF2891.87890625
aF2892.20556640625
aF2892.859375
aF2893.21875
aF2893.480224609375
aF2893.578125
aF2893.578125
aF2893.67626953125
aF2893.806884765625
aF2893.905029296875
aF2894.10107421875
aF2894.362548828125
aF2894.721923828125
aF2895.44091796875
aF2896.519287109375
aF2897.989990234375
aF2899.55859375
aF2900.996337890625
aF2902.270751953125
aF2903.47998046875
aF2903.90478515625
aF2905.24462890625
aF2906.780517578125
aF2908.577880859375
aF2910.7021484375
aF2913.054931640625
aF2915.5712890625
aF2918.120361328125
aF2920.60400390625
aF2922.989501953125
aF2923.70849609375
aF2925.080810546875
aF2927.368408203125
aF2928.675537109375
aF2929.85205078125
aF2930.83251953125
aF2931.486083984375
aF2931.7802734375
aF2931.74755859375
aF2931.2900390625
aF2930.636474609375
aF2929.8193359375
aF2929.525390625
aF2929.39453125
aF2929.557861328125
aF2930.146240234375
aF2930.865234375
aF2931.68212890625
aF2932.53173828125
aF2933.44677734375
aF2934.656005859375
aF2935.440185546875
aF2936.12646484375
aF2936.714599609375
aF2937.10693359375
aF2937.368408203125
aF2937.629638671875
aF2937.923828125
aF2938.218017578125
aF2938.610107421875
aF2939.002197265625
aF2939.39453125
aF2939.6884765625
aF2939.982666015625
aF2940.27685546875
aF2940.5380859375
aF2940.799560546875
aF2940.99560546875
aF2941.257080078125
aF2941.387939453125
aF2941.42041015625
aF2941.48583984375
aF2941.48583984375
aF2941.48583984375
aF2941.48583984375
aF2941.453125
aF2941.387939453125
aF2941.191650390625
aF2940.930419921875
aF2940.603515625
aF2940.1787109375
aF2939.36181640625
aF2938.087158203125
aF2936.028564453125
aF2933.08740234375
aF2961.6162109375
aF2961.71435546875
aF2961.910400390625
aF2962.367919921875
aF2962.4658203125
aF2962.433349609375
aF2962.335205078125
aF2962.171875
aF2962.1064453125
aF2962.1064453125
aF2962.1064453125
aF2962.20458984375
aF2962.367919921875
aF2962.53125
aF2962.727294921875
aF2962.98876953125
aF2963.34814453125
aF2963.707763671875
aF2964.067138671875
aF2964.197998046875
aF2964.68798828125
aF2965.17822265625
aF2965.73388671875
aF2966.387451171875
aF2967.041015625
aF2967.4658203125
aF2967.56396484375
aF2967.43310546875
aF2967.00830078125
aF2966.256591796875
aF2965.2109375
aF2964.034423828125
aF2962.858154296875
aF2961.844970703125
aF2960.962646484375
aF2960.080322265625
aF2959.099853515625
aF2957.69482421875
aF2956.681640625
aF2955.635986328125
aF2954.4921875
aF2953.25048828125
aF2952.008544921875
aF2950.734130859375
aF2949.427001953125
aF2948.021728515625
aF2947.531494140625
aF2946.224365234375
aF2944.982666015625
aF2943.8388671875
aF2942.727783203125
aF2941.714599609375
aF2940.832275390625
aF2939.949951171875
aF2939.002197265625
aF2937.923828125
aF2936.68212890625
aF2934.688720703125
aF2932.95654296875
aF2931.093994140625
aF2929.39453125
aF2928.15283203125
aF2927.368408203125
aF2926.845703125
aF2926.453369140625
aF2926.126708984375
aF2925.636474609375
aF2925.211669921875
aF2924.49267578125
aF2923.414306640625
aF2921.9111328125
aF2920.015625
aF2917.85888671875
aF2915.865478515625
aF2914.166015625
aF2912.36865234375
aF2911.1923828125
aF2910.081298828125
aF2908.83935546875
aF2907.49951171875
aF2905.996337890625
aF2904.39501953125
aF2902.728271484375
aF2901.127197265625
aF2899.55859375
aF2899.068359375
aF2897.63037109375
aF2896.22509765625
aF2894.852783203125
aF2893.67626953125
aF2892.69580078125
aF2891.9443359375
aF2891.258056640625
aF2890.57177734375
aF2889.59130859375
aF2888.7744140625
aF2887.82666015625
aF2886.748291015625
aF2885.50634765625
aF2884.16650390625
aF2882.794189453125
aF2881.48681640625
aF2879.85302734375
aF2878.741943359375
aF2877.696044921875
aF2876.68310546875
aF2875.669921875
aF2874.558837890625
aF2873.317138671875
aF2872.042724609375
aF2870.8662109375
aF2869.787841796875
aF2868.48046875
aF2867.500244140625
aF2866.421875
aF2865.3759765625
aF2864.428466796875
aF2863.6767578125
aF2862.990478515625
aF2862.206298828125
aF2861.38916015625
aF2860.310791015625
aF2859.787841796875
aF2858.8076171875
aF2857.9580078125
aF2856.94482421875
aF2855.931884765625
aF2854.885986328125
aF2853.970947265625
aF2853.3173828125
aF2852.8271484375
aF2852.50048828125
aF2852.40234375
aF2852.337158203125
aF2852.369873046875
aF2852.598388671875
aF2852.8271484375
aF2852.9580078125
aF2853.121337890625
aF2853.3173828125
aF2853.611572265625
aF2854.003662109375
aF2854.26513671875
aF2854.526611328125
aF2854.7880859375
aF2855.1474609375
aF2855.572265625
aF2856.0625
aF2856.552734375
aF2857.075439453125
aF2857.892578125
aF2858.578857421875
aF2859.428466796875
aF2860.278076171875
aF2861.225830078125
aF2862.140869140625
aF2863.023193359375
aF2863.938232421875
aF2864.91845703125
aF2866.421875
aF2867.79443359375
aF2869.42822265625
aF2871.291015625
aF2873.4150390625
aF2875.506591796875
aF2877.402099609375
aF2879.003173828125
aF2880.375732421875
aF2881.55224609375
aF2881.9443359375
aF2882.990234375
aF2883.937744140625
aF2884.72216796875
aF2885.343017578125
aF2885.865966796875
aF2886.258056640625
aF2886.715576171875
aF2887.173095703125
aF2887.7939453125
aF2888.7744140625
aF2889.787353515625
aF2890.86572265625
aF2891.9443359375
aF2892.989990234375
aF2894.03564453125
aF2895.08154296875
aF2896.127197265625
aF2897.368896484375
aF2898.283935546875
aF2899.297119140625
aF2900.506103515625
aF2901.911376953125
aF2903.41455078125
aF2904.91796875
aF2906.453857421875
aF2908.185791015625
aF2910.11376953125
aF2912.79345703125
aF2914.75439453125
aF2916.682373046875
aF2918.577880859375
aF2920.40771484375
aF2922.041748046875
aF2923.512451171875
aF2924.754150390625
aF2925.865234375
aF2926.910888671875
aF2927.825927734375
aF2928.1201171875
aF2928.904296875
aF2929.623291015625
aF2930.244140625
aF2930.76708984375
aF2931.224609375
aF2931.6494140625
aF2932.07421875
aF2932.564453125
aF2933.218017578125
aF2933.8388671875
aF2934.590576171875
aF2935.440185546875
aF2936.12646484375
aF2936.747314453125
aF2937.172119140625
aF2937.53173828125
aF2937.95654296875
aF2938.610107421875
aF2938.969482421875
aF2939.23095703125
aF2939.492431640625
aF2939.65576171875
aF2939.6884765625
aF2939.6884765625
aF2939.6884765625
aF2939.65576171875
aF2939.557861328125
aF2939.525146484375
aF2939.557861328125
aF2939.6884765625
aF2939.884521484375
aF2940.048095703125
aF2940.1787109375
aF2940.244140625
aF2940.27685546875
aF2940.27685546875
aF2940.27685546875
aF2940.244140625
aF2940.244140625
aF2940.244140625
aF2940.27685546875
aF2940.505615234375
aF2940.766845703125
aF2940.99560546875
aF2941.12646484375
aF2941.12646484375
aF2941.191650390625
aF2941.224365234375
aF2941.257080078125
aF2941.289794921875
aF2941.387939453125
aF2941.48583984375
aF2941.649169921875
aF2941.780029296875
aF2942.04150390625
aF2942.270263671875
aF2942.43359375
aF2942.564208984375
aF2942.695068359375
aF2942.82568359375
aF2942.89111328125
aF2942.79296875
aF2942.33544921875
aF2941.355224609375
aF2940.244140625
aF2938.610107421875
aF2936.5185546875
assg18
(lp88
ss.