(dp0
S'a'
p1
(dp2
S'answered'
p3
(lp4
S'l'
p5
ag1
asS'success'
p6
(lp7
I00
aI01
asS'index'
p8
(lp9
I2
aI2
assS'e'
p10
(dp11
g3
(lp12
S'o'
p13
ag10
asg6
(lp14
I00
aI01
asg8
(lp15
I0
aI0
assS'm'
p16
(dp17
g3
(lp18
g10
ag16
asg6
(lp19
I00
aI01
asg8
(lp20
I6
aI6
assg5
(dp21
g3
(lp22
g16
aS'u'
p23
ag10
ag13
aS'n'
p24
ag1
ag5
asg6
(lp25
I00
aI00
aI00
aI00
aI00
aI00
aI01
asg8
(lp26
I3
aI3
aI3
aI3
aI3
aI3
aI3
assg13
(dp27
g3
(lp28
g13
asg6
(lp29
I01
asg8
(lp30
I4
assg24
(dp31
g3
(lp32
g24
asg6
(lp33
I01
asg8
(lp34
I7
assg23
(dp35
g3
(lp36
g1
ag16
ag24
ag13
ag10
ag23
asg6
(lp37
I00
aI00
aI00
aI00
aI00
aI01
asg8
(lp38
I5
aI5
aI5
aI5
aI5
aI5
assS'y'
p39
(dp40
g3
(lp41
g24
ag16
ag23
ag10
ag1
ag39
asg6
(lp42
I00
aI00
aI00
aI00
aI00
aI01
asg8
(lp43
I1
aI1
aI1
aI1
aI1
aI1
ass.